
build/bin/routhleckOS.bin:     file format elf32-i386


Disassembly of section .text:

00100000 <start_-0xc>:
  100000:	02 b0 ad 1b 03 00    	add    0x31bad(%eax),%dh
  100006:	00 00                	add    %al,(%eax)
  100008:	fb                   	sti    
  100009:	4f                   	dec    %edi
  10000a:	52                   	push   %edx
  10000b:	e4                 	in     $0xbc,%al

0010000c <start_>:
  10000c:	bc 00 50 10 00       	mov    $0x105000,%esp
  100011:	e8 66 01 00 00       	call   10017c <_kernel_init>
  100016:	83 ec 06             	sub    $0x6,%esp
  100019:	c7 44 24 02 00 50 10 	movl   $0x105000,0x2(%esp)
  100020:	00 
  100021:	66 a1 00 60 10 00    	mov    0x106000,%ax
  100027:	66 89 04 24          	mov    %ax,(%esp)
  10002b:	0f 01 14 24          	lgdtl  (%esp)
  10002f:	83 c4 06             	add    $0x6,%esp
  100032:	66 b9 10 00          	mov    $0x10,%cx
  100036:	8e c1                	mov    %ecx,%es
  100038:	8e d9                	mov    %ecx,%ds
  10003a:	8e e1                	mov    %ecx,%fs
  10003c:	8e e9                	mov    %ecx,%gs
  10003e:	8e d1                	mov    %ecx,%ss
  100040:	66 6a 08             	pushw  $0x8
  100043:	68 49 00 10 00       	push   $0x100049
  100048:	cb                   	lret   

00100049 <_after_gdt>:
  100049:	53                   	push   %ebx
  10004a:	e8 2f 01 00 00       	call   10017e <_kernel_main>
  10004f:	fa                   	cli    

00100050 <j_>:
  100050:	f4                   	hlt    
  100051:	eb fd                	jmp    100050 <j_>

00100053 <_set_gdt_entry>:
  100053:	55                   	push   %ebp
  100054:	57                   	push   %edi
  100055:	56                   	push   %esi
  100056:	53                   	push   %ebx
  100057:	8b 44 24 18          	mov    0x18(%esp),%eax
  10005b:	25 00 00 00 ff       	and    $0xff000000,%eax
  100060:	0b 44 24 20          	or     0x20(%esp),%eax
  100064:	89 c2                	mov    %eax,%edx
  100066:	8b 44 24 1c          	mov    0x1c(%esp),%eax
  10006a:	25 00 00 0f 00       	and    $0xf0000,%eax
  10006f:	09 c2                	or     %eax,%edx
  100071:	8b 44 24 18          	mov    0x18(%esp),%eax
  100075:	c1 e8 10             	shr    $0x10,%eax
  100078:	0f b6 c0             	movzbl %al,%eax
  10007b:	09 d0                	or     %edx,%eax
  10007d:	ba 00 00 00 00       	mov    $0x0,%edx
  100082:	8b 74 24 14          	mov    0x14(%esp),%esi
  100086:	89 04 f5 00 50 10 00 	mov    %eax,0x105000(,%esi,8)
  10008d:	89 14 f5 04 50 10 00 	mov    %edx,0x105004(,%esi,8)
  100094:	8b 44 24 14          	mov    0x14(%esp),%eax
  100098:	8b 14 c5 04 50 10 00 	mov    0x105004(,%eax,8),%edx
  10009f:	8b 04 c5 00 50 10 00 	mov    0x105000(,%eax,8),%eax
  1000a6:	89 c2                	mov    %eax,%edx
  1000a8:	b8 00 00 00 00       	mov    $0x0,%eax
  1000ad:	8b 74 24 14          	mov    0x14(%esp),%esi
  1000b1:	89 04 f5 00 50 10 00 	mov    %eax,0x105000(,%esi,8)
  1000b8:	89 14 f5 04 50 10 00 	mov    %edx,0x105004(,%esi,8)
  1000bf:	8b 44 24 14          	mov    0x14(%esp),%eax
  1000c3:	8b 14 c5 04 50 10 00 	mov    0x105004(,%eax,8),%edx
  1000ca:	8b 04 c5 00 50 10 00 	mov    0x105000(,%eax,8),%eax
  1000d1:	8b 74 24 18          	mov    0x18(%esp),%esi
  1000d5:	89 f7                	mov    %esi,%edi
  1000d7:	c1 e7 10             	shl    $0x10,%edi
  1000da:	8b 74 24 1c          	mov    0x1c(%esp),%esi
  1000de:	0f b7 f6             	movzwl %si,%esi
  1000e1:	09 fe                	or     %edi,%esi
  1000e3:	bf 00 00 00 00       	mov    $0x0,%edi
  1000e8:	89 c5                	mov    %eax,%ebp
  1000ea:	09 f5                	or     %esi,%ebp
  1000ec:	89 e9                	mov    %ebp,%ecx
  1000ee:	89 d0                	mov    %edx,%eax
  1000f0:	09 f8                	or     %edi,%eax
  1000f2:	89 c3                	mov    %eax,%ebx
  1000f4:	8b 44 24 14          	mov    0x14(%esp),%eax
  1000f8:	89 0c c5 00 50 10 00 	mov    %ecx,0x105000(,%eax,8)
  1000ff:	89 1c c5 04 50 10 00 	mov    %ebx,0x105004(,%eax,8)
  100106:	90                   	nop
  100107:	5b                   	pop    %ebx
  100108:	5e                   	pop    %esi
  100109:	5f                   	pop    %edi
  10010a:	5d                   	pop    %ebp
  10010b:	c3                   	ret    

0010010c <_init_gdt>:
  10010c:	83 ec 04             	sub    $0x4,%esp
  10010f:	6a 00                	push   $0x0
  100111:	6a 00                	push   $0x0
  100113:	6a 00                	push   $0x0
  100115:	6a 00                	push   $0x0
  100117:	e8 37 ff ff ff       	call   100053 <_set_gdt_entry>
  10011c:	83 c4 10             	add    $0x10,%esp
  10011f:	68 00 9a c0 00       	push   $0xc09a00
  100124:	68 ff ff ff 00       	push   $0xffffff
  100129:	6a 00                	push   $0x0
  10012b:	6a 01                	push   $0x1
  10012d:	e8 21 ff ff ff       	call   100053 <_set_gdt_entry>
  100132:	83 c4 10             	add    $0x10,%esp
  100135:	68 00 92 c0 00       	push   $0xc09200
  10013a:	68 ff ff ff 00       	push   $0xffffff
  10013f:	6a 00                	push   $0x0
  100141:	6a 02                	push   $0x2
  100143:	e8 0b ff ff ff       	call   100053 <_set_gdt_entry>
  100148:	83 c4 10             	add    $0x10,%esp
  10014b:	68 00 fa c0 00       	push   $0xc0fa00
  100150:	68 ff ff ff 00       	push   $0xffffff
  100155:	6a 00                	push   $0x0
  100157:	6a 03                	push   $0x3
  100159:	e8 f5 fe ff ff       	call   100053 <_set_gdt_entry>
  10015e:	83 c4 10             	add    $0x10,%esp
  100161:	68 00 f2 c0 00       	push   $0xc0f200
  100166:	68 ff ff ff 00       	push   $0xffffff
  10016b:	6a 00                	push   $0x0
  10016d:	6a 04                	push   $0x4
  10016f:	e8 df fe ff ff       	call   100053 <_set_gdt_entry>
  100174:	83 c4 10             	add    $0x10,%esp
  100177:	90                   	nop
  100178:	83 c4 04             	add    $0x4,%esp
  10017b:	c3                   	ret    

0010017c <_kernel_init>:
  10017c:	90                   	nop
  10017d:	c3                   	ret    

0010017e <_kernel_main>:
  10017e:	83 ec 0c             	sub    $0xc,%esp
  100181:	83 ec 08             	sub    $0x8,%esp
  100184:	6a 00                	push   $0x0
  100186:	6a 0a                	push   $0xa
  100188:	e8 18 00 00 00       	call   1001a5 <tty_set_theme>
  10018d:	83 c4 10             	add    $0x10,%esp
  100190:	83 ec 0c             	sub    $0xc,%esp
  100193:	68 00 70 10 00       	push   $0x107000
  100198:	e8 05 01 00 00       	call   1002a2 <tty_put_str>
  10019d:	83 c4 10             	add    $0x10,%esp
  1001a0:	90                   	nop
  1001a1:	83 c4 0c             	add    $0xc,%esp
  1001a4:	c3                   	ret    

001001a5 <tty_set_theme>:
  1001a5:	83 ec 08             	sub    $0x8,%esp
  1001a8:	8b 54 24 0c          	mov    0xc(%esp),%edx
  1001ac:	8b 44 24 10          	mov    0x10(%esp),%eax
  1001b0:	66 89 54 24 04       	mov    %dx,0x4(%esp)
  1001b5:	66 89 04 24          	mov    %ax,(%esp)
  1001b9:	0f b7 04 24          	movzwl (%esp),%eax
  1001bd:	c1 e0 04             	shl    $0x4,%eax
  1001c0:	89 c2                	mov    %eax,%edx
  1001c2:	0f b7 44 24 04       	movzwl 0x4(%esp),%eax
  1001c7:	09 d0                	or     %edx,%eax
  1001c9:	c1 e0 08             	shl    $0x8,%eax
  1001cc:	66 a3 28 50 10 00    	mov    %ax,0x105028
  1001d2:	90                   	nop
  1001d3:	83 c4 08             	add    $0x8,%esp
  1001d6:	c3                   	ret    

001001d7 <tty_put_char>:
  1001d7:	53                   	push   %ebx
  1001d8:	83 ec 18             	sub    $0x18,%esp
  1001db:	8b 44 24 20          	mov    0x20(%esp),%eax
  1001df:	88 44 24 0c          	mov    %al,0xc(%esp)
  1001e3:	80 7c 24 0c 0a       	cmpb   $0xa,0xc(%esp)
  1001e8:	75 1f                	jne    100209 <tty_put_char+0x32>
  1001ea:	c7 05 2c 50 10 00 00 	movl   $0x0,0x10502c
  1001f1:	00 00 00 
  1001f4:	0f b7 05 30 50 10 00 	movzwl 0x105030,%eax
  1001fb:	83 c0 01             	add    $0x1,%eax
  1001fe:	66 a3 30 50 10 00    	mov    %ax,0x105030
  100204:	e9 81 00 00 00       	jmp    10028a <tty_put_char+0xb3>
  100209:	80 7c 24 0c 0d       	cmpb   $0xd,0xc(%esp)
  10020e:	75 0c                	jne    10021c <tty_put_char+0x45>
  100210:	c7 05 2c 50 10 00 00 	movl   $0x0,0x10502c
  100217:	00 00 00 
  10021a:	eb 6e                	jmp    10028a <tty_put_char+0xb3>
  10021c:	66 0f be 54 24 0c    	movsbw 0xc(%esp),%dx
  100222:	0f b7 05 28 50 10 00 	movzwl 0x105028,%eax
  100229:	89 d1                	mov    %edx,%ecx
  10022b:	09 c1                	or     %eax,%ecx
  10022d:	8b 1d 04 60 10 00    	mov    0x106004,%ebx
  100233:	0f b7 05 30 50 10 00 	movzwl 0x105030,%eax
  10023a:	0f b7 d0             	movzwl %ax,%edx
  10023d:	89 d0                	mov    %edx,%eax
  10023f:	c1 e0 02             	shl    $0x2,%eax
  100242:	01 d0                	add    %edx,%eax
  100244:	c1 e0 04             	shl    $0x4,%eax
  100247:	89 c2                	mov    %eax,%edx
  100249:	a1 2c 50 10 00       	mov    0x10502c,%eax
  10024e:	01 d0                	add    %edx,%eax
  100250:	01 c0                	add    %eax,%eax
  100252:	01 d8                	add    %ebx,%eax
  100254:	89 ca                	mov    %ecx,%edx
  100256:	66 89 10             	mov    %dx,(%eax)
  100259:	a1 2c 50 10 00       	mov    0x10502c,%eax
  10025e:	83 c0 01             	add    $0x1,%eax
  100261:	a3 2c 50 10 00       	mov    %eax,0x10502c
  100266:	a1 2c 50 10 00       	mov    0x10502c,%eax
  10026b:	83 f8 4f             	cmp    $0x4f,%eax
  10026e:	76 1a                	jbe    10028a <tty_put_char+0xb3>
  100270:	c7 05 2c 50 10 00 00 	movl   $0x0,0x10502c
  100277:	00 00 00 
  10027a:	0f b7 05 30 50 10 00 	movzwl 0x105030,%eax
  100281:	83 c0 01             	add    $0x1,%eax
  100284:	66 a3 30 50 10 00    	mov    %ax,0x105030
  10028a:	0f b7 05 30 50 10 00 	movzwl 0x105030,%eax
  100291:	66 83 f8 18          	cmp    $0x18,%ax
  100295:	76 05                	jbe    10029c <tty_put_char+0xc5>
  100297:	e8 37 00 00 00       	call   1002d3 <tty_scroll_up>
  10029c:	90                   	nop
  10029d:	83 c4 18             	add    $0x18,%esp
  1002a0:	5b                   	pop    %ebx
  1002a1:	c3                   	ret    

001002a2 <tty_put_str>:
  1002a2:	83 ec 0c             	sub    $0xc,%esp
  1002a5:	eb 1b                	jmp    1002c2 <tty_put_str+0x20>
  1002a7:	8b 44 24 10          	mov    0x10(%esp),%eax
  1002ab:	0f b6 00             	movzbl (%eax),%eax
  1002ae:	0f be c0             	movsbl %al,%eax
  1002b1:	83 ec 0c             	sub    $0xc,%esp
  1002b4:	50                   	push   %eax
  1002b5:	e8 1d ff ff ff       	call   1001d7 <tty_put_char>
  1002ba:	83 c4 10             	add    $0x10,%esp
  1002bd:	83 44 24 10 01       	addl   $0x1,0x10(%esp)
  1002c2:	8b 44 24 10          	mov    0x10(%esp),%eax
  1002c6:	0f b6 00             	movzbl (%eax),%eax
  1002c9:	84 c0                	test   %al,%al
  1002cb:	75 da                	jne    1002a7 <tty_put_str+0x5>
  1002cd:	90                   	nop
  1002ce:	90                   	nop
  1002cf:	83 c4 0c             	add    $0xc,%esp
  1002d2:	c3                   	ret    

001002d3 <tty_scroll_up>:
  1002d3:	90                   	nop
  1002d4:	c3                   	ret    

001002d5 <tty_clear>:
  1002d5:	83 ec 10             	sub    $0x10,%esp
  1002d8:	c7 44 24 0c 00 00 00 	movl   $0x0,0xc(%esp)
  1002df:	00 
  1002e0:	eb 46                	jmp    100328 <tty_clear+0x53>
  1002e2:	c7 44 24 08 00 00 00 	movl   $0x0,0x8(%esp)
  1002e9:	00 
  1002ea:	eb 30                	jmp    10031c <tty_clear+0x47>
  1002ec:	8b 0d 04 60 10 00    	mov    0x106004,%ecx
  1002f2:	8b 54 24 08          	mov    0x8(%esp),%edx
  1002f6:	89 d0                	mov    %edx,%eax
  1002f8:	c1 e0 02             	shl    $0x2,%eax
  1002fb:	01 d0                	add    %edx,%eax
  1002fd:	c1 e0 04             	shl    $0x4,%eax
  100300:	89 c2                	mov    %eax,%edx
  100302:	8b 44 24 0c          	mov    0xc(%esp),%eax
  100306:	01 d0                	add    %edx,%eax
  100308:	01 c0                	add    %eax,%eax
  10030a:	8d 14 01             	lea    (%ecx,%eax,1),%edx
  10030d:	0f b7 05 28 50 10 00 	movzwl 0x105028,%eax
  100314:	66 89 02             	mov    %ax,(%edx)
  100317:	83 44 24 08 01       	addl   $0x1,0x8(%esp)
  10031c:	83 7c 24 08 18       	cmpl   $0x18,0x8(%esp)
  100321:	76 c9                	jbe    1002ec <tty_clear+0x17>
  100323:	83 44 24 0c 01       	addl   $0x1,0xc(%esp)
  100328:	83 7c 24 0c 4f       	cmpl   $0x4f,0xc(%esp)
  10032d:	76 b3                	jbe    1002e2 <tty_clear+0xd>
  10032f:	90                   	nop
  100330:	90                   	nop
  100331:	83 c4 10             	add    $0x10,%esp
  100334:	c3                   	ret    
