
build/bin/routhleckOS.bin:     file format elf32-i386


Disassembly of section .hhk_init_text:

00100000 <start_-0xc>:
  100000:	02 b0 ad 1b 03 00    	add    0x31bad(%eax),%dh
  100006:	00 00                	add    %al,(%eax)
  100008:	fb                   	sti    
  100009:	4f                   	dec    %edi
  10000a:	52                   	push   %edx
  10000b:	e4                 	in     $0xbc,%al

0010000c <start_>:
  10000c:	bc be 5f 10 00       	mov    $0x105fbe,%esp
  100011:	83 ec 10             	sub    $0x10,%esp
  100014:	c7 44 24 04 00 10 10 	movl   $0x101000,0x4(%esp)
  10001b:	00 
  10001c:	89 1c 24             	mov    %ebx,(%esp)
  10001f:	e8 5e 01 00 00       	call   100182 <_save_multiboot_info>
  100024:	c7 44 24 04 00 60 00 	movl   $0x6000,0x4(%esp)
  10002b:	00 
  10002c:	c7 04 24 00 b0 12 00 	movl   $0x12b000,(%esp)
  100033:	e8 b0 01 00 00       	call   1001e8 <_hhk_init>
  100038:	8b 04 24             	mov    (%esp),%eax
  10003b:	25 00 f0 ff ff       	and    $0xfffff000,%eax
  100040:	0f 22 d8             	mov    %eax,%cr3
  100043:	0f 20 c0             	mov    %cr0,%eax
  100046:	0d 00 00 00 80       	or     $0x80000000,%eax
  10004b:	0f 22 c0             	mov    %eax,%cr0
  10004e:	83 c4 10             	add    $0x10,%esp
  100051:	68 b6 61 10 c0       	push   $0xc01061b6
  100056:	c3                   	ret    

00100057 <_init_page>:
  100057:	55                   	push   %ebp
  100058:	89 e5                	mov    %esp,%ebp
  10005a:	57                   	push   %edi
  10005b:	56                   	push   %esi
  10005c:	53                   	push   %ebx
  10005d:	83 ec 04             	sub    $0x4,%esp
  100060:	8b 45 08             	mov    0x8(%ebp),%eax
  100063:	8d 90 00 10 00 00    	lea    0x1000(%eax),%edx
  100069:	81 e2 00 f0 ff ff    	and    $0xfffff000,%edx
  10006f:	83 ca 01             	or     $0x1,%edx
  100072:	89 10                	mov    %edx,(%eax)
  100074:	ba 00 00 00 00       	mov    $0x0,%edx
  100079:	eb 12                	jmp    10008d <_init_page+0x36>
  10007b:	89 d1                	mov    %edx,%ecx
  10007d:	c1 e1 0c             	shl    $0xc,%ecx
  100080:	83 c9 03             	or     $0x3,%ecx
  100083:	89 8c 90 00 10 00 00 	mov    %ecx,0x1000(%eax,%edx,4)
  10008a:	83 c2 01             	add    $0x1,%edx
  10008d:	81 fa ff 00 00 00    	cmp    $0xff,%edx
  100093:	76 e6                	jbe    10007b <_init_page+0x24>
  100095:	b9 00 00 00 00       	mov    $0x0,%ecx
  10009a:	eb 18                	jmp    1000b4 <_init_page+0x5d>
  10009c:	89 ca                	mov    %ecx,%edx
  10009e:	c1 e2 0c             	shl    $0xc,%edx
  1000a1:	81 c2 00 00 10 00    	add    $0x100000,%edx
  1000a7:	83 ca 03             	or     $0x3,%edx
  1000aa:	89 94 88 00 14 00 00 	mov    %edx,0x1400(%eax,%ecx,4)
  1000b1:	83 c1 01             	add    $0x1,%ecx
  1000b4:	ba ff 6f 00 00       	mov    $0x6fff,%edx
  1000b9:	c1 ea 0c             	shr    $0xc,%edx
  1000bc:	39 ca                	cmp    %ecx,%edx
  1000be:	77 dc                	ja     10009c <_init_page+0x45>
  1000c0:	be 00 60 10 c0       	mov    $0xc0106000,%esi
  1000c5:	89 f3                	mov    %esi,%ebx
  1000c7:	c1 eb 16             	shr    $0x16,%ebx
  1000ca:	89 5d f0             	mov    %ebx,-0x10(%ebp)
  1000cd:	c1 ee 0c             	shr    $0xc,%esi
  1000d0:	81 e6 ff 03 00 00    	and    $0x3ff,%esi
  1000d6:	bb ff 1f 13 c0       	mov    $0xc0131fff,%ebx
  1000db:	81 eb 00 60 10 c0    	sub    $0xc0106000,%ebx
  1000e1:	c1 eb 0c             	shr    $0xc,%ebx
  1000e4:	b9 00 00 00 00       	mov    $0x0,%ecx
  1000e9:	eb 1c                	jmp    100107 <_init_page+0xb0>
  1000eb:	8d 51 02             	lea    0x2(%ecx),%edx
  1000ee:	c1 e2 0c             	shl    $0xc,%edx
  1000f1:	01 c2                	add    %eax,%edx
  1000f3:	81 e2 00 f0 ff ff    	and    $0xfffff000,%edx
  1000f9:	8b 7d f0             	mov    -0x10(%ebp),%edi
  1000fc:	01 cf                	add    %ecx,%edi
  1000fe:	83 ca 03             	or     $0x3,%edx
  100101:	89 14 b8             	mov    %edx,(%eax,%edi,4)
  100104:	83 c1 01             	add    $0x1,%ecx
  100107:	83 f9 02             	cmp    $0x2,%ecx
  10010a:	76 df                	jbe    1000eb <_init_page+0x94>
  10010c:	81 fb 00 0c 00 00    	cmp    $0xc00,%ebx
  100112:	76 02                	jbe    100116 <_init_page+0xbf>
  100114:	eb fe                	jmp    100114 <_init_page+0xbd>
  100116:	b9 00 00 00 00       	mov    $0x0,%ecx
  10011b:	eb 21                	jmp    10013e <_init_page+0xe7>
  10011d:	89 ca                	mov    %ecx,%edx
  10011f:	c1 e2 0c             	shl    $0xc,%edx
  100122:	81 c2 00 60 10 00    	add    $0x106000,%edx
  100128:	81 e2 00 f0 ff ff    	and    $0xfffff000,%edx
  10012e:	8d bc 31 00 08 00 00 	lea    0x800(%ecx,%esi,1),%edi
  100135:	83 ca 03             	or     $0x3,%edx
  100138:	89 14 b8             	mov    %edx,(%eax,%edi,4)
  10013b:	83 c1 01             	add    $0x1,%ecx
  10013e:	39 d9                	cmp    %ebx,%ecx
  100140:	72 db                	jb     10011d <_init_page+0xc6>
  100142:	89 c2                	mov    %eax,%edx
  100144:	81 e2 00 f0 ff ff    	and    $0xfffff000,%edx
  10014a:	83 ca 13             	or     $0x13,%edx
  10014d:	89 90 fc 0f 00 00    	mov    %edx,0xffc(%eax)
  100153:	83 c4 04             	add    $0x4,%esp
  100156:	5b                   	pop    %ebx
  100157:	5e                   	pop    %esi
  100158:	5f                   	pop    %edi
  100159:	5d                   	pop    %ebp
  10015a:	c3                   	ret    

0010015b <__save_subset>:
  10015b:	55                   	push   %ebp
  10015c:	89 e5                	mov    %esp,%ebp
  10015e:	56                   	push   %esi
  10015f:	53                   	push   %ebx
  100160:	8b 75 08             	mov    0x8(%ebp),%esi
  100163:	8b 5d 0c             	mov    0xc(%ebp),%ebx
  100166:	8b 4d 10             	mov    0x10(%ebp),%ecx
  100169:	b8 00 00 00 00       	mov    $0x0,%eax
  10016e:	eb 0a                	jmp    10017a <__save_subset+0x1f>
  100170:	0f b6 14 03          	movzbl (%ebx,%eax,1),%edx
  100174:	88 14 06             	mov    %dl,(%esi,%eax,1)
  100177:	83 c0 01             	add    $0x1,%eax
  10017a:	39 c8                	cmp    %ecx,%eax
  10017c:	72 f2                	jb     100170 <__save_subset+0x15>
  10017e:	5b                   	pop    %ebx
  10017f:	5e                   	pop    %esi
  100180:	5d                   	pop    %ebp
  100181:	c3                   	ret    

00100182 <_save_multiboot_info>:
  100182:	55                   	push   %ebp
  100183:	89 e5                	mov    %esp,%ebp
  100185:	57                   	push   %edi
  100186:	56                   	push   %esi
  100187:	53                   	push   %ebx
  100188:	83 ec 0c             	sub    $0xc,%esp
  10018b:	8b 75 08             	mov    0x8(%ebp),%esi
  10018e:	8b 7d 0c             	mov    0xc(%ebp),%edi
  100191:	bb 00 00 00 00       	mov    $0x0,%ebx
  100196:	eb 0a                	jmp    1001a2 <_save_multiboot_info+0x20>
  100198:	0f b6 04 1e          	movzbl (%esi,%ebx,1),%eax
  10019c:	88 04 1f             	mov    %al,(%edi,%ebx,1)
  10019f:	83 c3 01             	add    $0x1,%ebx
  1001a2:	83 fb 77             	cmp    $0x77,%ebx
  1001a5:	76 f1                	jbe    100198 <_save_multiboot_info+0x16>
  1001a7:	8d 04 1f             	lea    (%edi,%ebx,1),%eax
  1001aa:	89 47 30             	mov    %eax,0x30(%edi)
  1001ad:	83 ec 04             	sub    $0x4,%esp
  1001b0:	ff 76 2c             	push   0x2c(%esi)
  1001b3:	ff 76 30             	push   0x30(%esi)
  1001b6:	50                   	push   %eax
  1001b7:	e8 9f ff ff ff       	call   10015b <__save_subset>
  1001bc:	01 c3                	add    %eax,%ebx
  1001be:	83 c4 10             	add    $0x10,%esp
  1001c1:	f6 06 80             	testb  $0x80,(%esi)
  1001c4:	75 08                	jne    1001ce <_save_multiboot_info+0x4c>
  1001c6:	8d 65 f4             	lea    -0xc(%ebp),%esp
  1001c9:	5b                   	pop    %ebx
  1001ca:	5e                   	pop    %esi
  1001cb:	5f                   	pop    %edi
  1001cc:	5d                   	pop    %ebp
  1001cd:	c3                   	ret    
  1001ce:	8d 04 1f             	lea    (%edi,%ebx,1),%eax
  1001d1:	89 47 38             	mov    %eax,0x38(%edi)
  1001d4:	83 ec 04             	sub    $0x4,%esp
  1001d7:	ff 76 34             	push   0x34(%esi)
  1001da:	ff 76 38             	push   0x38(%esi)
  1001dd:	50                   	push   %eax
  1001de:	e8 78 ff ff ff       	call   10015b <__save_subset>
  1001e3:	83 c4 10             	add    $0x10,%esp
  1001e6:	eb de                	jmp    1001c6 <_save_multiboot_info+0x44>

001001e8 <_hhk_init>:
  1001e8:	55                   	push   %ebp
  1001e9:	89 e5                	mov    %esp,%ebp
  1001eb:	8b 55 08             	mov    0x8(%ebp),%edx
  1001ee:	8b 4d 0c             	mov    0xc(%ebp),%ecx
  1001f1:	b8 00 00 00 00       	mov    $0x0,%eax
  1001f6:	eb 07                	jmp    1001ff <_hhk_init+0x17>
  1001f8:	c6 04 02 00          	movb   $0x0,(%edx,%eax,1)
  1001fc:	83 c0 01             	add    $0x1,%eax
  1001ff:	39 c8                	cmp    %ecx,%eax
  100201:	72 f5                	jb     1001f8 <_hhk_init+0x10>
  100203:	52                   	push   %edx
  100204:	e8 4e fe ff ff       	call   100057 <_init_page>
  100209:	83 c4 04             	add    $0x4,%esp
  10020c:	c9                   	leave  
  10020d:	c3                   	ret    

Disassembly of section .hhk_init_bss:

00101000 <mb_info>:
	...

00102000 <stack_bottom>:
	...

Disassembly of section .text:

c0106000 <_set_gdt_entry>:
c0106000:	55                   	push   %ebp
c0106001:	89 e5                	mov    %esp,%ebp
c0106003:	57                   	push   %edi
c0106004:	56                   	push   %esi
c0106005:	53                   	push   %ebx
c0106006:	8b 4d 08             	mov    0x8(%ebp),%ecx
c0106009:	8b 55 0c             	mov    0xc(%ebp),%edx
c010600c:	8b 5d 10             	mov    0x10(%ebp),%ebx
c010600f:	89 d0                	mov    %edx,%eax
c0106011:	25 00 00 00 ff       	and    $0xff000000,%eax
c0106016:	0b 45 14             	or     0x14(%ebp),%eax
c0106019:	89 de                	mov    %ebx,%esi
c010601b:	81 e6 00 00 0f 00    	and    $0xf0000,%esi
c0106021:	09 f0                	or     %esi,%eax
c0106023:	89 c7                	mov    %eax,%edi
c0106025:	89 d6                	mov    %edx,%esi
c0106027:	c1 ee 10             	shr    $0x10,%esi
c010602a:	89 f0                	mov    %esi,%eax
c010602c:	0f b6 f0             	movzbl %al,%esi
c010602f:	89 f8                	mov    %edi,%eax
c0106031:	09 f0                	or     %esi,%eax
c0106033:	89 04 cd 00 80 10 c0 	mov    %eax,-0x3fef8000(,%ecx,8)
c010603a:	c7 04 cd 04 80 10 c0 	movl   $0x0,-0x3fef7ffc(,%ecx,8)
c0106041:	00 00 00 00 
c0106045:	c7 04 cd 00 80 10 c0 	movl   $0x0,-0x3fef8000(,%ecx,8)
c010604c:	00 00 00 00 
c0106050:	89 04 cd 04 80 10 c0 	mov    %eax,-0x3fef7ffc(,%ecx,8)
c0106057:	c1 e2 10             	shl    $0x10,%edx
c010605a:	0f b7 db             	movzwl %bx,%ebx
c010605d:	09 da                	or     %ebx,%edx
c010605f:	89 14 cd 00 80 10 c0 	mov    %edx,-0x3fef8000(,%ecx,8)
c0106066:	89 04 cd 04 80 10 c0 	mov    %eax,-0x3fef7ffc(,%ecx,8)
c010606d:	5b                   	pop    %ebx
c010606e:	5e                   	pop    %esi
c010606f:	5f                   	pop    %edi
c0106070:	5d                   	pop    %ebp
c0106071:	c3                   	ret    

c0106072 <_init_gdt>:
c0106072:	55                   	push   %ebp
c0106073:	89 e5                	mov    %esp,%ebp
c0106075:	83 ec 08             	sub    $0x8,%esp
c0106078:	6a 00                	push   $0x0
c010607a:	6a 00                	push   $0x0
c010607c:	6a 00                	push   $0x0
c010607e:	6a 00                	push   $0x0
c0106080:	e8 7b ff ff ff       	call   c0106000 <_set_gdt_entry>
c0106085:	68 00 9a c0 00       	push   $0xc09a00
c010608a:	68 ff ff 0f 00       	push   $0xfffff
c010608f:	6a 00                	push   $0x0
c0106091:	6a 01                	push   $0x1
c0106093:	e8 68 ff ff ff       	call   c0106000 <_set_gdt_entry>
c0106098:	83 c4 20             	add    $0x20,%esp
c010609b:	68 00 92 c0 00       	push   $0xc09200
c01060a0:	68 ff ff 0f 00       	push   $0xfffff
c01060a5:	6a 00                	push   $0x0
c01060a7:	6a 02                	push   $0x2
c01060a9:	e8 52 ff ff ff       	call   c0106000 <_set_gdt_entry>
c01060ae:	68 00 fa c0 00       	push   $0xc0fa00
c01060b3:	68 ff ff 0f 00       	push   $0xfffff
c01060b8:	6a 00                	push   $0x0
c01060ba:	6a 03                	push   $0x3
c01060bc:	e8 3f ff ff ff       	call   c0106000 <_set_gdt_entry>
c01060c1:	83 c4 20             	add    $0x20,%esp
c01060c4:	68 00 f2 c0 00       	push   $0xc0f200
c01060c9:	68 ff ff 0f 00       	push   $0xfffff
c01060ce:	6a 00                	push   $0x0
c01060d0:	6a 04                	push   $0x4
c01060d2:	e8 29 ff ff ff       	call   c0106000 <_set_gdt_entry>
c01060d7:	83 c4 10             	add    $0x10,%esp
c01060da:	c9                   	leave  
c01060db:	c3                   	ret    

c01060dc <_set_idt_entry>:
c01060dc:	55                   	push   %ebp
c01060dd:	89 e5                	mov    %esp,%ebp
c01060df:	53                   	push   %ebx
c01060e0:	8b 55 08             	mov    0x8(%ebp),%edx
c01060e3:	8b 4d 10             	mov    0x10(%ebp),%ecx
c01060e6:	89 cb                	mov    %ecx,%ebx
c01060e8:	66 bb 00 00          	mov    $0x0,%bx
c01060ec:	0f b6 45 14          	movzbl 0x14(%ebp),%eax
c01060f0:	c1 e0 0d             	shl    $0xd,%eax
c01060f3:	25 00 60 00 00       	and    $0x6000,%eax
c01060f8:	09 d8                	or     %ebx,%eax
c01060fa:	80 cc 8e             	or     $0x8e,%ah
c01060fd:	89 04 d5 40 80 10 c0 	mov    %eax,-0x3fef7fc0(,%edx,8)
c0106104:	c7 04 d5 44 80 10 c0 	movl   $0x0,-0x3fef7fbc(,%edx,8)
c010610b:	00 00 00 00 
c010610f:	c7 04 d5 40 80 10 c0 	movl   $0x0,-0x3fef7fc0(,%edx,8)
c0106116:	00 00 00 00 
c010611a:	89 04 d5 44 80 10 c0 	mov    %eax,-0x3fef7fbc(,%edx,8)
c0106121:	0f b7 5d 0c          	movzwl 0xc(%ebp),%ebx
c0106125:	c1 e3 10             	shl    $0x10,%ebx
c0106128:	0f b7 c9             	movzwl %cx,%ecx
c010612b:	09 d9                	or     %ebx,%ecx
c010612d:	89 0c d5 40 80 10 c0 	mov    %ecx,-0x3fef7fc0(,%edx,8)
c0106134:	89 04 d5 44 80 10 c0 	mov    %eax,-0x3fef7fbc(,%edx,8)
c010613b:	8b 5d fc             	mov    -0x4(%ebp),%ebx
c010613e:	c9                   	leave  
c010613f:	c3                   	ret    

c0106140 <_init_idt>:
c0106140:	55                   	push   %ebp
c0106141:	89 e5                	mov    %esp,%ebp
c0106143:	83 ec 08             	sub    $0x8,%esp
c0106146:	6a 00                	push   $0x0
c0106148:	68 5b 61 10 c0       	push   $0xc010615b
c010614d:	6a 08                	push   $0x8
c010614f:	6a 00                	push   $0x0
c0106151:	e8 86 ff ff ff       	call   c01060dc <_set_idt_entry>
c0106156:	83 c4 10             	add    $0x10,%esp
c0106159:	c9                   	leave  
c010615a:	c3                   	ret    

c010615b <_asm_isr0>:
c010615b:	6a 00                	push   $0x0
c010615d:	6a 00                	push   $0x0
c010615f:	eb 00                	jmp    c0106161 <interrupt_wrapper>

c0106161 <interrupt_wrapper>:
c0106161:	89 e0                	mov    %esp,%eax
c0106163:	83 e4 f0             	and    $0xfffffff0,%esp
c0106166:	83 ec 10             	sub    $0x10,%esp
c0106169:	89 04 24             	mov    %eax,(%esp)
c010616c:	e8 27 00 00 00       	call   c0106198 <interrupt_handler>
c0106171:	58                   	pop    %eax
c0106172:	89 c4                	mov    %eax,%esp
c0106174:	83 c4 08             	add    $0x8,%esp
c0106177:	cf                   	iret   

c0106178 <isr0>:
c0106178:	55                   	push   %ebp
c0106179:	89 e5                	mov    %esp,%ebp
c010617b:	83 ec 08             	sub    $0x8,%esp
c010617e:	8b 45 08             	mov    0x8(%ebp),%eax
c0106181:	ff 70 08             	push   0x8(%eax)
c0106184:	ff 70 0c             	push   0xc(%eax)
c0106187:	ff 30                	push   (%eax)
c0106189:	68 84 a0 12 c0       	push   $0xc012a084
c010618e:	e8 96 0b 00 00       	call   c0106d29 <printf>
c0106193:	83 c4 10             	add    $0x10,%esp
c0106196:	c9                   	leave  
c0106197:	c3                   	ret    

c0106198 <interrupt_handler>:
c0106198:	55                   	push   %ebp
c0106199:	89 e5                	mov    %esp,%ebp
c010619b:	83 ec 08             	sub    $0x8,%esp
c010619e:	8b 45 08             	mov    0x8(%ebp),%eax
c01061a1:	83 38 00             	cmpl   $0x0,(%eax)
c01061a4:	74 02                	je     c01061a8 <interrupt_handler+0x10>
c01061a6:	c9                   	leave  
c01061a7:	c3                   	ret    
c01061a8:	83 ec 0c             	sub    $0xc,%esp
c01061ab:	50                   	push   %eax
c01061ac:	e8 c7 ff ff ff       	call   c0106178 <isr0>
c01061b1:	83 c4 10             	add    $0x10,%esp
c01061b4:	eb f0                	jmp    c01061a6 <interrupt_handler+0xe>

c01061b6 <hhk_entry_>:
c01061b6:	83 ec 10             	sub    $0x10,%esp
c01061b9:	e8 b4 fe ff ff       	call   c0106072 <_init_gdt>
c01061be:	c7 44 24 02 00 80 10 	movl   $0xc0108000,0x2(%esp)
c01061c5:	c0 
c01061c6:	66 a1 00 90 12 c0    	mov    0xc0129000,%ax
c01061cc:	66 89 04 24          	mov    %ax,(%esp)
c01061d0:	0f 01 14 24          	lgdtl  (%esp)
c01061d4:	66 b9 10 00          	mov    $0x10,%cx
c01061d8:	8e c1                	mov    %ecx,%es
c01061da:	8e d9                	mov    %ecx,%ds
c01061dc:	8e e1                	mov    %ecx,%fs
c01061de:	8e e9                	mov    %ecx,%gs
c01061e0:	8e d1                	mov    %ecx,%ss
c01061e2:	66 6a 08             	pushw  $0x8
c01061e5:	68 eb 61 10 c0       	push   $0xc01061eb
c01061ea:	cb                   	lret   

c01061eb <_after_gdt>:
c01061eb:	c7 04 24 00 10 10 00 	movl   $0x101000,(%esp)
c01061f2:	e8 2f 00 00 00       	call   c0106226 <_kernel_init>
c01061f7:	bc f0 ff bf ff       	mov    $0xffbffff0,%esp
c01061fc:	e8 25 02 00 00       	call   c0106426 <_kernel_post_init>
c0106201:	83 ec 06             	sub    $0x6,%esp
c0106204:	c7 44 24 02 40 80 10 	movl   $0xc0108040,0x2(%esp)
c010620b:	c0 
c010620c:	66 a1 02 90 12 c0    	mov    0xc0129002,%ax
c0106212:	66 89 04 24          	mov    %ax,(%esp)
c0106216:	0f 01 1c 24          	lidtl  (%esp)
c010621a:	83 c4 06             	add    $0x6,%esp
c010621d:	e8 65 02 00 00       	call   c0106487 <_kernel_main>
c0106222:	fa                   	cli    

c0106223 <j_>:
c0106223:	f4                   	hlt    
c0106224:	eb fd                	jmp    c0106223 <j_>

c0106226 <_kernel_init>:
c0106226:	55                   	push   %ebp
c0106227:	89 e5                	mov    %esp,%ebp
c0106229:	57                   	push   %edi
c010622a:	56                   	push   %esi
c010622b:	53                   	push   %ebx
c010622c:	83 ec 3c             	sub    $0x3c,%esp
c010622f:	8b 5d 08             	mov    0x8(%ebp),%ebx
c0106232:	e8 09 ff ff ff       	call   c0106140 <_init_idt>
c0106237:	8b 43 30             	mov    0x30(%ebx),%eax
c010623a:	89 45 c0             	mov    %eax,-0x40(%ebp)
c010623d:	8b 43 08             	mov    0x8(%ebx),%eax
c0106240:	c1 e0 0a             	shl    $0xa,%eax
c0106243:	83 ec 0c             	sub    $0xc,%esp
c0106246:	05 00 00 10 00       	add    $0x100000,%eax
c010624b:	50                   	push   %eax
c010624c:	e8 2b 04 00 00       	call   c010667c <pmm_init>
c0106251:	e8 5b 05 00 00       	call   c01067b1 <vmm_init>
c0106256:	c7 04 24 00 80 0b 00 	movl   $0xb8000,(%esp)
c010625d:	e8 16 09 00 00       	call   c0106b78 <tty_init>
c0106262:	83 c4 08             	add    $0x8,%esp
c0106265:	6a 00                	push   $0x0
c0106267:	6a 02                	push   $0x2
c0106269:	e8 a5 07 00 00       	call   c0106a13 <tty_set_theme>
c010626e:	c7 04 24 b0 a0 12 c0 	movl   $0xc012a0b0,(%esp)
c0106275:	e8 af 0a 00 00       	call   c0106d29 <printf>
c010627a:	ba ab aa aa aa       	mov    $0xaaaaaaab,%edx
c010627f:	89 d0                	mov    %edx,%eax
c0106281:	f7 63 2c             	mull   0x2c(%ebx)
c0106284:	c1 ea 04             	shr    $0x4,%edx
c0106287:	89 55 c4             	mov    %edx,-0x3c(%ebp)
c010628a:	83 c4 0c             	add    $0xc,%esp
c010628d:	ff 73 08             	push   0x8(%ebx)
c0106290:	ff 73 04             	push   0x4(%ebx)
c0106293:	68 d4 a0 12 c0       	push   $0xc012a0d4
c0106298:	e8 8c 0a 00 00       	call   c0106d29 <printf>
c010629d:	83 c4 10             	add    $0x10,%esp
c01062a0:	be 00 00 00 00       	mov    $0x0,%esi
c01062a5:	eb 03                	jmp    c01062aa <_kernel_init+0x84>
c01062a7:	83 c6 01             	add    $0x1,%esi
c01062aa:	3b 75 c4             	cmp    -0x3c(%ebp),%esi
c01062ad:	0f 83 8b 00 00 00    	jae    c010633e <_kernel_init+0x118>
c01062b3:	8d 04 76             	lea    (%esi,%esi,2),%eax
c01062b6:	8d 1c c5 00 00 00 00 	lea    0x0(,%eax,8),%ebx
c01062bd:	03 5d c0             	add    -0x40(%ebp),%ebx
c01062c0:	8b 03                	mov    (%ebx),%eax
c01062c2:	89 45 d0             	mov    %eax,-0x30(%ebp)
c01062c5:	8b 43 04             	mov    0x4(%ebx),%eax
c01062c8:	89 45 d4             	mov    %eax,-0x2c(%ebp)
c01062cb:	8b 43 08             	mov    0x8(%ebx),%eax
c01062ce:	89 45 d8             	mov    %eax,-0x28(%ebp)
c01062d1:	8b 43 0c             	mov    0xc(%ebx),%eax
c01062d4:	89 45 dc             	mov    %eax,-0x24(%ebp)
c01062d7:	8b 53 10             	mov    0x10(%ebx),%edx
c01062da:	89 55 e0             	mov    %edx,-0x20(%ebp)
c01062dd:	8b 7b 14             	mov    0x14(%ebx),%edi
c01062e0:	89 7d e4             	mov    %edi,-0x1c(%ebp)
c01062e3:	57                   	push   %edi
c01062e4:	c1 e8 0a             	shr    $0xa,%eax
c01062e7:	50                   	push   %eax
c01062e8:	ff 73 04             	push   0x4(%ebx)
c01062eb:	68 fc a0 12 c0       	push   $0xc012a0fc
c01062f0:	e8 34 0a 00 00       	call   c0106d29 <printf>
c01062f5:	83 c4 10             	add    $0x10,%esp
c01062f8:	83 ff 01             	cmp    $0x1,%edi
c01062fb:	75 aa                	jne    c01062a7 <_kernel_init+0x81>
c01062fd:	8b 43 04             	mov    0x4(%ebx),%eax
c0106300:	8d b8 ff 0f 00 00    	lea    0xfff(%eax),%edi
c0106306:	8b 43 0c             	mov    0xc(%ebx),%eax
c0106309:	c1 e8 0c             	shr    $0xc,%eax
c010630c:	83 ec 08             	sub    $0x8,%esp
c010630f:	50                   	push   %eax
c0106310:	89 f8                	mov    %edi,%eax
c0106312:	c1 e8 0c             	shr    $0xc,%eax
c0106315:	50                   	push   %eax
c0106316:	e8 f9 01 00 00       	call   c0106514 <pmm_mark_chunk_free>
c010631b:	8b 43 0c             	mov    0xc(%ebx),%eax
c010631e:	83 c4 0c             	add    $0xc,%esp
c0106321:	81 e7 00 f0 ff ff    	and    $0xfffff000,%edi
c0106327:	57                   	push   %edi
c0106328:	c1 e8 0c             	shr    $0xc,%eax
c010632b:	50                   	push   %eax
c010632c:	68 24 a1 12 c0       	push   $0xc012a124
c0106331:	e8 f3 09 00 00       	call   c0106d29 <printf>
c0106336:	83 c4 10             	add    $0x10,%esp
c0106339:	e9 69 ff ff ff       	jmp    c01062a7 <_kernel_init+0x81>
c010633e:	bb 00 10 13 c0       	mov    $0xc0131000,%ebx
c0106343:	81 eb 00 60 10 c0    	sub    $0xc0106000,%ebx
c0106349:	c1 eb 0c             	shr    $0xc,%ebx
c010634c:	83 ec 08             	sub    $0x8,%esp
c010634f:	53                   	push   %ebx
c0106350:	b8 00 60 10 00       	mov    $0x106000,%eax
c0106355:	c1 e8 0c             	shr    $0xc,%eax
c0106358:	50                   	push   %eax
c0106359:	e8 6b 02 00 00       	call   c01065c9 <pmm_mark_chunk_occupied>
c010635e:	83 c4 08             	add    $0x8,%esp
c0106361:	53                   	push   %ebx
c0106362:	68 4c a1 12 c0       	push   $0xc012a14c
c0106367:	e8 bd 09 00 00       	call   c0106d29 <printf>
c010636c:	83 c4 08             	add    $0x8,%esp
c010636f:	6a 01                	push   $0x1
c0106371:	68 b8 00 00 00       	push   $0xb8
c0106376:	e8 4e 02 00 00       	call   c01065c9 <pmm_mark_chunk_occupied>
c010637b:	83 c4 10             	add    $0x10,%esp
c010637e:	bb 00 00 00 00       	mov    $0x0,%ebx
c0106383:	85 db                	test   %ebx,%ebx
c0106385:	74 29                	je     c01063b0 <_kernel_init+0x18a>
c0106387:	83 ec 0c             	sub    $0xc,%esp
c010638a:	68 00 00 00 b0       	push   $0xb0000000
c010638f:	e8 72 06 00 00       	call   c0106a06 <tty_set_buffer>
c0106394:	83 c4 08             	add    $0x8,%esp
c0106397:	68 00 00 00 b0       	push   $0xb0000000
c010639c:	68 c3 a2 12 c0       	push   $0xc012a2c3
c01063a1:	e8 83 09 00 00       	call   c0106d29 <printf>
c01063a6:	83 c4 10             	add    $0x10,%esp
c01063a9:	bb 00 00 00 00       	mov    $0x0,%ebx
c01063ae:	eb 40                	jmp    c01063f0 <_kernel_init+0x1ca>
c01063b0:	89 d8                	mov    %ebx,%eax
c01063b2:	c1 e0 0c             	shl    $0xc,%eax
c01063b5:	8d 90 00 80 0b 00    	lea    0xb8000(%eax),%edx
c01063bb:	2d 00 00 00 50       	sub    $0x50000000,%eax
c01063c0:	6a 03                	push   $0x3
c01063c2:	6a 03                	push   $0x3
c01063c4:	52                   	push   %edx
c01063c5:	50                   	push   %eax
c01063c6:	e8 1e 04 00 00       	call   c01067e9 <vmm_map_page>
c01063cb:	83 c3 01             	add    $0x1,%ebx
c01063ce:	83 c4 10             	add    $0x10,%esp
c01063d1:	eb b0                	jmp    c0106383 <_kernel_init+0x15d>
c01063d3:	89 d8                	mov    %ebx,%eax
c01063d5:	c1 e0 0c             	shl    $0xc,%eax
c01063d8:	2d 00 00 50 00       	sub    $0x500000,%eax
c01063dd:	83 ec 04             	sub    $0x4,%esp
c01063e0:	6a 03                	push   $0x3
c01063e2:	6a 03                	push   $0x3
c01063e4:	50                   	push   %eax
c01063e5:	e8 40 05 00 00       	call   c010692a <vmm_alloc_page>
c01063ea:	83 c3 01             	add    $0x1,%ebx
c01063ed:	83 c4 10             	add    $0x10,%esp
c01063f0:	81 fb ff 00 00 00    	cmp    $0xff,%ebx
c01063f6:	76 db                	jbe    c01063d3 <_kernel_init+0x1ad>
c01063f8:	83 ec 04             	sub    $0x4,%esp
c01063fb:	68 00 00 b0 ff       	push   $0xffb00000
c0106400:	68 00 01 00 00       	push   $0x100
c0106405:	68 74 a1 12 c0       	push   $0xc012a174
c010640a:	e8 1a 09 00 00       	call   c0106d29 <printf>
c010640f:	c7 04 24 a4 a1 12 c0 	movl   $0xc012a1a4,(%esp)
c0106416:	e8 0e 09 00 00       	call   c0106d29 <printf>
c010641b:	83 c4 10             	add    $0x10,%esp
c010641e:	8d 65 f4             	lea    -0xc(%ebp),%esp
c0106421:	5b                   	pop    %ebx
c0106422:	5e                   	pop    %esi
c0106423:	5f                   	pop    %edi
c0106424:	5d                   	pop    %ebp
c0106425:	c3                   	ret    

c0106426 <_kernel_post_init>:
c0106426:	55                   	push   %ebp
c0106427:	89 e5                	mov    %esp,%ebp
c0106429:	56                   	push   %esi
c010642a:	53                   	push   %ebx
c010642b:	83 ec 0c             	sub    $0xc,%esp
c010642e:	68 cc a1 12 c0       	push   $0xc012a1cc
c0106433:	e8 f1 08 00 00       	call   c0106d29 <printf>
c0106438:	be 00 60 10 00       	mov    $0x106000,%esi
c010643d:	c1 ee 0c             	shr    $0xc,%esi
c0106440:	83 c4 08             	add    $0x8,%esp
c0106443:	56                   	push   %esi
c0106444:	68 f4 a1 12 c0       	push   $0xc012a1f4
c0106449:	e8 db 08 00 00       	call   c0106d29 <printf>
c010644e:	83 c4 10             	add    $0x10,%esp
c0106451:	bb 00 00 00 00       	mov    $0x0,%ebx
c0106456:	eb 14                	jmp    c010646c <_kernel_post_init+0x46>
c0106458:	89 d8                	mov    %ebx,%eax
c010645a:	c1 e0 0c             	shl    $0xc,%eax
c010645d:	83 ec 0c             	sub    $0xc,%esp
c0106460:	50                   	push   %eax
c0106461:	e8 ff 04 00 00       	call   c0106965 <vmm_unmap_page>
c0106466:	83 c3 01             	add    $0x1,%ebx
c0106469:	83 c4 10             	add    $0x10,%esp
c010646c:	39 f3                	cmp    %esi,%ebx
c010646e:	72 e8                	jb     c0106458 <_kernel_post_init+0x32>
c0106470:	83 ec 0c             	sub    $0xc,%esp
c0106473:	68 18 a2 12 c0       	push   $0xc012a218
c0106478:	e8 ac 08 00 00       	call   c0106d29 <printf>
c010647d:	83 c4 10             	add    $0x10,%esp
c0106480:	8d 65 f8             	lea    -0x8(%ebp),%esp
c0106483:	5b                   	pop    %ebx
c0106484:	5e                   	pop    %esi
c0106485:	5d                   	pop    %ebp
c0106486:	c3                   	ret    

c0106487 <_kernel_main>:
c0106487:	55                   	push   %ebp
c0106488:	89 e5                	mov    %esp,%ebp
c010648a:	53                   	push   %ebx
c010648b:	83 ec 50             	sub    $0x50,%esp
c010648e:	68 48 a2 12 c0       	push   $0xc012a248
c0106493:	e8 91 08 00 00       	call   c0106d29 <printf>
c0106498:	8d 5d b8             	lea    -0x48(%ebp),%ebx
c010649b:	89 1c 24             	mov    %ebx,(%esp)
c010649e:	e8 7c 07 00 00       	call   c0106c1f <cpu_get_brand>
c01064a3:	83 c4 08             	add    $0x8,%esp
c01064a6:	53                   	push   %ebx
c01064a7:	68 db a2 12 c0       	push   $0xc012a2db
c01064ac:	e8 78 08 00 00       	call   c0106d29 <printf>
c01064b1:	c7 04 24 00 60 10 c0 	movl   $0xc0106000,(%esp)
c01064b8:	e8 fd 04 00 00       	call   c01069ba <vmm_v2p>
c01064bd:	83 c4 0c             	add    $0xc,%esp
c01064c0:	50                   	push   %eax
c01064c1:	68 00 60 10 c0       	push   $0xc0106000
c01064c6:	68 98 a2 12 c0       	push   $0xc012a298
c01064cb:	e8 59 08 00 00       	call   c0106d29 <printf>
c01064d0:	83 c4 10             	add    $0x10,%esp
c01064d3:	8b 5d fc             	mov    -0x4(%ebp),%ebx
c01064d6:	c9                   	leave  
c01064d7:	c3                   	ret    

c01064d8 <pmm_mark_page_free>:
c01064d8:	55                   	push   %ebp
c01064d9:	89 e5                	mov    %esp,%ebp
c01064db:	8b 4d 08             	mov    0x8(%ebp),%ecx
c01064de:	89 ca                	mov    %ecx,%edx
c01064e0:	c1 ea 03             	shr    $0x3,%edx
c01064e3:	83 e1 07             	and    $0x7,%ecx
c01064e6:	b8 80 00 00 00       	mov    $0x80,%eax
c01064eb:	d3 e8                	shr    %cl,%eax
c01064ed:	f7 d0                	not    %eax
c01064ef:	20 82 60 81 10 c0    	and    %al,-0x3fef7ea0(%edx)
c01064f5:	5d                   	pop    %ebp
c01064f6:	c3                   	ret    

c01064f7 <pmm_mark_page_occupied>:
c01064f7:	55                   	push   %ebp
c01064f8:	89 e5                	mov    %esp,%ebp
c01064fa:	8b 4d 08             	mov    0x8(%ebp),%ecx
c01064fd:	89 ca                	mov    %ecx,%edx
c01064ff:	c1 ea 03             	shr    $0x3,%edx
c0106502:	83 e1 07             	and    $0x7,%ecx
c0106505:	b8 80 00 00 00       	mov    $0x80,%eax
c010650a:	d3 e8                	shr    %cl,%eax
c010650c:	08 82 60 81 10 c0    	or     %al,-0x3fef7ea0(%edx)
c0106512:	5d                   	pop    %ebp
c0106513:	c3                   	ret    

c0106514 <pmm_mark_chunk_free>:
c0106514:	55                   	push   %ebp
c0106515:	89 e5                	mov    %esp,%ebp
c0106517:	57                   	push   %edi
c0106518:	56                   	push   %esi
c0106519:	53                   	push   %ebx
c010651a:	83 ec 04             	sub    $0x4,%esp
c010651d:	8b 7d 08             	mov    0x8(%ebp),%edi
c0106520:	89 f8                	mov    %edi,%eax
c0106522:	c1 e8 03             	shr    $0x3,%eax
c0106525:	83 e7 07             	and    $0x7,%edi
c0106528:	89 fa                	mov    %edi,%edx
c010652a:	03 55 0c             	add    0xc(%ebp),%edx
c010652d:	89 d6                	mov    %edx,%esi
c010652f:	c1 ee 03             	shr    $0x3,%esi
c0106532:	89 d3                	mov    %edx,%ebx
c0106534:	83 e3 07             	and    $0x7,%ebx
c0106537:	89 5d f0             	mov    %ebx,-0x10(%ebp)
c010653a:	83 fa 07             	cmp    $0x7,%edx
c010653d:	76 2e                	jbe    c010656d <pmm_mark_chunk_free+0x59>
c010653f:	b9 08 00 00 00       	mov    $0x8,%ecx
c0106544:	29 f9                	sub    %edi,%ecx
c0106546:	bb 01 00 00 00       	mov    $0x1,%ebx
c010654b:	d3 e3                	shl    %cl,%ebx
c010654d:	83 eb 01             	sub    $0x1,%ebx
c0106550:	01 cf                	add    %ecx,%edi
c0106552:	b9 08 00 00 00       	mov    $0x8,%ecx
c0106557:	29 f9                	sub    %edi,%ecx
c0106559:	d3 e3                	shl    %cl,%ebx
c010655b:	f7 d3                	not    %ebx
c010655d:	20 98 60 81 10 c0    	and    %bl,-0x3fef7ea0(%eax)
c0106563:	83 c0 01             	add    $0x1,%eax
c0106566:	b9 00 00 00 00       	mov    $0x0,%ecx
c010656b:	eb 12                	jmp    c010657f <pmm_mark_chunk_free+0x6b>
c010656d:	8b 4d 0c             	mov    0xc(%ebp),%ecx
c0106570:	eb d4                	jmp    c0106546 <pmm_mark_chunk_free+0x32>
c0106572:	c6 80 60 81 10 c0 00 	movb   $0x0,-0x3fef7ea0(%eax)
c0106579:	83 c1 01             	add    $0x1,%ecx
c010657c:	83 c0 01             	add    $0x1,%eax
c010657f:	83 fa 07             	cmp    $0x7,%edx
c0106582:	76 07                	jbe    c010658b <pmm_mark_chunk_free+0x77>
c0106584:	8d 5e ff             	lea    -0x1(%esi),%ebx
c0106587:	39 cb                	cmp    %ecx,%ebx
c0106589:	77 e7                	ja     c0106572 <pmm_mark_chunk_free+0x5e>
c010658b:	0f b6 98 60 81 10 c0 	movzbl -0x3fef7ea0(%eax),%ebx
c0106592:	83 7d 0c 08          	cmpl   $0x8,0xc(%ebp)
c0106596:	76 2a                	jbe    c01065c2 <pmm_mark_chunk_free+0xae>
c0106598:	ba 01 00 00 00       	mov    $0x1,%edx
c010659d:	0f b6 4d f0          	movzbl -0x10(%ebp),%ecx
c01065a1:	d3 e2                	shl    %cl,%edx
c01065a3:	83 ea 01             	sub    $0x1,%edx
c01065a6:	b9 08 00 00 00       	mov    $0x8,%ecx
c01065ab:	2b 4d f0             	sub    -0x10(%ebp),%ecx
c01065ae:	d3 e2                	shl    %cl,%edx
c01065b0:	f7 d2                	not    %edx
c01065b2:	21 da                	and    %ebx,%edx
c01065b4:	88 90 60 81 10 c0    	mov    %dl,-0x3fef7ea0(%eax)
c01065ba:	83 c4 04             	add    $0x4,%esp
c01065bd:	5b                   	pop    %ebx
c01065be:	5e                   	pop    %esi
c01065bf:	5f                   	pop    %edi
c01065c0:	5d                   	pop    %ebp
c01065c1:	c3                   	ret    
c01065c2:	ba 00 00 00 00       	mov    $0x0,%edx
c01065c7:	eb dd                	jmp    c01065a6 <pmm_mark_chunk_free+0x92>

c01065c9 <pmm_mark_chunk_occupied>:
c01065c9:	55                   	push   %ebp
c01065ca:	89 e5                	mov    %esp,%ebp
c01065cc:	57                   	push   %edi
c01065cd:	56                   	push   %esi
c01065ce:	53                   	push   %ebx
c01065cf:	83 ec 04             	sub    $0x4,%esp
c01065d2:	8b 7d 08             	mov    0x8(%ebp),%edi
c01065d5:	89 f8                	mov    %edi,%eax
c01065d7:	c1 e8 03             	shr    $0x3,%eax
c01065da:	83 e7 07             	and    $0x7,%edi
c01065dd:	89 fa                	mov    %edi,%edx
c01065df:	03 55 0c             	add    0xc(%ebp),%edx
c01065e2:	89 d3                	mov    %edx,%ebx
c01065e4:	c1 eb 03             	shr    $0x3,%ebx
c01065e7:	89 d6                	mov    %edx,%esi
c01065e9:	83 e6 07             	and    $0x7,%esi
c01065ec:	89 75 f0             	mov    %esi,-0x10(%ebp)
c01065ef:	83 fa 07             	cmp    $0x7,%edx
c01065f2:	76 2e                	jbe    c0106622 <pmm_mark_chunk_occupied+0x59>
c01065f4:	b9 08 00 00 00       	mov    $0x8,%ecx
c01065f9:	29 f9                	sub    %edi,%ecx
c01065fb:	be 01 00 00 00       	mov    $0x1,%esi
c0106600:	d3 e6                	shl    %cl,%esi
c0106602:	83 ee 01             	sub    $0x1,%esi
c0106605:	01 cf                	add    %ecx,%edi
c0106607:	b9 08 00 00 00       	mov    $0x8,%ecx
c010660c:	29 f9                	sub    %edi,%ecx
c010660e:	d3 e6                	shl    %cl,%esi
c0106610:	89 f1                	mov    %esi,%ecx
c0106612:	08 88 60 81 10 c0    	or     %cl,-0x3fef7ea0(%eax)
c0106618:	83 c0 01             	add    $0x1,%eax
c010661b:	b9 00 00 00 00       	mov    $0x0,%ecx
c0106620:	eb 12                	jmp    c0106634 <pmm_mark_chunk_occupied+0x6b>
c0106622:	8b 4d 0c             	mov    0xc(%ebp),%ecx
c0106625:	eb d4                	jmp    c01065fb <pmm_mark_chunk_occupied+0x32>
c0106627:	c6 80 60 81 10 c0 ff 	movb   $0xff,-0x3fef7ea0(%eax)
c010662e:	83 c1 01             	add    $0x1,%ecx
c0106631:	83 c0 01             	add    $0x1,%eax
c0106634:	83 fa 07             	cmp    $0x7,%edx
c0106637:	76 07                	jbe    c0106640 <pmm_mark_chunk_occupied+0x77>
c0106639:	8d 73 ff             	lea    -0x1(%ebx),%esi
c010663c:	39 ce                	cmp    %ecx,%esi
c010663e:	77 e7                	ja     c0106627 <pmm_mark_chunk_occupied+0x5e>
c0106640:	0f b6 98 60 81 10 c0 	movzbl -0x3fef7ea0(%eax),%ebx
c0106647:	83 7d 0c 08          	cmpl   $0x8,0xc(%ebp)
c010664b:	76 28                	jbe    c0106675 <pmm_mark_chunk_occupied+0xac>
c010664d:	ba 01 00 00 00       	mov    $0x1,%edx
c0106652:	0f b6 4d f0          	movzbl -0x10(%ebp),%ecx
c0106656:	d3 e2                	shl    %cl,%edx
c0106658:	83 ea 01             	sub    $0x1,%edx
c010665b:	b9 08 00 00 00       	mov    $0x8,%ecx
c0106660:	2b 4d f0             	sub    -0x10(%ebp),%ecx
c0106663:	d3 e2                	shl    %cl,%edx
c0106665:	09 d3                	or     %edx,%ebx
c0106667:	88 98 60 81 10 c0    	mov    %bl,-0x3fef7ea0(%eax)
c010666d:	83 c4 04             	add    $0x4,%esp
c0106670:	5b                   	pop    %ebx
c0106671:	5e                   	pop    %esi
c0106672:	5f                   	pop    %edi
c0106673:	5d                   	pop    %ebp
c0106674:	c3                   	ret    
c0106675:	ba 00 00 00 00       	mov    $0x0,%edx
c010667a:	eb df                	jmp    c010665b <pmm_mark_chunk_occupied+0x92>

c010667c <pmm_init>:
c010667c:	55                   	push   %ebp
c010667d:	89 e5                	mov    %esp,%ebp
c010667f:	8b 45 08             	mov    0x8(%ebp),%eax
c0106682:	c1 e8 0c             	shr    $0xc,%eax
c0106685:	a3 44 81 10 c0       	mov    %eax,0xc0108144
c010668a:	c7 05 40 81 10 c0 01 	movl   $0x1,0xc0108140
c0106691:	00 00 00 
c0106694:	b8 00 00 00 00       	mov    $0x0,%eax
c0106699:	eb 0a                	jmp    c01066a5 <pmm_init+0x29>
c010669b:	c6 80 60 81 10 c0 ff 	movb   $0xff,-0x3fef7ea0(%eax)
c01066a2:	83 c0 01             	add    $0x1,%eax
c01066a5:	3d ff ff 01 00       	cmp    $0x1ffff,%eax
c01066aa:	76 ef                	jbe    c010669b <pmm_init+0x1f>
c01066ac:	5d                   	pop    %ebp
c01066ad:	c3                   	ret    

c01066ae <pmm_alloc_page>:
c01066ae:	55                   	push   %ebp
c01066af:	89 e5                	mov    %esp,%ebp
c01066b1:	57                   	push   %edi
c01066b2:	56                   	push   %esi
c01066b3:	53                   	push   %ebx
c01066b4:	83 ec 1c             	sub    $0x1c,%esp
c01066b7:	a1 40 81 10 c0       	mov    0xc0108140,%eax
c01066bc:	89 45 e4             	mov    %eax,-0x1c(%ebp)
c01066bf:	8b 1d 44 81 10 c0    	mov    0xc0108144,%ebx
c01066c5:	be 00 00 00 00       	mov    $0x0,%esi
c01066ca:	eb 3c                	jmp    c0106708 <pmm_alloc_page+0x5a>
c01066cc:	83 e1 07             	and    $0x7,%ecx
c01066cf:	83 f9 07             	cmp    $0x7,%ecx
c01066d2:	77 34                	ja     c0106708 <pmm_alloc_page+0x5a>
c01066d4:	ba 80 00 00 00       	mov    $0x80,%edx
c01066d9:	d3 ea                	shr    %cl,%edx
c01066db:	0f b6 f8             	movzbl %al,%edi
c01066de:	85 d7                	test   %edx,%edi
c01066e0:	74 0c                	je     c01066ee <pmm_alloc_page+0x40>
c01066e2:	83 c1 01             	add    $0x1,%ecx
c01066e5:	83 05 40 81 10 c0 01 	addl   $0x1,0xc0108140
c01066ec:	eb e1                	jmp    c01066cf <pmm_alloc_page+0x21>
c01066ee:	83 ec 0c             	sub    $0xc,%esp
c01066f1:	ff 35 40 81 10 c0    	push   0xc0108140
c01066f7:	e8 fb fd ff ff       	call   c01064f7 <pmm_mark_page_occupied>
c01066fc:	8b 35 40 81 10 c0    	mov    0xc0108140,%esi
c0106702:	c1 e6 0c             	shl    $0xc,%esi
c0106705:	83 c4 10             	add    $0x10,%esp
c0106708:	85 f6                	test   %esi,%esi
c010670a:	75 44                	jne    c0106750 <pmm_alloc_page+0xa2>
c010670c:	8b 0d 40 81 10 c0    	mov    0xc0108140,%ecx
c0106712:	39 d9                	cmp    %ebx,%ecx
c0106714:	73 3a                	jae    c0106750 <pmm_alloc_page+0xa2>
c0106716:	89 c8                	mov    %ecx,%eax
c0106718:	c1 e8 03             	shr    $0x3,%eax
c010671b:	0f b6 80 60 81 10 c0 	movzbl -0x3fef7ea0(%eax),%eax
c0106722:	3c ff                	cmp    $0xff,%al
c0106724:	75 a6                	jne    c01066cc <pmm_alloc_page+0x1e>
c0106726:	83 c1 08             	add    $0x8,%ecx
c0106729:	89 0d 40 81 10 c0    	mov    %ecx,0xc0108140
c010672f:	39 d9                	cmp    %ebx,%ecx
c0106731:	72 d5                	jb     c0106708 <pmm_alloc_page+0x5a>
c0106733:	8b 45 e4             	mov    -0x1c(%ebp),%eax
c0106736:	83 f8 01             	cmp    $0x1,%eax
c0106739:	74 cd                	je     c0106708 <pmm_alloc_page+0x5a>
c010673b:	c7 05 40 81 10 c0 01 	movl   $0x1,0xc0108140
c0106742:	00 00 00 
c0106745:	89 c3                	mov    %eax,%ebx
c0106747:	c7 45 e4 01 00 00 00 	movl   $0x1,-0x1c(%ebp)
c010674e:	eb b8                	jmp    c0106708 <pmm_alloc_page+0x5a>
c0106750:	89 f0                	mov    %esi,%eax
c0106752:	8d 65 f4             	lea    -0xc(%ebp),%esp
c0106755:	5b                   	pop    %ebx
c0106756:	5e                   	pop    %esi
c0106757:	5f                   	pop    %edi
c0106758:	5d                   	pop    %ebp
c0106759:	c3                   	ret    

c010675a <pmm_free_page>:
c010675a:	55                   	push   %ebp
c010675b:	89 e5                	mov    %esp,%ebp
c010675d:	83 ec 08             	sub    $0x8,%esp
c0106760:	8b 45 08             	mov    0x8(%ebp),%eax
c0106763:	c1 e8 0c             	shr    $0xc,%eax
c0106766:	74 22                	je     c010678a <pmm_free_page+0x30>
c0106768:	39 05 44 81 10 c0    	cmp    %eax,0xc0108144
c010676e:	77 07                	ja     c0106777 <pmm_free_page+0x1d>
c0106770:	b8 00 00 00 00       	mov    $0x0,%eax
c0106775:	eb 18                	jmp    c010678f <pmm_free_page+0x35>
c0106777:	83 ec 0c             	sub    $0xc,%esp
c010677a:	50                   	push   %eax
c010677b:	e8 58 fd ff ff       	call   c01064d8 <pmm_mark_page_free>
c0106780:	83 c4 10             	add    $0x10,%esp
c0106783:	b8 01 00 00 00       	mov    $0x1,%eax
c0106788:	eb 05                	jmp    c010678f <pmm_free_page+0x35>
c010678a:	b8 00 00 00 00       	mov    $0x0,%eax
c010678f:	c9                   	leave  
c0106790:	c3                   	ret    

c0106791 <get_pd>:
c0106791:	0f 20 d8             	mov    %cr3,%eax
c0106794:	25 00 f0 ff ff       	and    $0xfffff000,%eax
c0106799:	2d 00 00 00 40       	sub    $0x40000000,%eax
c010679e:	c3                   	ret    

c010679f <set_pd>:
c010679f:	55                   	push   %ebp
c01067a0:	89 e5                	mov    %esp,%ebp
c01067a2:	8b 45 08             	mov    0x8(%ebp),%eax
c01067a5:	89 c0                	mov    %eax,%eax
c01067a7:	25 00 f0 ff ff       	and    $0xfffff000,%eax
c01067ac:	0f 22 d8             	mov    %eax,%cr3
c01067af:	5d                   	pop    %ebp
c01067b0:	c3                   	ret    

c01067b1 <vmm_init>:
c01067b1:	c3                   	ret    

c01067b2 <vmm_init_pd>:
c01067b2:	55                   	push   %ebp
c01067b3:	89 e5                	mov    %esp,%ebp
c01067b5:	83 ec 08             	sub    $0x8,%esp
c01067b8:	e8 f1 fe ff ff       	call   c01066ae <pmm_alloc_page>
c01067bd:	ba 00 00 00 00       	mov    $0x0,%edx
c01067c2:	eb 0a                	jmp    c01067ce <vmm_init_pd+0x1c>
c01067c4:	c7 04 90 00 00 00 00 	movl   $0x0,(%eax,%edx,4)
c01067cb:	83 c2 01             	add    $0x1,%edx
c01067ce:	81 fa ff 03 00 00    	cmp    $0x3ff,%edx
c01067d4:	76 ee                	jbe    c01067c4 <vmm_init_pd+0x12>
c01067d6:	89 c2                	mov    %eax,%edx
c01067d8:	81 e2 00 f0 ff ff    	and    $0xfffff000,%edx
c01067de:	83 ca 13             	or     $0x13,%edx
c01067e1:	89 90 fc 0f 00 00    	mov    %edx,0xffc(%eax)
c01067e7:	c9                   	leave  
c01067e8:	c3                   	ret    

c01067e9 <vmm_map_page>:
c01067e9:	55                   	push   %ebp
c01067ea:	89 e5                	mov    %esp,%ebp
c01067ec:	57                   	push   %edi
c01067ed:	56                   	push   %esi
c01067ee:	53                   	push   %ebx
c01067ef:	83 ec 0c             	sub    $0xc,%esp
c01067f2:	83 7d 0c 00          	cmpl   $0x0,0xc(%ebp)
c01067f6:	0f 94 c0             	sete   %al
c01067f9:	83 7d 08 00          	cmpl   $0x0,0x8(%ebp)
c01067fd:	0f 94 c2             	sete   %dl
c0106800:	08 d0                	or     %dl,%al
c0106802:	0f 85 11 01 00 00    	jne    c0106919 <vmm_map_page+0x130>
c0106808:	8b 7d 08             	mov    0x8(%ebp),%edi
c010680b:	c1 ef 16             	shr    $0x16,%edi
c010680e:	8b 5d 08             	mov    0x8(%ebp),%ebx
c0106811:	c1 eb 0c             	shr    $0xc,%ebx
c0106814:	81 e3 ff 03 00 00    	and    $0x3ff,%ebx
c010681a:	8b 0c bd 00 f0 ff ff 	mov    -0x1000(,%edi,4),%ecx
c0106821:	89 fe                	mov    %edi,%esi
c0106823:	c1 e6 0c             	shl    $0xc,%esi
c0106826:	81 ce 00 00 c0 ff    	or     $0xffc00000,%esi
c010682c:	eb 0f                	jmp    c010683d <vmm_map_page+0x54>
c010682e:	85 f6                	test   %esi,%esi
c0106830:	74 08                	je     c010683a <vmm_map_page+0x51>
c0106832:	8d 04 9e             	lea    (%esi,%ebx,4),%eax
c0106835:	83 38 00             	cmpl   $0x0,(%eax)
c0106838:	74 3d                	je     c0106877 <vmm_map_page+0x8e>
c010683a:	83 c3 01             	add    $0x1,%ebx
c010683d:	85 c9                	test   %ecx,%ecx
c010683f:	0f 95 c0             	setne  %al
c0106842:	81 ff ff 03 00 00    	cmp    $0x3ff,%edi
c0106848:	0f 96 c2             	setbe  %dl
c010684b:	84 c0                	test   %al,%al
c010684d:	74 5b                	je     c01068aa <vmm_map_page+0xc1>
c010684f:	84 d2                	test   %dl,%dl
c0106851:	74 57                	je     c01068aa <vmm_map_page+0xc1>
c0106853:	81 fb 00 04 00 00    	cmp    $0x400,%ebx
c0106859:	75 d3                	jne    c010682e <vmm_map_page+0x45>
c010685b:	83 c7 01             	add    $0x1,%edi
c010685e:	8b 0c bd 00 f0 ff ff 	mov    -0x1000(,%edi,4),%ecx
c0106865:	89 fe                	mov    %edi,%esi
c0106867:	c1 e6 0c             	shl    $0xc,%esi
c010686a:	81 ce 00 00 c0 ff    	or     $0xffc00000,%esi
c0106870:	bb 00 00 00 00       	mov    $0x0,%ebx
c0106875:	eb b7                	jmp    c010682e <vmm_map_page+0x45>
c0106877:	8b 55 0c             	mov    0xc(%ebp),%edx
c010687a:	81 e2 00 f0 ff ff    	and    $0xfffff000,%edx
c0106880:	8b 4d 14             	mov    0x14(%ebp),%ecx
c0106883:	81 e1 ff 0f 00 00    	and    $0xfff,%ecx
c0106889:	09 ca                	or     %ecx,%edx
c010688b:	89 10                	mov    %edx,(%eax)
c010688d:	89 f8                	mov    %edi,%eax
c010688f:	c1 e0 16             	shl    $0x16,%eax
c0106892:	c1 e3 0c             	shl    $0xc,%ebx
c0106895:	09 d8                	or     %ebx,%eax
c0106897:	8b 55 08             	mov    0x8(%ebp),%edx
c010689a:	81 e2 ff 0f 00 00    	and    $0xfff,%edx
c01068a0:	09 d0                	or     %edx,%eax
c01068a2:	8d 65 f4             	lea    -0xc(%ebp),%esp
c01068a5:	5b                   	pop    %ebx
c01068a6:	5e                   	pop    %esi
c01068a7:	5f                   	pop    %edi
c01068a8:	5d                   	pop    %ebp
c01068a9:	c3                   	ret    
c01068aa:	81 ff 00 04 00 00    	cmp    $0x400,%edi
c01068b0:	77 6e                	ja     c0106920 <vmm_map_page+0x137>
c01068b2:	e8 f7 fd ff ff       	call   c01066ae <pmm_alloc_page>
c01068b7:	85 c0                	test   %eax,%eax
c01068b9:	74 e7                	je     c01068a2 <vmm_map_page+0xb9>
c01068bb:	25 00 f0 ff ff       	and    $0xfffff000,%eax
c01068c0:	8b 55 10             	mov    0x10(%ebp),%edx
c01068c3:	81 e2 ff 0f 00 00    	and    $0xfff,%edx
c01068c9:	09 d0                	or     %edx,%eax
c01068cb:	89 04 bd 00 f0 ff ff 	mov    %eax,-0x1000(,%edi,4)
c01068d2:	89 f8                	mov    %edi,%eax
c01068d4:	c1 e0 0c             	shl    $0xc,%eax
c01068d7:	0d 00 00 c0 ff       	or     $0xffc00000,%eax
c01068dc:	83 ec 04             	sub    $0x4,%esp
c01068df:	68 00 10 00 00       	push   $0x1000
c01068e4:	6a 00                	push   $0x0
c01068e6:	50                   	push   %eax
c01068e7:	e8 9f 07 00 00       	call   c010708b <memset>
c01068ec:	8b 45 0c             	mov    0xc(%ebp),%eax
c01068ef:	25 00 f0 ff ff       	and    $0xfffff000,%eax
c01068f4:	8b 55 14             	mov    0x14(%ebp),%edx
c01068f7:	81 e2 ff 0f 00 00    	and    $0xfff,%edx
c01068fd:	09 d0                	or     %edx,%eax
c01068ff:	89 04 9e             	mov    %eax,(%esi,%ebx,4)
c0106902:	c1 e7 16             	shl    $0x16,%edi
c0106905:	c1 e3 0c             	shl    $0xc,%ebx
c0106908:	09 df                	or     %ebx,%edi
c010690a:	8b 45 08             	mov    0x8(%ebp),%eax
c010690d:	25 ff 0f 00 00       	and    $0xfff,%eax
c0106912:	09 f8                	or     %edi,%eax
c0106914:	83 c4 10             	add    $0x10,%esp
c0106917:	eb 89                	jmp    c01068a2 <vmm_map_page+0xb9>
c0106919:	b8 00 00 00 00       	mov    $0x0,%eax
c010691e:	eb 82                	jmp    c01068a2 <vmm_map_page+0xb9>
c0106920:	b8 00 00 00 00       	mov    $0x0,%eax
c0106925:	e9 78 ff ff ff       	jmp    c01068a2 <vmm_map_page+0xb9>

c010692a <vmm_alloc_page>:
c010692a:	55                   	push   %ebp
c010692b:	89 e5                	mov    %esp,%ebp
c010692d:	56                   	push   %esi
c010692e:	53                   	push   %ebx
c010692f:	e8 7a fd ff ff       	call   c01066ae <pmm_alloc_page>
c0106934:	89 c6                	mov    %eax,%esi
c0106936:	ff 75 10             	push   0x10(%ebp)
c0106939:	ff 75 0c             	push   0xc(%ebp)
c010693c:	50                   	push   %eax
c010693d:	ff 75 08             	push   0x8(%ebp)
c0106940:	e8 a4 fe ff ff       	call   c01067e9 <vmm_map_page>
c0106945:	89 c3                	mov    %eax,%ebx
c0106947:	83 c4 10             	add    $0x10,%esp
c010694a:	85 c0                	test   %eax,%eax
c010694c:	74 09                	je     c0106957 <vmm_alloc_page+0x2d>
c010694e:	89 d8                	mov    %ebx,%eax
c0106950:	8d 65 f8             	lea    -0x8(%ebp),%esp
c0106953:	5b                   	pop    %ebx
c0106954:	5e                   	pop    %esi
c0106955:	5d                   	pop    %ebp
c0106956:	c3                   	ret    
c0106957:	83 ec 0c             	sub    $0xc,%esp
c010695a:	56                   	push   %esi
c010695b:	e8 fa fd ff ff       	call   c010675a <pmm_free_page>
c0106960:	83 c4 10             	add    $0x10,%esp
c0106963:	eb e9                	jmp    c010694e <vmm_alloc_page+0x24>

c0106965 <vmm_unmap_page>:
c0106965:	55                   	push   %ebp
c0106966:	89 e5                	mov    %esp,%ebp
c0106968:	56                   	push   %esi
c0106969:	53                   	push   %ebx
c010696a:	8b 45 08             	mov    0x8(%ebp),%eax
c010696d:	89 c3                	mov    %eax,%ebx
c010696f:	89 c2                	mov    %eax,%edx
c0106971:	c1 ea 16             	shr    $0x16,%edx
c0106974:	c1 e8 0c             	shr    $0xc,%eax
c0106977:	25 ff 03 00 00       	and    $0x3ff,%eax
c010697c:	83 3c 95 00 f0 ff ff 	cmpl   $0x0,-0x1000(,%edx,4)
c0106983:	00 
c0106984:	74 18                	je     c010699e <vmm_unmap_page+0x39>
c0106986:	c1 e2 0c             	shl    $0xc,%edx
c0106989:	81 ca 00 00 c0 ff    	or     $0xffc00000,%edx
c010698f:	8d 34 82             	lea    (%edx,%eax,4),%esi
c0106992:	8b 06                	mov    (%esi),%eax
c0106994:	a8 01                	test   $0x1,%al
c0106996:	75 0d                	jne    c01069a5 <vmm_unmap_page+0x40>
c0106998:	c7 06 00 00 00 00    	movl   $0x0,(%esi)
c010699e:	8d 65 f8             	lea    -0x8(%ebp),%esp
c01069a1:	5b                   	pop    %ebx
c01069a2:	5e                   	pop    %esi
c01069a3:	5d                   	pop    %ebp
c01069a4:	c3                   	ret    
c01069a5:	83 ec 0c             	sub    $0xc,%esp
c01069a8:	50                   	push   %eax
c01069a9:	e8 ac fd ff ff       	call   c010675a <pmm_free_page>
c01069ae:	83 c4 10             	add    $0x10,%esp
c01069b1:	85 c0                	test   %eax,%eax
c01069b3:	74 e3                	je     c0106998 <vmm_unmap_page+0x33>
c01069b5:	0f 01 3b             	invlpg (%ebx)
c01069b8:	eb de                	jmp    c0106998 <vmm_unmap_page+0x33>

c01069ba <vmm_v2p>:
c01069ba:	55                   	push   %ebp
c01069bb:	89 e5                	mov    %esp,%ebp
c01069bd:	8b 55 08             	mov    0x8(%ebp),%edx
c01069c0:	89 d0                	mov    %edx,%eax
c01069c2:	c1 e8 16             	shr    $0x16,%eax
c01069c5:	89 d1                	mov    %edx,%ecx
c01069c7:	c1 e9 0c             	shr    $0xc,%ecx
c01069ca:	81 e1 ff 03 00 00    	and    $0x3ff,%ecx
c01069d0:	81 e2 ff 0f 00 00    	and    $0xfff,%edx
c01069d6:	83 3c 85 00 f0 ff ff 	cmpl   $0x0,-0x1000(,%eax,4)
c01069dd:	00 
c01069de:	74 18                	je     c01069f8 <vmm_v2p+0x3e>
c01069e0:	c1 e0 0c             	shl    $0xc,%eax
c01069e3:	0d 00 00 c0 ff       	or     $0xffc00000,%eax
c01069e8:	8b 04 88             	mov    (%eax,%ecx,4),%eax
c01069eb:	85 c0                	test   %eax,%eax
c01069ed:	74 10                	je     c01069ff <vmm_v2p+0x45>
c01069ef:	25 00 f0 ff ff       	and    $0xfffff000,%eax
c01069f4:	09 d0                	or     %edx,%eax
c01069f6:	5d                   	pop    %ebp
c01069f7:	c3                   	ret    
c01069f8:	b8 00 00 00 00       	mov    $0x0,%eax
c01069fd:	eb f7                	jmp    c01069f6 <vmm_v2p+0x3c>
c01069ff:	b8 00 00 00 00       	mov    $0x0,%eax
c0106a04:	eb f0                	jmp    c01069f6 <vmm_v2p+0x3c>

c0106a06 <tty_set_buffer>:
c0106a06:	55                   	push   %ebp
c0106a07:	89 e5                	mov    %esp,%ebp
c0106a09:	8b 45 08             	mov    0x8(%ebp),%eax
c0106a0c:	a3 04 90 12 c0       	mov    %eax,0xc0129004
c0106a11:	5d                   	pop    %ebp
c0106a12:	c3                   	ret    

c0106a13 <tty_set_theme>:
c0106a13:	55                   	push   %ebp
c0106a14:	89 e5                	mov    %esp,%ebp
c0106a16:	0f b7 45 0c          	movzwl 0xc(%ebp),%eax
c0106a1a:	c1 e0 04             	shl    $0x4,%eax
c0106a1d:	66 0b 45 08          	or     0x8(%ebp),%ax
c0106a21:	c1 e0 08             	shl    $0x8,%eax
c0106a24:	66 a3 68 81 12 c0    	mov    %ax,0xc0128168
c0106a2a:	5d                   	pop    %ebp
c0106a2b:	c3                   	ret    

c0106a2c <tty_scroll_up>:
c0106a2c:	55                   	push   %ebp
c0106a2d:	89 e5                	mov    %esp,%ebp
c0106a2f:	83 ec 0c             	sub    $0xc,%esp
c0106a32:	a1 04 90 12 c0       	mov    0xc0129004,%eax
c0106a37:	8d 90 a0 00 00 00    	lea    0xa0(%eax),%edx
c0106a3d:	68 00 0f 00 00       	push   $0xf00
c0106a42:	52                   	push   %edx
c0106a43:	50                   	push   %eax
c0106a44:	e8 dc 05 00 00       	call   c0107025 <memcpy>
c0106a49:	83 c4 10             	add    $0x10,%esp
c0106a4c:	b8 00 00 00 00       	mov    $0x0,%eax
c0106a51:	eb 18                	jmp    c0106a6b <tty_scroll_up+0x3f>
c0106a53:	0f b7 0d 68 81 12 c0 	movzwl 0xc0128168,%ecx
c0106a5a:	8b 15 04 90 12 c0    	mov    0xc0129004,%edx
c0106a60:	66 89 8c 42 00 0f 00 	mov    %cx,0xf00(%edx,%eax,2)
c0106a67:	00 
c0106a68:	83 c0 01             	add    $0x1,%eax
c0106a6b:	83 f8 4f             	cmp    $0x4f,%eax
c0106a6e:	76 e3                	jbe    c0106a53 <tty_scroll_up+0x27>
c0106a70:	0f b7 05 60 81 12 c0 	movzwl 0xc0128160,%eax
c0106a77:	66 85 c0             	test   %ax,%ax
c0106a7a:	74 05                	je     c0106a81 <tty_scroll_up+0x55>
c0106a7c:	b8 18 00 00 00       	mov    $0x18,%eax
c0106a81:	66 a3 60 81 12 c0    	mov    %ax,0xc0128160
c0106a87:	c9                   	leave  
c0106a88:	c3                   	ret    

c0106a89 <tty_put_char>:
c0106a89:	55                   	push   %ebp
c0106a8a:	89 e5                	mov    %esp,%ebp
c0106a8c:	83 ec 08             	sub    $0x8,%esp
c0106a8f:	8b 45 08             	mov    0x8(%ebp),%eax
c0106a92:	3c 0a                	cmp    $0xa,%al
c0106a94:	74 42                	je     c0106ad8 <tty_put_char+0x4f>
c0106a96:	3c 0d                	cmp    $0xd,%al
c0106a98:	74 46                	je     c0106ae0 <tty_put_char+0x57>
c0106a9a:	3c 09                	cmp    $0x9,%al
c0106a9c:	74 31                	je     c0106acf <tty_put_char+0x46>
c0106a9e:	0f b7 15 60 81 12 c0 	movzwl 0xc0128160,%edx
c0106aa5:	8d 0c 92             	lea    (%edx,%edx,4),%ecx
c0106aa8:	c1 e1 04             	shl    $0x4,%ecx
c0106aab:	89 ca                	mov    %ecx,%edx
c0106aad:	03 15 64 81 12 c0    	add    0xc0128164,%edx
c0106ab3:	66 98                	cbtw   
c0106ab5:	66 0b 05 68 81 12 c0 	or     0xc0128168,%ax
c0106abc:	8b 0d 04 90 12 c0    	mov    0xc0129004,%ecx
c0106ac2:	66 89 04 51          	mov    %ax,(%ecx,%edx,2)
c0106ac6:	83 05 64 81 12 c0 01 	addl   $0x1,0xc0128164
c0106acd:	eb 1b                	jmp    c0106aea <tty_put_char+0x61>
c0106acf:	83 05 64 81 12 c0 04 	addl   $0x4,0xc0128164
c0106ad6:	eb 12                	jmp    c0106aea <tty_put_char+0x61>
c0106ad8:	66 83 05 60 81 12 c0 	addw   $0x1,0xc0128160
c0106adf:	01 
c0106ae0:	c7 05 64 81 12 c0 00 	movl   $0x0,0xc0128164
c0106ae7:	00 00 00 
c0106aea:	83 3d 64 81 12 c0 4f 	cmpl   $0x4f,0xc0128164
c0106af1:	76 12                	jbe    c0106b05 <tty_put_char+0x7c>
c0106af3:	c7 05 64 81 12 c0 00 	movl   $0x0,0xc0128164
c0106afa:	00 00 00 
c0106afd:	66 83 05 60 81 12 c0 	addw   $0x1,0xc0128160
c0106b04:	01 
c0106b05:	66 83 3d 60 81 12 c0 	cmpw   $0x18,0xc0128160
c0106b0c:	18 
c0106b0d:	77 02                	ja     c0106b11 <tty_put_char+0x88>
c0106b0f:	c9                   	leave  
c0106b10:	c3                   	ret    
c0106b11:	e8 16 ff ff ff       	call   c0106a2c <tty_scroll_up>
c0106b16:	eb f7                	jmp    c0106b0f <tty_put_char+0x86>

c0106b18 <tty_put_str>:
c0106b18:	55                   	push   %ebp
c0106b19:	89 e5                	mov    %esp,%ebp
c0106b1b:	53                   	push   %ebx
c0106b1c:	83 ec 04             	sub    $0x4,%esp
c0106b1f:	8b 5d 08             	mov    0x8(%ebp),%ebx
c0106b22:	eb 12                	jmp    c0106b36 <tty_put_str+0x1e>
c0106b24:	83 ec 0c             	sub    $0xc,%esp
c0106b27:	0f be c0             	movsbl %al,%eax
c0106b2a:	50                   	push   %eax
c0106b2b:	e8 59 ff ff ff       	call   c0106a89 <tty_put_char>
c0106b30:	83 c3 01             	add    $0x1,%ebx
c0106b33:	83 c4 10             	add    $0x10,%esp
c0106b36:	0f b6 03             	movzbl (%ebx),%eax
c0106b39:	84 c0                	test   %al,%al
c0106b3b:	75 e7                	jne    c0106b24 <tty_put_str+0xc>
c0106b3d:	8b 5d fc             	mov    -0x4(%ebp),%ebx
c0106b40:	c9                   	leave  
c0106b41:	c3                   	ret    

c0106b42 <tty_clear>:
c0106b42:	b8 00 00 00 00       	mov    $0x0,%eax
c0106b47:	eb 14                	jmp    c0106b5d <tty_clear+0x1b>
c0106b49:	0f b7 0d 68 81 12 c0 	movzwl 0xc0128168,%ecx
c0106b50:	8b 15 04 90 12 c0    	mov    0xc0129004,%edx
c0106b56:	66 89 0c 42          	mov    %cx,(%edx,%eax,2)
c0106b5a:	83 c0 01             	add    $0x1,%eax
c0106b5d:	3d cf 07 00 00       	cmp    $0x7cf,%eax
c0106b62:	76 e5                	jbe    c0106b49 <tty_clear+0x7>
c0106b64:	c7 05 64 81 12 c0 00 	movl   $0x0,0xc0128164
c0106b6b:	00 00 00 
c0106b6e:	66 c7 05 60 81 12 c0 	movw   $0x0,0xc0128160
c0106b75:	00 00 
c0106b77:	c3                   	ret    

c0106b78 <tty_init>:
c0106b78:	55                   	push   %ebp
c0106b79:	89 e5                	mov    %esp,%ebp
c0106b7b:	83 ec 08             	sub    $0x8,%esp
c0106b7e:	8b 45 08             	mov    0x8(%ebp),%eax
c0106b81:	a3 04 90 12 c0       	mov    %eax,0xc0129004
c0106b86:	e8 b7 ff ff ff       	call   c0106b42 <tty_clear>
c0106b8b:	c9                   	leave  
c0106b8c:	c3                   	ret    

c0106b8d <cpu_get_model>:
c0106b8d:	55                   	push   %ebp
c0106b8e:	89 e5                	mov    %esp,%ebp
c0106b90:	56                   	push   %esi
c0106b91:	53                   	push   %ebx
c0106b92:	8b 75 08             	mov    0x8(%ebp),%esi
c0106b95:	9c                   	pushf  
c0106b96:	9c                   	pushf  
c0106b97:	58                   	pop    %eax
c0106b98:	89 c2                	mov    %eax,%edx
c0106b9a:	35 00 00 20 00       	xor    $0x200000,%eax
c0106b9f:	50                   	push   %eax
c0106ba0:	9d                   	popf   
c0106ba1:	9c                   	pushf  
c0106ba2:	58                   	pop    %eax
c0106ba3:	9d                   	popf   
c0106ba4:	31 d0                	xor    %edx,%eax
c0106ba6:	25 00 00 20 00       	and    $0x200000,%eax
c0106bab:	74 07                	je     c0106bb4 <cpu_get_model+0x27>
c0106bad:	b8 00 00 00 00       	mov    $0x0,%eax
c0106bb2:	0f a2                	cpuid  
c0106bb4:	85 c0                	test   %eax,%eax
c0106bb6:	74 09                	je     c0106bc1 <cpu_get_model+0x34>
c0106bb8:	b8 00 00 00 00       	mov    $0x0,%eax
c0106bbd:	0f a2                	cpuid  
c0106bbf:	eb 0f                	jmp    c0106bd0 <cpu_get_model+0x43>
c0106bc1:	b9 00 00 00 00       	mov    $0x0,%ecx
c0106bc6:	ba 00 00 00 00       	mov    $0x0,%edx
c0106bcb:	bb 00 00 00 00       	mov    $0x0,%ebx
c0106bd0:	89 1e                	mov    %ebx,(%esi)
c0106bd2:	89 56 04             	mov    %edx,0x4(%esi)
c0106bd5:	89 4e 08             	mov    %ecx,0x8(%esi)
c0106bd8:	c6 46 0c 00          	movb   $0x0,0xc(%esi)
c0106bdc:	5b                   	pop    %ebx
c0106bdd:	5e                   	pop    %esi
c0106bde:	5d                   	pop    %ebp
c0106bdf:	c3                   	ret    

c0106be0 <cpu_brand_string_supported>:
c0106be0:	9c                   	pushf  
c0106be1:	9c                   	pushf  
c0106be2:	58                   	pop    %eax
c0106be3:	89 c2                	mov    %eax,%edx
c0106be5:	35 00 00 20 00       	xor    $0x200000,%eax
c0106bea:	50                   	push   %eax
c0106beb:	9d                   	popf   
c0106bec:	9c                   	pushf  
c0106bed:	58                   	pop    %eax
c0106bee:	9d                   	popf   
c0106bef:	31 d0                	xor    %edx,%eax
c0106bf1:	25 00 00 20 00       	and    $0x200000,%eax
c0106bf6:	74 1b                	je     c0106c13 <cpu_brand_string_supported+0x33>
c0106bf8:	55                   	push   %ebp
c0106bf9:	89 e5                	mov    %esp,%ebp
c0106bfb:	53                   	push   %ebx
c0106bfc:	b8 00 00 00 80       	mov    $0x80000000,%eax
c0106c01:	0f a2                	cpuid  
c0106c03:	3d 03 00 00 80       	cmp    $0x80000003,%eax
c0106c08:	0f 97 c0             	seta   %al
c0106c0b:	0f b6 c0             	movzbl %al,%eax
c0106c0e:	8b 5d fc             	mov    -0x4(%ebp),%ebx
c0106c11:	c9                   	leave  
c0106c12:	c3                   	ret    
c0106c13:	3d 03 00 00 80       	cmp    $0x80000003,%eax
c0106c18:	0f 97 c0             	seta   %al
c0106c1b:	0f b6 c0             	movzbl %al,%eax
c0106c1e:	c3                   	ret    

c0106c1f <cpu_get_brand>:
c0106c1f:	55                   	push   %ebp
c0106c20:	89 e5                	mov    %esp,%ebp
c0106c22:	57                   	push   %edi
c0106c23:	56                   	push   %esi
c0106c24:	53                   	push   %ebx
c0106c25:	83 ec 2c             	sub    $0x2c,%esp
c0106c28:	8b 75 08             	mov    0x8(%ebp),%esi
c0106c2b:	e8 b0 ff ff ff       	call   c0106be0 <cpu_brand_string_supported>
c0106c30:	85 c0                	test   %eax,%eax
c0106c32:	75 07                	jne    c0106c3b <cpu_get_brand+0x1c>
c0106c34:	c6 06 3f             	movb   $0x3f,(%esi)
c0106c37:	c6 46 01 00          	movb   $0x0,0x1(%esi)
c0106c3b:	c7 45 d0 00 00 00 00 	movl   $0x0,-0x30(%ebp)
c0106c42:	c7 45 d4 00 00 00 00 	movl   $0x0,-0x2c(%ebp)
c0106c49:	c7 45 d8 00 00 00 00 	movl   $0x0,-0x28(%ebp)
c0106c50:	c7 45 dc 00 00 00 00 	movl   $0x0,-0x24(%ebp)
c0106c57:	bf 00 00 00 00       	mov    $0x0,%edi
c0106c5c:	c7 45 e4 02 00 00 00 	movl   $0x2,-0x1c(%ebp)
c0106c63:	eb 22                	jmp    c0106c87 <cpu_get_brand+0x68>
c0106c65:	8b 45 dc             	mov    -0x24(%ebp),%eax
c0106c68:	89 04 be             	mov    %eax,(%esi,%edi,4)
c0106c6b:	8b 45 d8             	mov    -0x28(%ebp),%eax
c0106c6e:	89 44 be 04          	mov    %eax,0x4(%esi,%edi,4)
c0106c72:	8b 45 d0             	mov    -0x30(%ebp),%eax
c0106c75:	89 44 be 08          	mov    %eax,0x8(%esi,%edi,4)
c0106c79:	8b 45 d4             	mov    -0x2c(%ebp),%eax
c0106c7c:	89 44 be 0c          	mov    %eax,0xc(%esi,%edi,4)
c0106c80:	83 c7 04             	add    $0x4,%edi
c0106c83:	83 45 e4 01          	addl   $0x1,-0x1c(%ebp)
c0106c87:	83 7d e4 04          	cmpl   $0x4,-0x1c(%ebp)
c0106c8b:	77 63                	ja     c0106cf0 <cpu_get_brand+0xd1>
c0106c8d:	8b 45 e4             	mov    -0x1c(%ebp),%eax
c0106c90:	05 00 00 00 80       	add    $0x80000000,%eax
c0106c95:	89 45 e0             	mov    %eax,-0x20(%ebp)
c0106c98:	89 c2                	mov    %eax,%edx
c0106c9a:	81 e2 00 00 00 80    	and    $0x80000000,%edx
c0106ca0:	9c                   	pushf  
c0106ca1:	9c                   	pushf  
c0106ca2:	58                   	pop    %eax
c0106ca3:	89 c1                	mov    %eax,%ecx
c0106ca5:	35 00 00 20 00       	xor    $0x200000,%eax
c0106caa:	50                   	push   %eax
c0106cab:	9d                   	popf   
c0106cac:	9c                   	pushf  
c0106cad:	58                   	pop    %eax
c0106cae:	9d                   	popf   
c0106caf:	31 c8                	xor    %ecx,%eax
c0106cb1:	25 00 00 20 00       	and    $0x200000,%eax
c0106cb6:	74 0b                	je     c0106cc3 <cpu_get_brand+0xa4>
c0106cb8:	89 d0                	mov    %edx,%eax
c0106cba:	bb 00 00 00 00       	mov    $0x0,%ebx
c0106cbf:	89 d9                	mov    %ebx,%ecx
c0106cc1:	0f a2                	cpuid  
c0106cc3:	85 c0                	test   %eax,%eax
c0106cc5:	0f 94 c2             	sete   %dl
c0106cc8:	8b 5d e0             	mov    -0x20(%ebp),%ebx
c0106ccb:	39 c3                	cmp    %eax,%ebx
c0106ccd:	0f 97 c0             	seta   %al
c0106cd0:	08 c2                	or     %al,%dl
c0106cd2:	75 91                	jne    c0106c65 <cpu_get_brand+0x46>
c0106cd4:	89 d8                	mov    %ebx,%eax
c0106cd6:	bb 00 00 00 00       	mov    $0x0,%ebx
c0106cdb:	89 d9                	mov    %ebx,%ecx
c0106cdd:	0f a2                	cpuid  
c0106cdf:	89 5d d8             	mov    %ebx,-0x28(%ebp)
c0106ce2:	89 4d d0             	mov    %ecx,-0x30(%ebp)
c0106ce5:	89 55 d4             	mov    %edx,-0x2c(%ebp)
c0106ce8:	89 45 dc             	mov    %eax,-0x24(%ebp)
c0106ceb:	e9 75 ff ff ff       	jmp    c0106c65 <cpu_get_brand+0x46>
c0106cf0:	c6 46 30 00          	movb   $0x0,0x30(%esi)
c0106cf4:	83 c4 2c             	add    $0x2c,%esp
c0106cf7:	5b                   	pop    %ebx
c0106cf8:	5e                   	pop    %esi
c0106cf9:	5f                   	pop    %edi
c0106cfa:	5d                   	pop    %ebp
c0106cfb:	c3                   	ret    

c0106cfc <cpu_r_cr0>:
c0106cfc:	0f 20 c0             	mov    %cr0,%eax
c0106cff:	c3                   	ret    

c0106d00 <cpu_r_cr2>:
c0106d00:	0f 20 d0             	mov    %cr2,%eax
c0106d03:	c3                   	ret    

c0106d04 <cpu_r_cr3>:
c0106d04:	0f 20 d8             	mov    %cr3,%eax
c0106d07:	c3                   	ret    

c0106d08 <cpu_w_cr0>:
c0106d08:	55                   	push   %ebp
c0106d09:	89 e5                	mov    %esp,%ebp
c0106d0b:	8b 45 08             	mov    0x8(%ebp),%eax
c0106d0e:	0f 22 c0             	mov    %eax,%cr0
c0106d11:	5d                   	pop    %ebp
c0106d12:	c3                   	ret    

c0106d13 <cpu_w_cr2>:
c0106d13:	55                   	push   %ebp
c0106d14:	89 e5                	mov    %esp,%ebp
c0106d16:	8b 45 08             	mov    0x8(%ebp),%eax
c0106d19:	0f 22 d0             	mov    %eax,%cr2
c0106d1c:	5d                   	pop    %ebp
c0106d1d:	c3                   	ret    

c0106d1e <cpu_w_cr3>:
c0106d1e:	55                   	push   %ebp
c0106d1f:	89 e5                	mov    %esp,%ebp
c0106d21:	8b 45 08             	mov    0x8(%ebp),%eax
c0106d24:	0f 22 d8             	mov    %eax,%cr3
c0106d27:	5d                   	pop    %ebp
c0106d28:	c3                   	ret    

c0106d29 <printf>:
c0106d29:	55                   	push   %ebp
c0106d2a:	89 e5                	mov    %esp,%ebp
c0106d2c:	53                   	push   %ebx
c0106d2d:	81 ec 08 04 00 00    	sub    $0x408,%esp
c0106d33:	8d 45 0c             	lea    0xc(%ebp),%eax
c0106d36:	50                   	push   %eax
c0106d37:	ff 75 08             	push   0x8(%ebp)
c0106d3a:	8d 9d f8 fb ff ff    	lea    -0x408(%ebp),%ebx
c0106d40:	53                   	push   %ebx
c0106d41:	e8 10 00 00 00       	call   c0106d56 <__sprintf_internal>
c0106d46:	89 1c 24             	mov    %ebx,(%esp)
c0106d49:	e8 ca fd ff ff       	call   c0106b18 <tty_put_str>
c0106d4e:	83 c4 10             	add    $0x10,%esp
c0106d51:	8b 5d fc             	mov    -0x4(%ebp),%ebx
c0106d54:	c9                   	leave  
c0106d55:	c3                   	ret    

c0106d56 <__sprintf_internal>:
c0106d56:	55                   	push   %ebp
c0106d57:	89 e5                	mov    %esp,%ebp
c0106d59:	57                   	push   %edi
c0106d5a:	56                   	push   %esi
c0106d5b:	53                   	push   %ebx
c0106d5c:	83 ec 2c             	sub    $0x2c,%esp
c0106d5f:	8b 55 0c             	mov    0xc(%ebp),%edx
c0106d62:	c7 45 e4 00 00 00 00 	movl   $0x0,-0x1c(%ebp)
c0106d69:	bb 00 00 00 00       	mov    $0x0,%ebx
c0106d6e:	eb 53                	jmp    c0106dc3 <__sprintf_internal+0x6d>
c0106d70:	c7 45 e4 00 00 00 00 	movl   $0x0,-0x1c(%ebp)
c0106d77:	8d 7a 01             	lea    0x1(%edx),%edi
c0106d7a:	0f b6 72 01          	movzbl 0x1(%edx),%esi
c0106d7e:	89 f0                	mov    %esi,%eax
c0106d80:	3c 25                	cmp    $0x25,%al
c0106d82:	0f 84 7c 01 00 00    	je     c0106f04 <__sprintf_internal+0x1ae>
c0106d88:	3c 25                	cmp    $0x25,%al
c0106d8a:	7c 31                	jl     c0106dbd <__sprintf_internal+0x67>
c0106d8c:	3c 78                	cmp    $0x78,%al
c0106d8e:	7f 2d                	jg     c0106dbd <__sprintf_internal+0x67>
c0106d90:	3c 58                	cmp    $0x58,%al
c0106d92:	7c 29                	jl     c0106dbd <__sprintf_internal+0x67>
c0106d94:	8d 46 a8             	lea    -0x58(%esi),%eax
c0106d97:	3c 20                	cmp    $0x20,%al
c0106d99:	77 22                	ja     c0106dbd <__sprintf_internal+0x67>
c0106d9b:	0f b6 c0             	movzbl %al,%eax
c0106d9e:	ff 24 85 00 a0 12 c0 	jmp    *-0x3fed6000(,%eax,4)
c0106da5:	8b 45 10             	mov    0x10(%ebp),%eax
c0106da8:	8d 50 04             	lea    0x4(%eax),%edx
c0106dab:	89 55 10             	mov    %edx,0x10(%ebp)
c0106dae:	8b 00                	mov    (%eax),%eax
c0106db0:	8b 4d 08             	mov    0x8(%ebp),%ecx
c0106db3:	88 04 19             	mov    %al,(%ecx,%ebx,1)
c0106db6:	c7 45 e4 01 00 00 00 	movl   $0x1,-0x1c(%ebp)
c0106dbd:	8d 57 01             	lea    0x1(%edi),%edx
c0106dc0:	03 5d e4             	add    -0x1c(%ebp),%ebx
c0106dc3:	0f b6 02             	movzbl (%edx),%eax
c0106dc6:	84 c0                	test   %al,%al
c0106dc8:	0f 84 48 01 00 00    	je     c0106f16 <__sprintf_internal+0x1c0>
c0106dce:	3c 25                	cmp    $0x25,%al
c0106dd0:	74 9e                	je     c0106d70 <__sprintf_internal+0x1a>
c0106dd2:	8b 4d 08             	mov    0x8(%ebp),%ecx
c0106dd5:	88 04 19             	mov    %al,(%ecx,%ebx,1)
c0106dd8:	c7 45 e4 01 00 00 00 	movl   $0x1,-0x1c(%ebp)
c0106ddf:	89 d7                	mov    %edx,%edi
c0106de1:	eb da                	jmp    c0106dbd <__sprintf_internal+0x67>
c0106de3:	8b 45 10             	mov    0x10(%ebp),%eax
c0106de6:	8d 50 04             	lea    0x4(%eax),%edx
c0106de9:	89 55 10             	mov    %edx,0x10(%ebp)
c0106dec:	8b 30                	mov    (%eax),%esi
c0106dee:	83 ec 08             	sub    $0x8,%esp
c0106df1:	56                   	push   %esi
c0106df2:	89 d8                	mov    %ebx,%eax
c0106df4:	03 45 08             	add    0x8(%ebp),%eax
c0106df7:	50                   	push   %eax
c0106df8:	e8 e8 02 00 00       	call   c01070e5 <strcpy>
c0106dfd:	89 34 24             	mov    %esi,(%esp)
c0106e00:	e8 0a 03 00 00       	call   c010710f <strlen>
c0106e05:	89 45 e4             	mov    %eax,-0x1c(%ebp)
c0106e08:	83 c4 10             	add    $0x10,%esp
c0106e0b:	eb b0                	jmp    c0106dbd <__sprintf_internal+0x67>
c0106e0d:	8b 45 10             	mov    0x10(%ebp),%eax
c0106e10:	8d 50 04             	lea    0x4(%eax),%edx
c0106e13:	89 55 10             	mov    %edx,0x10(%ebp)
c0106e16:	8b 00                	mov    (%eax),%eax
c0106e18:	8d 55 e4             	lea    -0x1c(%ebp),%edx
c0106e1b:	52                   	push   %edx
c0106e1c:	6a 0a                	push   $0xa
c0106e1e:	89 da                	mov    %ebx,%edx
c0106e20:	03 55 08             	add    0x8(%ebp),%edx
c0106e23:	52                   	push   %edx
c0106e24:	50                   	push   %eax
c0106e25:	e8 94 01 00 00       	call   c0106fbe <__itoa_internal>
c0106e2a:	83 c4 10             	add    $0x10,%esp
c0106e2d:	eb 8e                	jmp    c0106dbd <__sprintf_internal+0x67>
c0106e2f:	8b 45 10             	mov    0x10(%ebp),%eax
c0106e32:	8d 50 04             	lea    0x4(%eax),%edx
c0106e35:	89 55 10             	mov    %edx,0x10(%ebp)
c0106e38:	8b 00                	mov    (%eax),%eax
c0106e3a:	8d 55 e4             	lea    -0x1c(%ebp),%edx
c0106e3d:	52                   	push   %edx
c0106e3e:	6a 0a                	push   $0xa
c0106e40:	89 da                	mov    %ebx,%edx
c0106e42:	03 55 08             	add    0x8(%ebp),%edx
c0106e45:	52                   	push   %edx
c0106e46:	50                   	push   %eax
c0106e47:	e8 f3 00 00 00       	call   c0106f3f <__uitoa_internal>
c0106e4c:	83 c4 10             	add    $0x10,%esp
c0106e4f:	e9 69 ff ff ff       	jmp    c0106dbd <__sprintf_internal+0x67>
c0106e54:	8b 45 10             	mov    0x10(%ebp),%eax
c0106e57:	8d 50 04             	lea    0x4(%eax),%edx
c0106e5a:	89 55 10             	mov    %edx,0x10(%ebp)
c0106e5d:	8b 00                	mov    (%eax),%eax
c0106e5f:	8d 55 e4             	lea    -0x1c(%ebp),%edx
c0106e62:	52                   	push   %edx
c0106e63:	6a 08                	push   $0x8
c0106e65:	89 da                	mov    %ebx,%edx
c0106e67:	03 55 08             	add    0x8(%ebp),%edx
c0106e6a:	52                   	push   %edx
c0106e6b:	50                   	push   %eax
c0106e6c:	e8 4d 01 00 00       	call   c0106fbe <__itoa_internal>
c0106e71:	83 c4 10             	add    $0x10,%esp
c0106e74:	e9 44 ff ff ff       	jmp    c0106dbd <__sprintf_internal+0x67>
c0106e79:	8b 45 10             	mov    0x10(%ebp),%eax
c0106e7c:	8d 50 04             	lea    0x4(%eax),%edx
c0106e7f:	89 55 10             	mov    %edx,0x10(%ebp)
c0106e82:	8b 00                	mov    (%eax),%eax
c0106e84:	8d 55 e4             	lea    -0x1c(%ebp),%edx
c0106e87:	52                   	push   %edx
c0106e88:	6a 10                	push   $0x10
c0106e8a:	89 da                	mov    %ebx,%edx
c0106e8c:	03 55 08             	add    0x8(%ebp),%edx
c0106e8f:	52                   	push   %edx
c0106e90:	50                   	push   %eax
c0106e91:	e8 28 01 00 00       	call   c0106fbe <__itoa_internal>
c0106e96:	83 c4 10             	add    $0x10,%esp
c0106e99:	89 f0                	mov    %esi,%eax
c0106e9b:	3c 58                	cmp    $0x58,%al
c0106e9d:	0f 85 1a ff ff ff    	jne    c0106dbd <__sprintf_internal+0x67>
c0106ea3:	89 de                	mov    %ebx,%esi
c0106ea5:	89 5d d4             	mov    %ebx,-0x2c(%ebp)
c0106ea8:	8b 5d 08             	mov    0x8(%ebp),%ebx
c0106eab:	eb 11                	jmp    c0106ebe <__sprintf_internal+0x168>
c0106ead:	0f be c2             	movsbl %dl,%eax
c0106eb0:	d1 f8                	sar    %eax
c0106eb2:	83 e0 20             	and    $0x20,%eax
c0106eb5:	f7 d0                	not    %eax
c0106eb7:	21 d0                	and    %edx,%eax
c0106eb9:	88 01                	mov    %al,(%ecx)
c0106ebb:	83 c6 01             	add    $0x1,%esi
c0106ebe:	8d 0c 33             	lea    (%ebx,%esi,1),%ecx
c0106ec1:	0f b6 11             	movzbl (%ecx),%edx
c0106ec4:	84 d2                	test   %dl,%dl
c0106ec6:	75 e5                	jne    c0106ead <__sprintf_internal+0x157>
c0106ec8:	8b 5d d4             	mov    -0x2c(%ebp),%ebx
c0106ecb:	e9 ed fe ff ff       	jmp    c0106dbd <__sprintf_internal+0x67>
c0106ed0:	8b 45 10             	mov    0x10(%ebp),%eax
c0106ed3:	8d 50 04             	lea    0x4(%eax),%edx
c0106ed6:	89 55 10             	mov    %edx,0x10(%ebp)
c0106ed9:	8b 00                	mov    (%eax),%eax
c0106edb:	8b 4d 08             	mov    0x8(%ebp),%ecx
c0106ede:	c6 04 19 30          	movb   $0x30,(%ecx,%ebx,1)
c0106ee2:	c6 44 19 01 78       	movb   $0x78,0x1(%ecx,%ebx,1)
c0106ee7:	8d 55 e4             	lea    -0x1c(%ebp),%edx
c0106eea:	52                   	push   %edx
c0106eeb:	6a 10                	push   $0x10
c0106eed:	8d 54 19 02          	lea    0x2(%ecx,%ebx,1),%edx
c0106ef1:	52                   	push   %edx
c0106ef2:	50                   	push   %eax
c0106ef3:	e8 c6 00 00 00       	call   c0106fbe <__itoa_internal>
c0106ef8:	83 45 e4 02          	addl   $0x2,-0x1c(%ebp)
c0106efc:	83 c4 10             	add    $0x10,%esp
c0106eff:	e9 b9 fe ff ff       	jmp    c0106dbd <__sprintf_internal+0x67>
c0106f04:	8b 4d 08             	mov    0x8(%ebp),%ecx
c0106f07:	88 04 19             	mov    %al,(%ecx,%ebx,1)
c0106f0a:	c7 45 e4 01 00 00 00 	movl   $0x1,-0x1c(%ebp)
c0106f11:	e9 a7 fe ff ff       	jmp    c0106dbd <__sprintf_internal+0x67>
c0106f16:	8b 45 08             	mov    0x8(%ebp),%eax
c0106f19:	c6 04 18 00          	movb   $0x0,(%eax,%ebx,1)
c0106f1d:	8d 65 f4             	lea    -0xc(%ebp),%esp
c0106f20:	5b                   	pop    %ebx
c0106f21:	5e                   	pop    %esi
c0106f22:	5f                   	pop    %edi
c0106f23:	5d                   	pop    %ebp
c0106f24:	c3                   	ret    

c0106f25 <sprintf>:
c0106f25:	55                   	push   %ebp
c0106f26:	89 e5                	mov    %esp,%ebp
c0106f28:	83 ec 0c             	sub    $0xc,%esp
c0106f2b:	8d 45 10             	lea    0x10(%ebp),%eax
c0106f2e:	50                   	push   %eax
c0106f2f:	ff 75 0c             	push   0xc(%ebp)
c0106f32:	ff 75 08             	push   0x8(%ebp)
c0106f35:	e8 1c fe ff ff       	call   c0106d56 <__sprintf_internal>
c0106f3a:	83 c4 10             	add    $0x10,%esp
c0106f3d:	c9                   	leave  
c0106f3e:	c3                   	ret    

c0106f3f <__uitoa_internal>:
c0106f3f:	55                   	push   %ebp
c0106f40:	89 e5                	mov    %esp,%ebp
c0106f42:	57                   	push   %edi
c0106f43:	56                   	push   %esi
c0106f44:	53                   	push   %ebx
c0106f45:	83 ec 04             	sub    $0x4,%esp
c0106f48:	8b 5d 08             	mov    0x8(%ebp),%ebx
c0106f4b:	8b 75 0c             	mov    0xc(%ebp),%esi
c0106f4e:	8b 7d 10             	mov    0x10(%ebp),%edi
c0106f51:	b9 00 00 00 00       	mov    $0x0,%ecx
c0106f56:	89 d8                	mov    %ebx,%eax
c0106f58:	ba 00 00 00 00       	mov    $0x0,%edx
c0106f5d:	f7 f7                	div    %edi
c0106f5f:	0f b6 92 20 90 12 c0 	movzbl -0x3fed6fe0(%edx),%edx
c0106f66:	88 14 0e             	mov    %dl,(%esi,%ecx,1)
c0106f69:	89 da                	mov    %ebx,%edx
c0106f6b:	89 c3                	mov    %eax,%ebx
c0106f6d:	83 c1 01             	add    $0x1,%ecx
c0106f70:	39 d7                	cmp    %edx,%edi
c0106f72:	76 e2                	jbe    c0106f56 <__uitoa_internal+0x17>
c0106f74:	b8 00 00 00 00       	mov    $0x0,%eax
c0106f79:	89 4d f0             	mov    %ecx,-0x10(%ebp)
c0106f7c:	eb 1b                	jmp    c0106f99 <__uitoa_internal+0x5a>
c0106f7e:	8d 1c 06             	lea    (%esi,%eax,1),%ebx
c0106f81:	0f b6 3b             	movzbl (%ebx),%edi
c0106f84:	8b 4d f0             	mov    -0x10(%ebp),%ecx
c0106f87:	29 c1                	sub    %eax,%ecx
c0106f89:	8d 54 0e ff          	lea    -0x1(%esi,%ecx,1),%edx
c0106f8d:	0f b6 0a             	movzbl (%edx),%ecx
c0106f90:	88 0b                	mov    %cl,(%ebx)
c0106f92:	89 f9                	mov    %edi,%ecx
c0106f94:	88 0a                	mov    %cl,(%edx)
c0106f96:	83 c0 01             	add    $0x1,%eax
c0106f99:	8b 4d f0             	mov    -0x10(%ebp),%ecx
c0106f9c:	d1 e9                	shr    %ecx
c0106f9e:	39 c1                	cmp    %eax,%ecx
c0106fa0:	77 dc                	ja     c0106f7e <__uitoa_internal+0x3f>
c0106fa2:	8b 4d f0             	mov    -0x10(%ebp),%ecx
c0106fa5:	c6 04 0e 00          	movb   $0x0,(%esi,%ecx,1)
c0106fa9:	83 7d 14 00          	cmpl   $0x0,0x14(%ebp)
c0106fad:	74 05                	je     c0106fb4 <__uitoa_internal+0x75>
c0106faf:	8b 45 14             	mov    0x14(%ebp),%eax
c0106fb2:	89 08                	mov    %ecx,(%eax)
c0106fb4:	89 f0                	mov    %esi,%eax
c0106fb6:	83 c4 04             	add    $0x4,%esp
c0106fb9:	5b                   	pop    %ebx
c0106fba:	5e                   	pop    %esi
c0106fbb:	5f                   	pop    %edi
c0106fbc:	5d                   	pop    %ebp
c0106fbd:	c3                   	ret    

c0106fbe <__itoa_internal>:
c0106fbe:	55                   	push   %ebp
c0106fbf:	89 e5                	mov    %esp,%ebp
c0106fc1:	57                   	push   %edi
c0106fc2:	56                   	push   %esi
c0106fc3:	53                   	push   %ebx
c0106fc4:	8b 5d 0c             	mov    0xc(%ebp),%ebx
c0106fc7:	8b 55 10             	mov    0x10(%ebp),%edx
c0106fca:	8b 75 14             	mov    0x14(%ebp),%esi
c0106fcd:	8b 45 08             	mov    0x8(%ebp),%eax
c0106fd0:	c1 e8 1f             	shr    $0x1f,%eax
c0106fd3:	89 c1                	mov    %eax,%ecx
c0106fd5:	83 fa 0a             	cmp    $0xa,%edx
c0106fd8:	0f 94 c0             	sete   %al
c0106fdb:	84 c8                	test   %cl,%al
c0106fdd:	74 21                	je     c0107000 <__itoa_internal+0x42>
c0106fdf:	c6 03 2d             	movb   $0x2d,(%ebx)
c0106fe2:	8b 45 08             	mov    0x8(%ebp),%eax
c0106fe5:	f7 d8                	neg    %eax
c0106fe7:	56                   	push   %esi
c0106fe8:	52                   	push   %edx
c0106fe9:	8d 53 01             	lea    0x1(%ebx),%edx
c0106fec:	52                   	push   %edx
c0106fed:	50                   	push   %eax
c0106fee:	e8 4c ff ff ff       	call   c0106f3f <__uitoa_internal>
c0106ff3:	83 c4 10             	add    $0x10,%esp
c0106ff6:	89 d8                	mov    %ebx,%eax
c0106ff8:	8d 65 f4             	lea    -0xc(%ebp),%esp
c0106ffb:	5b                   	pop    %ebx
c0106ffc:	5e                   	pop    %esi
c0106ffd:	5f                   	pop    %edi
c0106ffe:	5d                   	pop    %ebp
c0106fff:	c3                   	ret    
c0107000:	56                   	push   %esi
c0107001:	52                   	push   %edx
c0107002:	53                   	push   %ebx
c0107003:	ff 75 08             	push   0x8(%ebp)
c0107006:	e8 34 ff ff ff       	call   c0106f3f <__uitoa_internal>
c010700b:	83 c4 10             	add    $0x10,%esp
c010700e:	eb e6                	jmp    c0106ff6 <__itoa_internal+0x38>

c0107010 <itoa>:
c0107010:	55                   	push   %ebp
c0107011:	89 e5                	mov    %esp,%ebp
c0107013:	6a 00                	push   $0x0
c0107015:	ff 75 10             	push   0x10(%ebp)
c0107018:	ff 75 0c             	push   0xc(%ebp)
c010701b:	ff 75 08             	push   0x8(%ebp)
c010701e:	e8 9b ff ff ff       	call   c0106fbe <__itoa_internal>
c0107023:	c9                   	leave  
c0107024:	c3                   	ret    

c0107025 <memcpy>:
c0107025:	55                   	push   %ebp
c0107026:	89 e5                	mov    %esp,%ebp
c0107028:	56                   	push   %esi
c0107029:	53                   	push   %ebx
c010702a:	8b 4d 08             	mov    0x8(%ebp),%ecx
c010702d:	8b 75 0c             	mov    0xc(%ebp),%esi
c0107030:	8b 5d 10             	mov    0x10(%ebp),%ebx
c0107033:	b8 00 00 00 00       	mov    $0x0,%eax
c0107038:	eb 0a                	jmp    c0107044 <memcpy+0x1f>
c010703a:	0f b6 14 06          	movzbl (%esi,%eax,1),%edx
c010703e:	88 14 01             	mov    %dl,(%ecx,%eax,1)
c0107041:	83 c0 01             	add    $0x1,%eax
c0107044:	39 d8                	cmp    %ebx,%eax
c0107046:	72 f2                	jb     c010703a <memcpy+0x15>
c0107048:	89 c8                	mov    %ecx,%eax
c010704a:	5b                   	pop    %ebx
c010704b:	5e                   	pop    %esi
c010704c:	5d                   	pop    %ebp
c010704d:	c3                   	ret    

c010704e <memmove>:
c010704e:	55                   	push   %ebp
c010704f:	89 e5                	mov    %esp,%ebp
c0107051:	56                   	push   %esi
c0107052:	53                   	push   %ebx
c0107053:	8b 4d 08             	mov    0x8(%ebp),%ecx
c0107056:	8b 5d 0c             	mov    0xc(%ebp),%ebx
c0107059:	8b 75 10             	mov    0x10(%ebp),%esi
c010705c:	39 d9                	cmp    %ebx,%ecx
c010705e:	73 25                	jae    c0107085 <memmove+0x37>
c0107060:	ba 00 00 00 00       	mov    $0x0,%edx
c0107065:	eb 0a                	jmp    c0107071 <memmove+0x23>
c0107067:	0f b6 04 13          	movzbl (%ebx,%edx,1),%eax
c010706b:	88 04 11             	mov    %al,(%ecx,%edx,1)
c010706e:	83 c2 01             	add    $0x1,%edx
c0107071:	39 f2                	cmp    %esi,%edx
c0107073:	72 f2                	jb     c0107067 <memmove+0x19>
c0107075:	89 c8                	mov    %ecx,%eax
c0107077:	5b                   	pop    %ebx
c0107078:	5e                   	pop    %esi
c0107079:	5d                   	pop    %ebp
c010707a:	c3                   	ret    
c010707b:	83 ee 01             	sub    $0x1,%esi
c010707e:	0f b6 14 33          	movzbl (%ebx,%esi,1),%edx
c0107082:	88 14 31             	mov    %dl,(%ecx,%esi,1)
c0107085:	85 f6                	test   %esi,%esi
c0107087:	75 f2                	jne    c010707b <memmove+0x2d>
c0107089:	eb ea                	jmp    c0107075 <memmove+0x27>

c010708b <memset>:
c010708b:	55                   	push   %ebp
c010708c:	89 e5                	mov    %esp,%ebp
c010708e:	53                   	push   %ebx
c010708f:	8b 55 08             	mov    0x8(%ebp),%edx
c0107092:	8b 5d 0c             	mov    0xc(%ebp),%ebx
c0107095:	8b 4d 10             	mov    0x10(%ebp),%ecx
c0107098:	b8 00 00 00 00       	mov    $0x0,%eax
c010709d:	eb 06                	jmp    c01070a5 <memset+0x1a>
c010709f:	88 1c 02             	mov    %bl,(%edx,%eax,1)
c01070a2:	83 c0 01             	add    $0x1,%eax
c01070a5:	39 c8                	cmp    %ecx,%eax
c01070a7:	72 f6                	jb     c010709f <memset+0x14>
c01070a9:	89 d0                	mov    %edx,%eax
c01070ab:	8b 5d fc             	mov    -0x4(%ebp),%ebx
c01070ae:	c9                   	leave  
c01070af:	c3                   	ret    

c01070b0 <memcmp>:
c01070b0:	55                   	push   %ebp
c01070b1:	89 e5                	mov    %esp,%ebp
c01070b3:	57                   	push   %edi
c01070b4:	56                   	push   %esi
c01070b5:	53                   	push   %ebx
c01070b6:	8b 7d 08             	mov    0x8(%ebp),%edi
c01070b9:	8b 75 0c             	mov    0xc(%ebp),%esi
c01070bc:	8b 5d 10             	mov    0x10(%ebp),%ebx
c01070bf:	ba 00 00 00 00       	mov    $0x0,%edx
c01070c4:	eb 03                	jmp    c01070c9 <memcmp+0x19>
c01070c6:	83 c2 01             	add    $0x1,%edx
c01070c9:	39 da                	cmp    %ebx,%edx
c01070cb:	73 0e                	jae    c01070db <memcmp+0x2b>
c01070cd:	0f b6 04 17          	movzbl (%edi,%edx,1),%eax
c01070d1:	0f b6 0c 16          	movzbl (%esi,%edx,1),%ecx
c01070d5:	29 c8                	sub    %ecx,%eax
c01070d7:	74 ed                	je     c01070c6 <memcmp+0x16>
c01070d9:	eb 05                	jmp    c01070e0 <memcmp+0x30>
c01070db:	b8 00 00 00 00       	mov    $0x0,%eax
c01070e0:	5b                   	pop    %ebx
c01070e1:	5e                   	pop    %esi
c01070e2:	5f                   	pop    %edi
c01070e3:	5d                   	pop    %ebp
c01070e4:	c3                   	ret    

c01070e5 <strcpy>:
c01070e5:	55                   	push   %ebp
c01070e6:	89 e5                	mov    %esp,%ebp
c01070e8:	53                   	push   %ebx
c01070e9:	8b 4d 08             	mov    0x8(%ebp),%ecx
c01070ec:	8b 5d 0c             	mov    0xc(%ebp),%ebx
c01070ef:	b8 00 00 00 00       	mov    $0x0,%eax
c01070f4:	eb 06                	jmp    c01070fc <strcpy+0x17>
c01070f6:	88 14 01             	mov    %dl,(%ecx,%eax,1)
c01070f9:	83 c0 01             	add    $0x1,%eax
c01070fc:	0f b6 14 03          	movzbl (%ebx,%eax,1),%edx
c0107100:	84 d2                	test   %dl,%dl
c0107102:	75 f2                	jne    c01070f6 <strcpy+0x11>
c0107104:	c6 04 01 00          	movb   $0x0,(%ecx,%eax,1)
c0107108:	89 c8                	mov    %ecx,%eax
c010710a:	8b 5d fc             	mov    -0x4(%ebp),%ebx
c010710d:	c9                   	leave  
c010710e:	c3                   	ret    

c010710f <strlen>:
c010710f:	55                   	push   %ebp
c0107110:	89 e5                	mov    %esp,%ebp
c0107112:	8b 55 08             	mov    0x8(%ebp),%edx
c0107115:	b8 00 00 00 00       	mov    $0x0,%eax
c010711a:	eb 03                	jmp    c010711f <strlen+0x10>
c010711c:	83 c0 01             	add    $0x1,%eax
c010711f:	80 3c 02 00          	cmpb   $0x0,(%edx,%eax,1)
c0107123:	75 f7                	jne    c010711c <strlen+0xd>
c0107125:	5d                   	pop    %ebp
c0107126:	c3                   	ret    

Disassembly of section .bss:

c0108000 <_gdt>:
	...

c0108040 <_idt>:
	...

c0108140 <pg_lookup_ptr>:
c0108140:	00 00                	add    %al,(%eax)
	...

c0108144 <max_pg>:
	...

c0108160 <pm_bitmap>:
	...

c0128160 <tty_y>:
c0128160:	00 00                	add    %al,(%eax)
	...

c0128164 <tty_x>:
c0128164:	00 00                	add    %al,(%eax)
	...

c0128168 <tty_theme_color>:
	...

Disassembly of section .data:

c0129000 <_gdt_limit>:
c0129000:	27                   	daa    
	...

c0129002 <_idt_limit>:
c0129002:	ff 00                	incl   (%eax)

c0129004 <tty_vga_buffer>:
c0129004:	00 80 0b 00 00 00    	add    %al,0xb(%eax)
	...

c0129020 <base_char>:
c0129020:	30 31                	xor    %dh,(%ecx)
c0129022:	32 33                	xor    (%ebx),%dh
c0129024:	34 35                	xor    $0x35,%al
c0129026:	36 37                	ss aaa 
c0129028:	38 39                	cmp    %bh,(%ecx)
c012902a:	61                   	popa   
c012902b:	62 63 64             	bound  %esp,0x64(%ebx)
c012902e:	65 66 67 68 69 6a    	gs addr16 pushw $0x6a69
c0129034:	6b 6c 6d 6e 6f       	imul   $0x6f,0x6e(%ebp,%ebp,2),%ebp
c0129039:	70 71                	jo     c01290ac <base_char+0x8c>
c012903b:	72 73                	jb     c01290b0 <base_char+0x90>
c012903d:	74 75                	je     c01290b4 <base_char+0x94>
c012903f:	76 77                	jbe    c01290b8 <base_char+0x98>
c0129041:	78 79                	js     c01290bc <base_char+0x9c>
c0129043:	7a 00                	jp     c0129045 <base_char+0x25>

Disassembly of section .rodata.str1.4:

c012a084 <.rodata.str1.4>:
c012a084:	5b                   	pop    %ebx
c012a085:	50                   	push   %eax
c012a086:	41                   	inc    %ecx
c012a087:	4e                   	dec    %esi
c012a088:	49                   	dec    %ecx
c012a089:	43                   	inc    %ebx
c012a08a:	5d                   	pop    %ebp
c012a08b:	20 45 78             	and    %al,0x78(%ebp)
c012a08e:	63 65 70             	arpl   %sp,0x70(%ebp)
c012a091:	74 69                	je     c012a0fc <base_char+0x10dc>
c012a093:	6f                   	outsl  %ds:(%esi),(%dx)
c012a094:	6e                   	outsb  %ds:(%esi),(%dx)
c012a095:	20 28                	and    %ch,(%eax)
c012a097:	25 64 29 20 43       	and    $0x43202964,%eax
c012a09c:	53                   	push   %ebx
c012a09d:	3d 30 78 25 58       	cmp    $0x58257830,%eax
c012a0a2:	2c 20                	sub    $0x20,%al
c012a0a4:	45                   	inc    %ebp
c012a0a5:	49                   	dec    %ecx
c012a0a6:	50                   	push   %eax
c012a0a7:	3d 30 78 25 58       	cmp    $0x58257830,%eax
c012a0ac:	00 00                	add    %al,(%eax)
c012a0ae:	00 00                	add    %al,(%eax)
c012a0b0:	5b                   	pop    %ebx
c012a0b1:	4b                   	dec    %ebx
c012a0b2:	45                   	inc    %ebp
c012a0b3:	52                   	push   %edx
c012a0b4:	4e                   	dec    %esi
c012a0b5:	45                   	inc    %ebp
c012a0b6:	4c                   	dec    %esp
c012a0b7:	5d                   	pop    %ebp
c012a0b8:	20 3d 3d 3d 20 49    	and    %bh,0x49203d3d
c012a0be:	6e                   	outsb  %ds:(%esi),(%dx)
c012a0bf:	69 74 69 61 6c 69 7a 	imul   $0x617a696c,0x61(%ecx,%ebp,2),%esi
c012a0c6:	61 
c012a0c7:	74 69                	je     c012a132 <base_char+0x1112>
c012a0c9:	6f                   	outsl  %ds:(%esi),(%dx)
c012a0ca:	6e                   	outsb  %ds:(%esi),(%dx)
c012a0cb:	20 3d 3d 3d 20 0a    	and    %bh,0xa203d3d
c012a0d1:	00 00                	add    %al,(%eax)
c012a0d3:	00 5b 4d             	add    %bl,0x4d(%ebx)
c012a0d6:	4d                   	dec    %ebp
c012a0d7:	5d                   	pop    %ebp
c012a0d8:	20 4d 65             	and    %cl,0x65(%ebp)
c012a0db:	6d                   	insl   (%dx),%es:(%edi)
c012a0dc:	3a 20                	cmp    (%eax),%ah
c012a0de:	25 64 20 4b 69       	and    $0x694b2064,%eax
c012a0e3:	42                   	inc    %edx
c012a0e4:	2c 20                	sub    $0x20,%al
c012a0e6:	45                   	inc    %ebp
c012a0e7:	78 74                	js     c012a15d <base_char+0x113d>
c012a0e9:	65 6e                	outsb  %gs:(%esi),(%dx)
c012a0eb:	64 65 64 20 4d 65    	fs gs and %cl,%fs:0x65(%ebp)
c012a0f1:	6d                   	insl   (%dx),%es:(%edi)
c012a0f2:	3a 20                	cmp    (%eax),%ah
c012a0f4:	25 64 20 4b 69       	and    $0x694b2064,%eax
c012a0f9:	42                   	inc    %edx
c012a0fa:	0a 00                	or     (%eax),%al
c012a0fc:	5b                   	pop    %ebx
c012a0fd:	4d                   	dec    %ebp
c012a0fe:	4d                   	dec    %ebp
c012a0ff:	5d                   	pop    %ebp
c012a100:	20 42 61             	and    %al,0x61(%edx)
c012a103:	73 65                	jae    c012a16a <base_char+0x114a>
c012a105:	3a 20                	cmp    (%eax),%ah
c012a107:	30 78 25             	xor    %bh,0x25(%eax)
c012a10a:	78 2c                	js     c012a138 <base_char+0x1118>
c012a10c:	20 6c 65 6e          	and    %ch,0x6e(%ebp,%eiz,2)
c012a110:	3a 20                	cmp    (%eax),%ah
c012a112:	25 75 20 4b 69       	and    $0x694b2075,%eax
c012a117:	42                   	inc    %edx
c012a118:	2c 20                	sub    $0x20,%al
c012a11a:	74 79                	je     c012a195 <base_char+0x1175>
c012a11c:	70 65                	jo     c012a183 <base_char+0x1163>
c012a11e:	3a 20                	cmp    (%eax),%ah
c012a120:	25 75 0a 00 5b       	and    $0x5b000a75,%eax
c012a125:	4d                   	dec    %ebp
c012a126:	4d                   	dec    %ebp
c012a127:	5d                   	pop    %ebp
c012a128:	20 46 72             	and    %al,0x72(%esi)
c012a12b:	65 65 64 20 25 75 20 	gs gs and %ah,%fs:0x61702075
c012a132:	70 61 
c012a134:	67 65 73 20          	addr16 gs jae c012a158 <base_char+0x1138>
c012a138:	73 74                	jae    c012a1ae <base_char+0x118e>
c012a13a:	61                   	popa   
c012a13b:	72 74                	jb     c012a1b1 <base_char+0x1191>
c012a13d:	20 66 72             	and    %ah,0x72(%esi)
c012a140:	6f                   	outsl  %ds:(%esi),(%dx)
c012a141:	6d                   	insl   (%dx),%es:(%edi)
c012a142:	20 30                	and    %dh,(%eax)
c012a144:	78 25                	js     c012a16b <base_char+0x114b>
c012a146:	78 0a                	js     c012a152 <base_char+0x1132>
c012a148:	00 00                	add    %al,(%eax)
c012a14a:	00 00                	add    %al,(%eax)
c012a14c:	5b                   	pop    %ebx
c012a14d:	4d                   	dec    %ebp
c012a14e:	4d                   	dec    %ebp
c012a14f:	5d                   	pop    %ebp
c012a150:	20 41 6c             	and    %al,0x6c(%ecx)
c012a153:	6c                   	insb   (%dx),%es:(%edi)
c012a154:	6f                   	outsl  %ds:(%esi),(%dx)
c012a155:	63 61 74             	arpl   %sp,0x74(%ecx)
c012a158:	65 64 20 25 64 20 70 	gs and %ah,%fs:0x61702064
c012a15f:	61 
c012a160:	67 65 73 20          	addr16 gs jae c012a184 <base_char+0x1164>
c012a164:	66 6f                	outsw  %ds:(%esi),(%dx)
c012a166:	72 20                	jb     c012a188 <base_char+0x1168>
c012a168:	6b 65 72 6e          	imul   $0x6e,0x72(%ebp),%esp
c012a16c:	65 6c                	gs insb (%dx),%es:(%edi)
c012a16e:	2e 0a 00             	or     %cs:(%eax),%al
c012a171:	00 00                	add    %al,(%eax)
c012a173:	00 5b 4d             	add    %bl,0x4d(%ebx)
c012a176:	4d                   	dec    %ebp
c012a177:	5d                   	pop    %ebp
c012a178:	20 41 6c             	and    %al,0x6c(%ecx)
c012a17b:	6c                   	insb   (%dx),%es:(%edi)
c012a17c:	6f                   	outsl  %ds:(%esi),(%dx)
c012a17d:	63 61 74             	arpl   %sp,0x74(%ecx)
c012a180:	65 64 20 25 64 20 70 	gs and %ah,%fs:0x61702064
c012a187:	61 
c012a188:	67 65 73 20          	addr16 gs jae c012a1ac <base_char+0x118c>
c012a18c:	66 6f                	outsw  %ds:(%esi),(%dx)
c012a18e:	72 20                	jb     c012a1b0 <base_char+0x1190>
c012a190:	73 74                	jae    c012a206 <base_char+0x11e6>
c012a192:	61                   	popa   
c012a193:	63 6b 20             	arpl   %bp,0x20(%ebx)
c012a196:	73 74                	jae    c012a20c <base_char+0x11ec>
c012a198:	61                   	popa   
c012a199:	72 74                	jb     c012a20f <base_char+0x11ef>
c012a19b:	20 61 74             	and    %ah,0x74(%ecx)
c012a19e:	20 25 70 0a 00 00    	and    %ah,0xa70
c012a1a4:	5b                   	pop    %ebx
c012a1a5:	4b                   	dec    %ebx
c012a1a6:	45                   	inc    %ebp
c012a1a7:	52                   	push   %edx
c012a1a8:	4e                   	dec    %esi
c012a1a9:	45                   	inc    %ebp
c012a1aa:	4c                   	dec    %esp
c012a1ab:	5d                   	pop    %ebp
c012a1ac:	20 3d 3d 3d 20 49    	and    %bh,0x49203d3d
c012a1b2:	6e                   	outsb  %ds:(%esi),(%dx)
c012a1b3:	69 74 69 61 6c 69 7a 	imul   $0x617a696c,0x61(%ecx,%ebp,2),%esi
c012a1ba:	61 
c012a1bb:	74 69                	je     c012a226 <base_char+0x1206>
c012a1bd:	6f                   	outsl  %ds:(%esi),(%dx)
c012a1be:	6e                   	outsb  %ds:(%esi),(%dx)
c012a1bf:	20 44 6f 6e          	and    %al,0x6e(%edi,%ebp,2)
c012a1c3:	65 20 3d 3d 3d 20 0a 	and    %bh,%gs:0xa203d3d
c012a1ca:	0a 00                	or     (%eax),%al
c012a1cc:	5b                   	pop    %ebx
c012a1cd:	4b                   	dec    %ebx
c012a1ce:	45                   	inc    %ebp
c012a1cf:	52                   	push   %edx
c012a1d0:	4e                   	dec    %esi
c012a1d1:	45                   	inc    %ebp
c012a1d2:	4c                   	dec    %esp
c012a1d3:	5d                   	pop    %ebp
c012a1d4:	20 3d 3d 3d 20 50    	and    %bh,0x50203d3d
c012a1da:	6f                   	outsl  %ds:(%esi),(%dx)
c012a1db:	73 74                	jae    c012a251 <base_char+0x1231>
c012a1dd:	20 49 6e             	and    %cl,0x6e(%ecx)
c012a1e0:	69 74 69 61 6c 69 7a 	imul   $0x617a696c,0x61(%ecx,%ebp,2),%esi
c012a1e7:	61 
c012a1e8:	74 69                	je     c012a253 <base_char+0x1233>
c012a1ea:	6f                   	outsl  %ds:(%esi),(%dx)
c012a1eb:	6e                   	outsb  %ds:(%esi),(%dx)
c012a1ec:	20 3d 3d 3d 20 0a    	and    %bh,0xa203d3d
c012a1f2:	00 00                	add    %al,(%eax)
c012a1f4:	5b                   	pop    %ebx
c012a1f5:	4d                   	dec    %ebp
c012a1f6:	4d                   	dec    %ebp
c012a1f7:	5d                   	pop    %ebp
c012a1f8:	20 52 65             	and    %dl,0x65(%edx)
c012a1fb:	6c                   	insb   (%dx),%es:(%edi)
c012a1fc:	65 61                	gs popa 
c012a1fe:	73 65                	jae    c012a265 <base_char+0x1245>
c012a200:	69 6e 67 20 25 64 20 	imul   $0x20642520,0x67(%esi),%ebp
c012a207:	70 61                	jo     c012a26a <base_char+0x124a>
c012a209:	67 65 73 20          	addr16 gs jae c012a22d <base_char+0x120d>
c012a20d:	66 72 6f             	data16 jb c012a27f <base_char+0x125f>
c012a210:	6d                   	insl   (%dx),%es:(%edi)
c012a211:	20 30                	and    %dh,(%eax)
c012a213:	78 30                	js     c012a245 <base_char+0x1225>
c012a215:	2e 0a 00             	or     %cs:(%eax),%al
c012a218:	5b                   	pop    %ebx
c012a219:	4b                   	dec    %ebx
c012a21a:	45                   	inc    %ebp
c012a21b:	52                   	push   %edx
c012a21c:	4e                   	dec    %esi
c012a21d:	45                   	inc    %ebp
c012a21e:	4c                   	dec    %esp
c012a21f:	5d                   	pop    %ebp
c012a220:	20 3d 3d 3d 20 50    	and    %bh,0x50203d3d
c012a226:	6f                   	outsl  %ds:(%esi),(%dx)
c012a227:	73 74                	jae    c012a29d <base_char+0x127d>
c012a229:	20 49 6e             	and    %cl,0x6e(%ecx)
c012a22c:	69 74 69 61 6c 69 7a 	imul   $0x617a696c,0x61(%ecx,%ebp,2),%esi
c012a233:	61 
c012a234:	74 69                	je     c012a29f <base_char+0x127f>
c012a236:	6f                   	outsl  %ds:(%esi),(%dx)
c012a237:	6e                   	outsb  %ds:(%esi),(%dx)
c012a238:	20 44 6f 6e          	and    %al,0x6e(%edi,%ebp,2)
c012a23c:	65 20 3d 3d 3d 20 0a 	and    %bh,%gs:0xa203d3d
c012a243:	0a 00                	or     (%eax),%al
c012a245:	00 00                	add    %al,(%eax)
c012a247:	00 48 65             	add    %cl,0x65(%eax)
c012a24a:	6c                   	insb   (%dx),%es:(%edi)
c012a24b:	6c                   	insb   (%dx),%es:(%edi)
c012a24c:	6f                   	outsl  %ds:(%esi),(%dx)
c012a24d:	20 68 69             	and    %ch,0x69(%eax)
c012a250:	67 68 65 72 20 68    	addr16 push $0x68207265
c012a256:	61                   	popa   
c012a257:	6c                   	insb   (%dx),%es:(%edi)
c012a258:	66 20 6b 65          	data16 and %ch,0x65(%ebx)
c012a25c:	72 6e                	jb     c012a2cc <base_char+0x12ac>
c012a25e:	65 6c                	gs insb (%dx),%es:(%edi)
c012a260:	20 77 6f             	and    %dh,0x6f(%edi)
c012a263:	72 6c                	jb     c012a2d1 <base_char+0x12b1>
c012a265:	64 21 0a             	and    %ecx,%fs:(%edx)
c012a268:	57                   	push   %edi
c012a269:	65 20 61 72          	and    %ah,%gs:0x72(%ecx)
c012a26d:	65 20 6e 6f          	and    %ch,%gs:0x6f(%esi)
c012a271:	77 20                	ja     c012a293 <base_char+0x1273>
c012a273:	72 75                	jb     c012a2ea <base_char+0x12ca>
c012a275:	6e                   	outsb  %ds:(%esi),(%dx)
c012a276:	6e                   	outsb  %ds:(%esi),(%dx)
c012a277:	69 6e 67 20 69 6e 20 	imul   $0x206e6920,0x67(%esi),%ebp
c012a27e:	76 69                	jbe    c012a2e9 <base_char+0x12c9>
c012a280:	72 74                	jb     c012a2f6 <base_char+0x12d6>
c012a282:	75 61                	jne    c012a2e5 <base_char+0x12c5>
c012a284:	6c                   	insb   (%dx),%es:(%edi)
c012a285:	20 61 64             	and    %ah,0x64(%ecx)
c012a288:	64 72 65             	fs jb  c012a2f0 <base_char+0x12d0>
c012a28b:	73 73                	jae    c012a300 <base_char+0x12e0>
c012a28d:	20 73 70             	and    %dh,0x70(%ebx)
c012a290:	61                   	popa   
c012a291:	63 65 21             	arpl   %sp,0x21(%ebp)
c012a294:	0a 0a                	or     (%edx),%cl
c012a296:	00 00                	add    %al,(%eax)
c012a298:	54                   	push   %esp
c012a299:	68 65 20 6b 65       	push   $0x656b2065
c012a29e:	72 6e                	jb     c012a30e <base_char+0x12ee>
c012a2a0:	65 6c                	gs insb (%dx),%es:(%edi)
c012a2a2:	27                   	daa    
c012a2a3:	73 20                	jae    c012a2c5 <base_char+0x12a5>
c012a2a5:	62 61 73             	bound  %esp,0x73(%ecx)
c012a2a8:	65 20 61 64          	and    %ah,%gs:0x64(%ecx)
c012a2ac:	64 72 65             	fs jb  c012a314 <base_char+0x12f4>
c012a2af:	73 73                	jae    c012a324 <base_char+0x1304>
c012a2b1:	20 6d 61             	and    %ch,0x61(%ebp)
c012a2b4:	70 70                	jo     c012a326 <base_char+0x1306>
c012a2b6:	69 6e 67 3a 20 25 70 	imul   $0x7025203a,0x67(%esi),%ebp
c012a2bd:	2d 3e 25 70 0a       	sub    $0xa70253e,%eax
	...

Disassembly of section .rodata.str1.1:

c012a2c3 <__heap_start-0x6d3d>:
c012a2c3:	5b                   	pop    %ebx
c012a2c4:	4d                   	dec    %ebp
c012a2c5:	4d                   	dec    %ebp
c012a2c6:	5d                   	pop    %ebp
c012a2c7:	20 4d 61             	and    %cl,0x61(%ebp)
c012a2ca:	70 70                	jo     c012a33c <base_char+0x131c>
c012a2cc:	65 64 20 56 47       	gs and %dl,%fs:0x47(%esi)
c012a2d1:	41                   	inc    %ecx
c012a2d2:	20 74 6f 20          	and    %dh,0x20(%edi,%ebp,2)
c012a2d6:	25 70 2e 0a 00       	and    $0xa2e70,%eax
c012a2db:	43                   	inc    %ebx
c012a2dc:	50                   	push   %eax
c012a2dd:	55                   	push   %ebp
c012a2de:	3a 20                	cmp    (%eax),%ah
c012a2e0:	25 73 0a 0a 00       	and    $0xa0a73,%eax

Disassembly of section .kpg:

c012b000 <_k_ptd>:
	...

Disassembly of section .debug_info:

00000000 <.debug_info>:
       0:	ab                   	stos   %eax,%es:(%edi)
       1:	05 00 00 05 00       	add    $0x50000,%eax
       6:	01 04 00             	add    %eax,(%eax,%eax,1)
       9:	00 00                	add    %al,(%eax)
       b:	00 12                	add    %dl,(%edx)
       d:	5a                   	pop    %edx
       e:	02 00                	add    (%eax),%al
      10:	00 0c 43             	add    %cl,(%ebx,%eax,2)
      13:	00 00                	add    %al,(%eax)
      15:	00 00                	add    %al,(%eax)
      17:	00 00                	add    %al,(%eax)
      19:	00 57 00             	add    %dl,0x0(%edi)
      1c:	10 00                	adc    %al,(%eax)
      1e:	b7 01                	mov    $0x1,%bh
      20:	00 00                	add    %al,(%eax)
      22:	00 00                	add    %al,(%eax)
      24:	00 00                	add    %al,(%eax)
      26:	02 5f 04             	add    0x4(%edi),%bl
      29:	00 00                	add    %al,(%eax)
      2b:	02 49 17             	add    0x17(%ecx),%cl
      2e:	32 00                	xor    (%eax),%al
      30:	00 00                	add    %al,(%eax)
      32:	03 01                	add    (%ecx),%eax
      34:	08 d6                	or     %dl,%dh
      36:	01 00                	add    %eax,(%eax)
      38:	00 02                	add    %al,(%edx)
      3a:	81 00 00 00 02 4a    	addl   $0x4a020000,(%eax)
      40:	18 45 00             	sbb    %al,0x0(%ebp)
      43:	00 00                	add    %al,(%eax)
      45:	03 02                	add    (%edx),%eax
      47:	07                   	pop    %es
      48:	d4 02                	aam    $0x2
      4a:	00 00                	add    %al,(%eax)
      4c:	02 64 00 00          	add    0x0(%eax,%eax,1),%ah
      50:	00 02                	add    %al,(%edx)
      52:	4b                   	dec    %ebx
      53:	16                   	push   %ss
      54:	58                   	pop    %eax
      55:	00 00                	add    %al,(%eax)
      57:	00 03                	add    %al,(%ebx)
      59:	04 07                	add    $0x7,%al
      5b:	3b 02                	cmp    (%edx),%eax
      5d:	00 00                	add    %al,(%eax)
      5f:	02 e7                	add    %bh,%ah
      61:	02 00                	add    (%eax),%al
      63:	00 02                	add    %al,(%edx)
      65:	4c                   	dec    %esp
      66:	1c 6b                	sbb    $0x6b,%al
      68:	00 00                	add    %al,(%eax)
      6a:	00 03                	add    %al,(%ebx)
      6c:	08 07                	or     %al,(%edi)
      6e:	31 02                	xor    %eax,(%edx)
      70:	00 00                	add    %al,(%eax)
      72:	08 2c 00             	or     %ch,(%eax,%eax,1)
      75:	00 00                	add    %al,(%eax)
      77:	10 4e ae             	adc    %cl,-0x52(%esi)
      7a:	00 00                	add    %al,(%eax)
      7c:	00 01                	add    %al,(%ecx)
      7e:	a6                   	cmpsb  %es:(%edi),%ds:(%esi)
      7f:	03 00                	add    (%eax),%eax
      81:	00 50 18             	add    %dl,0x18(%eax)
      84:	4c                   	dec    %esp
      85:	00 00                	add    %al,(%eax)
      87:	00 00                	add    %al,(%eax)
      89:	01 f8                	add    %edi,%eax
      8b:	00 00                	add    %al,(%eax)
      8d:	00 51 18             	add    %dl,0x18(%ecx)
      90:	4c                   	dec    %esp
      91:	00 00                	add    %al,(%eax)
      93:	00 04 01             	add    %al,(%ecx,%eax,1)
      96:	be 04 00 00 52       	mov    $0x52000004,%esi
      9b:	18 4c 00 00          	sbb    %cl,0x0(%eax,%eax,1)
      9f:	00 08                	add    %cl,(%eax)
      a1:	01 a1 04 00 00 53    	add    %esp,0x53000004(%ecx)
      a7:	18 4c 00 00          	sbb    %cl,0x0(%eax,%eax,1)
      ab:	00 0c 00             	add    %cl,(%eax,%eax,1)
      ae:	02 71 04             	add    0x4(%ecx),%dh
      b1:	00 00                	add    %al,(%eax)
      b3:	02 55 27             	add    0x27(%ebp),%dl
      b6:	72 00                	jb     b8 <start_-0xfff54>
      b8:	00 00                	add    %al,(%eax)
      ba:	08 35 03 00 00 10    	or     %dh,0x10000003
      c0:	58                   	pop    %eax
      c1:	f6 00 00             	testb  $0x0,(%eax)
      c4:	00 0c 6e             	add    %cl,(%esi,%ebp,2)
      c7:	75 6d                	jne    136 <start_-0xffed6>
      c9:	00 5a 18             	add    %bl,0x18(%edx)
      cc:	4c                   	dec    %esp
      cd:	00 00                	add    %al,(%eax)
      cf:	00 00                	add    %al,(%eax)
      d1:	01 b8 01 00 00 5b    	add    %edi,0x5b000001(%eax)
      d7:	18 4c 00 00          	sbb    %cl,0x0(%eax,%eax,1)
      db:	00 04 01             	add    %al,(%ecx,%eax,1)
      de:	be 04 00 00 5c       	mov    $0x5c000004,%esi
      e3:	18 4c 00 00          	sbb    %cl,0x0(%eax,%eax,1)
      e7:	00 08                	add    %cl,(%eax)
      e9:	01 39                	add    %edi,(%ecx)
      eb:	01 00                	add    %eax,(%eax)
      ed:	00 5d 18             	add    %bl,0x18(%ebp)
      f0:	4c                   	dec    %esp
      f1:	00 00                	add    %al,(%eax)
      f3:	00 0c 00             	add    %cl,(%eax,%eax,1)
      f6:	02 14 01             	add    (%ecx,%eax,1),%dl
      f9:	00 00                	add    %al,(%eax)
      fb:	02 60 03             	add    0x3(%eax),%ah
      fe:	ba 00 00 00 0d       	mov    $0xd000000,%edx
     103:	10 75 20             	adc    %dh,0x20(%ebp)
     106:	01 00                	add    %eax,(%eax)
     108:	00 0e                	add    %cl,(%esi)
     10a:	d8 00                	fadds  (%eax)
     10c:	00 00                	add    %al,(%eax)
     10e:	77 22                	ja     132 <start_-0xffeda>
     110:	ae                   	scas   %es:(%edi),%al
     111:	00 00                	add    %al,(%eax)
     113:	00 0e                	add    %cl,(%esi)
     115:	04 02                	add    $0x2,%al
     117:	00 00                	add    %al,(%eax)
     119:	78 2e                	js     149 <start_-0xffec3>
     11b:	f6 00 00             	testb  $0x0,(%eax)
     11e:	00 00                	add    %al,(%eax)
     120:	0f 08                	invd   
     122:	9f                   	lahf   
     123:	40                   	inc    %eax
     124:	01 00                	add    %eax,(%eax)
     126:	00 01                	add    %al,(%ecx)
     128:	aa                   	stos   %al,%es:(%edi)
     129:	04 00                	add    $0x0,%al
     12b:	00 a1 20 4c 00 00    	add    %ah,0x4c20(%ecx)
     131:	00 00                	add    %al,(%eax)
     133:	01 67 01             	add    %esp,0x1(%edi)
     136:	00 00                	add    %al,(%eax)
     138:	a2 20 39 00 00       	mov    %al,0x3920
     13d:	00 04 00             	add    %al,(%eax,%eax,1)
     140:	0f 06                	clts   
     142:	a4                   	movsb  %ds:(%esi),%es:(%edi)
     143:	90                   	nop
     144:	01 00                	add    %eax,(%eax)
     146:	00 01                	add    %al,(%ecx)
     148:	94                   	xchg   %eax,%esp
     149:	00 00                	add    %al,(%eax)
     14b:	00 a6 1f 26 00 00    	add    %ah,0x261f(%esi)
     151:	00 00                	add    %al,(%eax)
     153:	01 bf 03 00 00 a7    	add    %edi,-0x58fffffd(%edi)
     159:	1f                   	pop    %ds
     15a:	26 00 00             	add    %al,%es:(%eax)
     15d:	00 01                	add    %al,(%ecx)
     15f:	01 43 00             	add    %eax,0x0(%ebx)
     162:	00 00                	add    %al,(%eax)
     164:	a8 1f                	test   $0x1f,%al
     166:	26 00 00             	add    %al,%es:(%eax)
     169:	00 02                	add    %al,(%edx)
     16b:	01 f4                	add    %esi,%esp
     16d:	03 00                	add    (%eax),%eax
     16f:	00 a9 1f 26 00 00    	add    %ch,0x261f(%ecx)
     175:	00 03                	add    %al,(%ebx)
     177:	01 0b                	add    %ecx,(%ebx)
     179:	03 00                	add    (%eax),%eax
     17b:	00 aa 1f 26 00 00    	add    %ch,0x261f(%edx)
     181:	00 04 01             	add    %al,(%ecx,%eax,1)
     184:	00 00                	add    %al,(%eax)
     186:	00 00                	add    %al,(%eax)
     188:	ab                   	stos   %eax,%es:(%edi)
     189:	1f                   	pop    %ds
     18a:	26 00 00             	add    %al,%es:(%eax)
     18d:	00 05 00 0d 08 9d    	add    %al,0x9d080d00
     193:	a2 01 00 00 10       	mov    %al,0x10000001
     198:	20 01                	and    %al,(%ecx)
     19a:	00 00                	add    %al,(%eax)
     19c:	10 40 01             	adc    %al,0x1(%eax)
     19f:	00 00                	add    %al,(%eax)
     1a1:	00 08                	add    %cl,(%eax)
     1a3:	c5 02                	lds    (%edx),%eax
     1a5:	00 00                	add    %al,(%eax)
     1a7:	78 62                	js     20b <start_-0xffe01>
     1a9:	f6 02 00             	testb  $0x0,(%edx)
     1ac:	00 01                	add    %al,(%ecx)
     1ae:	09 06                	or     %eax,(%esi)
     1b0:	00 00                	add    %al,(%eax)
     1b2:	65 18 4c 00 00       	sbb    %cl,%gs:0x0(%eax,%eax,1)
     1b7:	00 00                	add    %al,(%eax)
     1b9:	01 0c 02             	add    %ecx,(%edx,%eax,1)
     1bc:	00 00                	add    %al,(%eax)
     1be:	68 18 4c 00 00       	push   $0x4c18
     1c3:	00 04 01             	add    %al,(%ecx,%eax,1)
     1c6:	7b 03                	jnp    1cb <start_-0xffe41>
     1c8:	00 00                	add    %al,(%eax)
     1ca:	69 18 4c 00 00 00    	imul   $0x4c,(%eax),%ebx
     1d0:	08 01                	or     %al,(%ecx)
     1d2:	86 01                	xchg   %al,(%ecx)
     1d4:	00 00                	add    %al,(%eax)
     1d6:	6c                   	insb   (%dx),%es:(%edi)
     1d7:	18 4c 00 00          	sbb    %cl,0x0(%eax,%eax,1)
     1db:	00 0c 01             	add    %cl,(%ecx,%eax,1)
     1de:	bf 00 00 00 6f       	mov    $0x6f000000,%edi
     1e3:	18 4c 00 00          	sbb    %cl,0x0(%eax,%eax,1)
     1e7:	00 10                	add    %dl,(%eax)
     1e9:	01 54 04 00          	add    %edx,0x0(%esp,%eax,1)
     1ed:	00 72 18             	add    %dh,0x18(%edx)
     1f0:	4c                   	dec    %esp
     1f1:	00 00                	add    %al,(%eax)
     1f3:	00 14 01             	add    %dl,(%ecx,%eax,1)
     1f6:	e1 00                	loope  1f8 <start_-0xffe14>
     1f8:	00 00                	add    %al,(%eax)
     1fa:	73 18                	jae    214 <start_-0xffdf8>
     1fc:	4c                   	dec    %esp
     1fd:	00 00                	add    %al,(%eax)
     1ff:	00 18                	add    %bl,(%eax)
     201:	0c 75                	or     $0x75,%al
     203:	00 79 07             	add    %bh,0x7(%ecx)
     206:	02 01                	add    (%ecx),%al
     208:	00 00                	add    %al,(%eax)
     20a:	1c 01                	sbb    $0x1,%al
     20c:	ab                   	stos   %eax,%es:(%edi)
     20d:	02 00                	add    (%eax),%al
     20f:	00 7c 18 4c          	add    %bh,0x4c(%eax,%ebx,1)
     213:	00 00                	add    %al,(%eax)
     215:	00 2c 01             	add    %ch,(%ecx,%eax,1)
     218:	cc                   	int3   
     219:	01 00                	add    %eax,(%eax)
     21b:	00 7d 18             	add    %bh,0x18(%ebp)
     21e:	4c                   	dec    %esp
     21f:	00 00                	add    %al,(%eax)
     221:	00 30                	add    %dh,(%eax)
     223:	01 d9                	add    %ebx,%ecx
     225:	03 00                	add    (%eax),%eax
     227:	00 80 18 4c 00 00    	add    %al,0x4c18(%eax)
     22d:	00 34 01             	add    %dh,(%ecx,%eax,1)
     230:	b3 00                	mov    $0x0,%bl
     232:	00 00                	add    %al,(%eax)
     234:	81 18 4c 00 00 00    	sbbl   $0x4c,(%eax)
     23a:	38 01                	cmp    %al,(%ecx)
     23c:	e7 03                	out    %eax,$0x3
     23e:	00 00                	add    %al,(%eax)
     240:	84 18                	test   %bl,(%eax)
     242:	4c                   	dec    %esp
     243:	00 00                	add    %al,(%eax)
     245:	00 3c 01             	add    %bh,(%ecx,%eax,1)
     248:	9d                   	popf   
     249:	01 00                	add    %eax,(%eax)
     24b:	00 87 18 4c 00 00    	add    %al,0x4c18(%edi)
     251:	00 40 01             	add    %al,0x1(%eax)
     254:	3f                   	aas    
     255:	01 00                	add    %eax,(%eax)
     257:	00 8a 18 4c 00 00    	add    %cl,0x4c18(%edx)
     25d:	00 44 01 f3          	add    %al,-0xd(%ecx,%eax,1)
     261:	01 00                	add    %eax,(%eax)
     263:	00 8d 18 4c 00 00    	add    %cl,0x4c18(%ebp)
     269:	00 48 01             	add    %cl,0x1(%eax)
     26c:	98                   	cwtl   
     26d:	03 00                	add    (%eax),%eax
     26f:	00 8e 18 4c 00 00    	add    %cl,0x4c18(%esi)
     275:	00 4c 01 28          	add    %cl,0x28(%ecx,%eax,1)
     279:	02 00                	add    (%eax),%al
     27b:	00 8f 18 39 00 00    	add    %cl,0x3918(%edi)
     281:	00 50 01             	add    %dl,0x1(%eax)
     284:	8a 04 00             	mov    (%eax,%eax,1),%al
     287:	00 90 18 39 00 00    	add    %dl,0x3918(%eax)
     28d:	00 52 01             	add    %dl,0x1(%edx)
     290:	16                   	push   %ss
     291:	02 00                	add    (%eax),%al
     293:	00 91 18 39 00 00    	add    %dl,0x3918(%ecx)
     299:	00 54 01 42          	add    %dl,0x42(%ecx,%eax,1)
     29d:	04 00                	add    $0x0,%al
     29f:	00 92 18 39 00 00    	add    %dl,0x3918(%edx)
     2a5:	00 56 01             	add    %dl,0x1(%esi)
     2a8:	1b 00                	sbb    (%eax),%eax
     2aa:	00 00                	add    %al,(%eax)
     2ac:	94                   	xchg   %eax,%esp
     2ad:	18 5f 00             	sbb    %bl,0x0(%edi)
     2b0:	00 00                	add    %al,(%eax)
     2b2:	58                   	pop    %eax
     2b3:	01 58 03             	add    %ebx,0x3(%eax)
     2b6:	00 00                	add    %al,(%eax)
     2b8:	95                   	xchg   %eax,%ebp
     2b9:	18 4c 00 00          	sbb    %cl,0x0(%eax,%eax,1)
     2bd:	00 60 01             	add    %ah,0x1(%eax)
     2c0:	48                   	dec    %eax
     2c1:	02 00                	add    (%eax),%al
     2c3:	00 96 18 4c 00 00    	add    %dl,0x4c18(%esi)
     2c9:	00 64 01 2f          	add    %ah,0x2f(%ecx,%eax,1)
     2cd:	04 00                	add    $0x0,%al
     2cf:	00 97 18 4c 00 00    	add    %dl,0x4c18(%edi)
     2d5:	00 68 01             	add    %ch,0x1(%eax)
     2d8:	49                   	dec    %ecx
     2d9:	01 00                	add    %eax,(%eax)
     2db:	00 98 17 26 00 00    	add    %bl,0x2617(%eax)
     2e1:	00 6c 01 6a          	add    %ch,0x6a(%ecx,%eax,1)
     2e5:	03 00                	add    (%eax),%eax
     2e7:	00 9c 17 26 00 00 00 	add    %bl,0x26(%edi,%edx,1)
     2ee:	6d                   	insl   (%dx),%es:(%edi)
     2ef:	13 90 01 00 00 70    	adc    0x70000001(%eax),%edx
     2f5:	00 02                	add    %al,(%edx)
     2f7:	10 04 00             	adc    %al,(%eax,%eax,1)
     2fa:	00 02                	add    %al,(%edx)
     2fc:	af                   	scas   %es:(%edi),%eax
     2fd:	1f                   	pop    %ds
     2fe:	a2 01 00 00 03       	mov    %al,0x3000001
     303:	01 06                	add    %eax,(%esi)
     305:	d8 01                	fadds  (%ecx)
     307:	00 00                	add    %al,(%eax)
     309:	03 02                	add    (%edx),%eax
     30b:	05 77 00 00 00       	add    $0x77,%eax
     310:	03 04 05 5e 01 00 00 	add    0x15e(,%eax,1),%eax
     317:	03 08                	add    (%eax),%ecx
     319:	05 59 01 00 00       	add    $0x159,%eax
     31e:	02 69 04             	add    0x4(%ecx),%ch
     321:	00 00                	add    %al,(%eax)
     323:	03 2e                	add    (%esi),%ebp
     325:	18 32                	sbb    %dh,(%edx)
     327:	00 00                	add    %al,(%eax)
     329:	00 02                	add    %al,(%edx)
     32b:	6e                   	outsb  %ds:(%esi),(%dx)
     32c:	00 00                	add    %al,(%eax)
     32e:	00 03                	add    %al,(%ebx)
     330:	34 19                	xor    $0x19,%al
     332:	36 03 00             	add    %ss:(%eax),%eax
     335:	00 03                	add    %al,(%ebx)
     337:	04 07                	add    $0x7,%al
     339:	36 02 00             	add    %ss:(%eax),%al
     33c:	00 14 04             	add    %dl,(%esp,%eax,1)
     33f:	05 69 6e 74 00       	add    $0x746e69,%eax
     344:	02 00                	add    (%eax),%al
     346:	01 00                	add    %eax,(%eax)
     348:	00 03                	add    %al,(%ebx)
     34a:	56                   	push   %esi
     34b:	1a 36                	sbb    (%esi),%dh
     34d:	03 00                	add    (%eax),%eax
     34f:	00 02                	add    %al,(%edx)
     351:	ae                   	scas   %es:(%edi),%al
     352:	01 00                	add    %eax,(%eax)
     354:	00 04 39             	add    %al,(%ecx,%edi,1)
     357:	17                   	pop    %ss
     358:	36 03 00             	add    %ss:(%eax),%eax
     35b:	00 09                	add    %cl,(%ecx)
     35d:	bd 01 00 00 19       	mov    $0x19000001,%ebp
     362:	1e                   	push   %ds
     363:	03 00                	add    (%eax),%eax
     365:	00 09                	add    %cl,(%ecx)
     367:	eb 00                	jmp    369 <start_-0xffca3>
     369:	00 00                	add    %al,(%eax)
     36b:	1a 1e                	sbb    (%esi),%bl
     36d:	03 00                	add    (%eax),%eax
     36f:	00 09                	add    %cl,(%ecx)
     371:	e4 01                	in     $0x1,%al
     373:	00 00                	add    %al,(%eax)
     375:	1b 1e                	sbb    (%esi),%ebx
     377:	03 00                	add    (%eax),%eax
     379:	00 11                	add    %dl,(%ecx)
     37b:	0a 01                	or     (%ecx),%al
     37d:	00 00                	add    %al,(%eax)
     37f:	7b e8                	jnp    369 <start_-0xffca3>
     381:	01 10                	add    %edx,(%eax)
     383:	00 26                	add    %ah,(%esi)
     385:	00 00                	add    %al,(%eax)
     387:	00 01                	add    %al,(%ecx)
     389:	9c                   	pushf  
     38a:	f1                   	icebp  
     38b:	03 00                	add    (%eax),%eax
     38d:	00 15 70 74 64 00    	add    %dl,0x647470
     393:	01 7b 12             	add    %edi,0x12(%ebx)
     396:	f1                   	icebp  
     397:	03 00                	add    (%eax),%eax
     399:	00 12                	add    %dl,(%edx)
     39b:	00 00                	add    %al,(%eax)
     39d:	00 0c 00             	add    %cl,(%eax,%eax,1)
     3a0:	00 00                	add    %al,(%eax)
     3a2:	05 b4 01 00 00       	add    $0x1b4,%eax
     3a7:	7b 20                	jnp    3c9 <start_-0xffc43>
     3a9:	2a 03                	sub    (%ebx),%al
     3ab:	00 00                	add    %al,(%eax)
     3ad:	32 00                	xor    (%eax),%al
     3af:	00 00                	add    %al,(%eax)
     3b1:	2a 00                	sub    (%eax),%al
     3b3:	00 00                	add    %al,(%eax)
     3b5:	04 6b                	add    $0x6b,%al
     3b7:	70 67                	jo     420 <start_-0xffbec>
     3b9:	00 7f 0e             	add    %bh,0xe(%edi)
     3bc:	f6 03 00             	testb  $0x0,(%ebx)
     3bf:	00 58 00             	add    %bl,0x0(%eax)
     3c2:	00 00                	add    %al,(%eax)
     3c4:	52                   	push   %edx
     3c5:	00 00                	add    %al,(%eax)
     3c7:	00 07                	add    %al,(%edi)
     3c9:	f1                   	icebp  
     3ca:	01 10                	add    %edx,(%eax)
     3cc:	00 12                	add    %dl,(%edx)
     3ce:	00 00                	add    %al,(%eax)
     3d0:	00 e7                	add    %ah,%bh
     3d2:	03 00                	add    (%eax),%eax
     3d4:	00 04 69             	add    %al,(%ecx,%ebp,2)
     3d7:	00 80 13 2a 03 00    	add    %al,0x32a13(%eax)
     3dd:	00 74 00 00          	add    %dh,0x0(%eax,%eax,1)
     3e1:	00 70 00             	add    %dh,0x0(%eax)
     3e4:	00 00                	add    %al,(%eax)
     3e6:	00 0a                	add    %cl,(%edx)
     3e8:	09 02                	or     %eax,(%edx)
     3ea:	10 00                	adc    %al,(%eax)
     3ec:	d2 04 00             	rolb   %cl,(%eax,%eax,1)
     3ef:	00 00                	add    %al,(%eax)
     3f1:	0b 50 03             	or     0x3(%eax),%edx
     3f4:	00 00                	add    %al,(%eax)
     3f6:	0b 1e                	or     (%esi),%ebx
     3f8:	03 00                	add    (%eax),%eax
     3fa:	00 11                	add    %dl,(%ecx)
     3fc:	bf 02 00 00 69       	mov    $0x69000002,%edi
     401:	82 01 10             	addb   $0x10,(%ecx)
     404:	00 66 00             	add    %ah,0x0(%esi)
     407:	00 00                	add    %al,(%eax)
     409:	01 9c 68 04 00 00 16 	add    %ebx,0x16000004(%eax,%ebp,2)
     410:	ad                   	lods   %ds:(%esi),%eax
     411:	06                   	push   %es
     412:	00 00                	add    %al,(%eax)
     414:	01 69 28             	add    %ebp,0x28(%ecx)
     417:	68 04 00 00 02       	push   $0x2000004
     41c:	91                   	xchg   %eax,%ecx
     41d:	00 05 8c 03 00 00    	add    %al,0x38c
     423:	69 37 f6 03 00 00    	imul   $0x3f6,(%edi),%esi
     429:	8a 00                	mov    (%eax),%al
     42b:	00 00                	add    %al,(%eax)
     42d:	84 00                	test   %al,(%eax)
     42f:	00 00                	add    %al,(%eax)
     431:	06                   	push   %es
     432:	b7 02                	mov    $0x2,%bh
     434:	00 00                	add    %al,(%eax)
     436:	6a 2a                	push   $0x2a
     438:	03 00                	add    (%eax),%eax
     43a:	00 a9 00 00 00 a3    	add    %ch,-0x5d000000(%ecx)
     440:	00 00                	add    %al,(%eax)
     442:	00 06                	add    %al,(%esi)
     444:	85 03                	test   %eax,(%ebx)
     446:	00 00                	add    %al,(%eax)
     448:	6b f6 03             	imul   $0x3,%esi,%esi
     44b:	00 00                	add    %al,(%eax)
     44d:	c6 00 00             	movb   $0x0,(%eax)
     450:	00 c0                	add    %al,%al
     452:	00 00                	add    %al,(%eax)
     454:	00 0a                	add    %cl,(%edx)
     456:	bc 01 10 00 6d       	mov    $0x6d001001,%esp
     45b:	04 00                	add    $0x0,%al
     45d:	00 0a                	add    %cl,(%edx)
     45f:	e3 01                	jecxz  462 <start_-0xffbaa>
     461:	10 00                	adc    %al,(%eax)
     463:	6d                   	insl   (%dx),%es:(%edi)
     464:	04 00                	add    $0x0,%al
     466:	00 00                	add    %al,(%eax)
     468:	0b f6                	or     %esi,%esi
     46a:	02 00                	add    (%eax),%al
     46c:	00 17                	add    %dl,(%edi)
     46e:	21 04 00             	and    %eax,(%eax,%eax,1)
     471:	00 01                	add    %al,(%ecx)
     473:	5f                   	pop    %edi
     474:	0a 2a                	or     (%edx),%ch
     476:	03 00                	add    (%eax),%eax
     478:	00 5b 01             	add    %bl,0x1(%ebx)
     47b:	10 00                	adc    %al,(%eax)
     47d:	27                   	daa    
     47e:	00 00                	add    %al,(%eax)
     480:	00 01                	add    %al,(%ecx)
     482:	9c                   	pushf  
     483:	d2 04 00             	rolb   %cl,(%eax,%eax,1)
     486:	00 05 8c 03 00 00    	add    %al,0x38c
     48c:	5f                   	pop    %edi
     48d:	21 f6                	and    %esi,%esi
     48f:	03 00                	add    (%eax),%eax
     491:	00 e3                	add    %ah,%bl
     493:	00 00                	add    %al,(%eax)
     495:	00 dd                	add    %bl,%ch
     497:	00 00                	add    %al,(%eax)
     499:	00 05 9c 04 00 00    	add    %al,0x49c
     49f:	5f                   	pop    %edi
     4a0:	37                   	aaa    
     4a1:	f6 03 00             	testb  $0x0,(%ebx)
     4a4:	00 01                	add    %al,(%ecx)
     4a6:	01 00                	add    %eax,(%eax)
     4a8:	00 fb                	add    %bh,%bl
     4aa:	00 00                	add    %al,(%eax)
     4ac:	00 05 b8 01 00 00    	add    %al,0x1b8
     4b2:	5f                   	pop    %edi
     4b3:	4a                   	dec    %edx
     4b4:	58                   	pop    %eax
     4b5:	00 00                	add    %al,(%eax)
     4b7:	00 1d 01 00 00 19    	add    %bl,0x19000001
     4bd:	01 00                	add    %eax,(%eax)
     4bf:	00 04 69             	add    %al,(%ecx,%ebp,2)
     4c2:	00 60 12             	add    %ah,0x12(%eax)
     4c5:	58                   	pop    %eax
     4c6:	00 00                	add    %al,(%eax)
     4c8:	00 31                	add    %dh,(%ecx)
     4ca:	01 00                	add    %eax,(%eax)
     4cc:	00 2d 01 00 00 00    	add    %ch,0x1
     4d2:	18 92 01 00 00 01    	sbb    %dl,0x1000001(%edx)
     4d8:	1f                   	pop    %ds
     4d9:	01 57 00             	add    %edx,0x0(%edi)
     4dc:	10 00                	adc    %al,(%eax)
     4de:	04 01                	add    $0x1,%al
     4e0:	00 00                	add    %al,(%eax)
     4e2:	01 9c 19 70 74 64 00 	add    %ebx,0x647470(%ecx,%ebx,1)
     4e9:	01 1f                	add    %ebx,(%edi)
     4eb:	13 f1                	adc    %ecx,%esi
     4ed:	03 00                	add    (%eax),%eax
     4ef:	00 02                	add    %al,(%edx)
     4f1:	91                   	xchg   %eax,%ecx
     4f2:	00 06                	add    %al,(%esi)
     4f4:	ae                   	scas   %es:(%edi),%al
     4f5:	03 00                	add    (%eax),%eax
     4f7:	00 32                	add    %dh,(%edx)
     4f9:	2a 03                	sub    (%ebx),%al
     4fb:	00 00                	add    %al,(%eax)
     4fd:	45                   	inc    %ebp
     4fe:	01 00                	add    %eax,(%eax)
     500:	00 41 01             	add    %al,0x1(%ecx)
     503:	00 00                	add    %al,(%eax)
     505:	06                   	push   %es
     506:	c7 00 00 00 33 2a    	movl   $0x2a330000,(%eax)
     50c:	03 00                	add    (%eax),%eax
     50e:	00 56 01             	add    %dl,0x1(%esi)
     511:	00 00                	add    %al,(%eax)
     513:	54                   	push   %esp
     514:	01 00                	add    %eax,(%eax)
     516:	00 06                	add    %al,(%esi)
     518:	fa                   	cli    
     519:	02 00                	add    (%eax),%al
     51b:	00 34 2a             	add    %dh,(%edx,%ebp,1)
     51e:	03 00                	add    (%eax),%eax
     520:	00 5f 01             	add    %bl,0x1(%edi)
     523:	00 00                	add    %al,(%eax)
     525:	5d                   	pop    %ebp
     526:	01 00                	add    %eax,(%eax)
     528:	00 1a                	add    %bl,(%edx)
     52a:	2b 03                	sub    (%ebx),%eax
     52c:	00 00                	add    %al,(%eax)
     52e:	01 4a 0f             	add    %ecx,0xf(%edx)
     531:	44                   	inc    %esp
     532:	03 00                	add    (%eax),%eax
     534:	00 07                	add    %al,(%edi)
     536:	74 00                	je     538 <start_-0xffad4>
     538:	10 00                	adc    %al,(%eax)
     53a:	21 00                	and    %eax,(%eax)
     53c:	00 00                	add    %al,(%eax)
     53e:	54                   	push   %esp
     53f:	05 00 00 04 69       	add    $0x69040000,%eax
     544:	00 23                	add    %ah,(%ebx)
     546:	13 2a                	adc    (%edx),%ebp
     548:	03 00                	add    (%eax),%eax
     54a:	00 6b 01             	add    %ch,0x1(%ebx)
     54d:	00 00                	add    %al,(%eax)
     54f:	67 01 00             	add    %eax,(%bx,%si)
     552:	00 00                	add    %al,(%eax)
     554:	07                   	pop    %es
     555:	95                   	xchg   %eax,%ebp
     556:	00 10                	add    %dl,(%eax)
     558:	00 2b                	add    %ch,(%ebx)
     55a:	00 00                	add    %al,(%eax)
     55c:	00 73 05             	add    %dh,0x5(%ebx)
     55f:	00 00                	add    %al,(%eax)
     561:	04 69                	add    $0x69,%al
     563:	00 2a                	add    %ch,(%edx)
     565:	13 2a                	adc    (%edx),%ebp
     567:	03 00                	add    (%eax),%eax
     569:	00 79 01             	add    %bh,0x1(%ecx)
     56c:	00 00                	add    %al,(%eax)
     56e:	77 01                	ja     571 <start_-0xffa9b>
     570:	00 00                	add    %al,(%eax)
     572:	00 07                	add    %al,(%edi)
     574:	e4 00                	in     $0x0,%al
     576:	10 00                	adc    %al,(%eax)
     578:	28 00                	sub    %al,(%eax)
     57a:	00 00                	add    %al,(%eax)
     57c:	92                   	xchg   %eax,%edx
     57d:	05 00 00 04 69       	add    $0x69040000,%eax
     582:	00 39                	add    %bh,(%ecx)
     584:	13 2a                	adc    (%edx),%ebp
     586:	03 00                	add    (%eax),%eax
     588:	00 84 01 00 00 80 01 	add    %al,0x1800000(%ecx,%eax,1)
     58f:	00 00                	add    %al,(%eax)
     591:	00 1b                	add    %bl,(%ebx)
     593:	16                   	push   %ss
     594:	01 10                	add    %edx,(%eax)
     596:	00 2c 00             	add    %ch,(%eax,%eax,1)
     599:	00 00                	add    %al,(%eax)
     59b:	04 69                	add    $0x69,%al
     59d:	00 4d 13             	add    %cl,0x13(%ebp)
     5a0:	2a 03                	sub    (%ebx),%al
     5a2:	00 00                	add    %al,(%eax)
     5a4:	98                   	cwtl   
     5a5:	01 00                	add    %eax,(%eax)
     5a7:	00 94 01 00 00 00 00 	add    %dl,0x0(%ecx,%eax,1)
     5ae:	00 22                	add    %ah,(%edx)
     5b0:	05 00 00 05 00       	add    $0x50000,%eax
     5b5:	01 04 c6             	add    %eax,(%esi,%eax,8)
     5b8:	01 00                	add    %eax,(%eax)
     5ba:	00 12                	add    %dl,(%edx)
     5bc:	5a                   	pop    %edx
     5bd:	02 00                	add    (%eax),%al
     5bf:	00 0c de             	add    %cl,(%esi,%ebx,8)
     5c2:	00 00                	add    %al,(%eax)
     5c4:	00 00                	add    %al,(%eax)
     5c6:	00 00                	add    %al,(%eax)
     5c8:	00 8d 6b 10 c0 9c    	add    %cl,-0x633fef95(%ebp)
     5ce:	01 00                	add    %eax,(%eax)
     5d0:	00 3d 02 00 00 0c    	add    %bh,0xc000002
     5d6:	c3                   	ret    
     5d7:	04 00                	add    $0x0,%al
     5d9:	00 03                	add    %al,(%ebx)
     5db:	04 16                	add    $0x16,%al
     5dd:	32 00                	xor    (%eax),%al
     5df:	00 00                	add    %al,(%eax)
     5e1:	03 04 07             	add    (%edi,%eax,1),%eax
     5e4:	3b 02                	cmp    (%edx),%eax
     5e6:	00 00                	add    %al,(%eax)
     5e8:	03 02                	add    (%edx),%eax
     5ea:	07                   	pop    %es
     5eb:	d4 02                	aam    $0x2
     5ed:	00 00                	add    %al,(%eax)
     5ef:	03 01                	add    (%ecx),%eax
     5f1:	06                   	push   %es
     5f2:	d8 01                	fadds  (%ecx)
     5f4:	00 00                	add    %al,(%eax)
     5f6:	03 02                	add    (%edx),%eax
     5f8:	05 77 00 00 00       	add    $0x77,%eax
     5fd:	03 04 05 5e 01 00 00 	add    0x15e(,%eax,1),%eax
     604:	03 08                	add    (%eax),%ecx
     606:	05 59 01 00 00       	add    $0x159,%eax
     60b:	03 01                	add    (%ecx),%eax
     60d:	08 d6                	or     %dl,%dh
     60f:	01 00                	add    %eax,(%eax)
     611:	00 0c 6e             	add    %cl,(%esi,%ebp,2)
     614:	00 00                	add    %al,(%eax)
     616:	00 04 34             	add    %al,(%esp,%esi,1)
     619:	19 6f 00             	sbb    %ebp,0x0(%edi)
     61c:	00 00                	add    %al,(%eax)
     61e:	03 04 07             	add    (%edi,%eax,1),%eax
     621:	36 02 00             	add    %ss:(%eax),%al
     624:	00 03                	add    %al,(%ebx)
     626:	08 07                	or     %al,(%edi)
     628:	31 02                	xor    %eax,(%edx)
     62a:	00 00                	add    %al,(%eax)
     62c:	13 04 05 69 6e 74 00 	adc    0x746e69(,%eax,1),%eax
     633:	06                   	push   %es
     634:	63 05 00 00 48 1e    	arpl   %ax,0x1e480000
     63a:	6d                   	insl   (%dx),%es:(%edi)
     63b:	10 c0                	adc    %al,%al
     63d:	0b 00                	or     (%eax),%eax
     63f:	00 00                	add    %al,(%eax)
     641:	01 9c a4 00 00 00 09 	add    %ebx,0x9000000(%esp,%eiz,4)
     648:	76 00                	jbe    64a <start_-0xff9c2>
     64a:	48                   	dec    %eax
     64b:	26 00 00             	add    %al,%es:(%eax)
     64e:	00 02                	add    %al,(%edx)
     650:	91                   	xchg   %eax,%ecx
     651:	00 00                	add    %al,(%eax)
     653:	06                   	push   %es
     654:	16                   	push   %ss
     655:	05 00 00 41 13       	add    $0x13410000,%eax
     65a:	6d                   	insl   (%dx),%es:(%edi)
     65b:	10 c0                	adc    %al,%al
     65d:	0b 00                	or     (%eax),%eax
     65f:	00 00                	add    %al,(%eax)
     661:	01 9c c4 00 00 00 09 	add    %ebx,0x9000000(%esp,%eax,8)
     668:	76 00                	jbe    66a <start_-0xff9a2>
     66a:	41                   	inc    %ecx
     66b:	26 00 00             	add    %al,%es:(%eax)
     66e:	00 02                	add    %al,(%edx)
     670:	91                   	xchg   %eax,%ecx
     671:	00 00                	add    %al,(%eax)
     673:	06                   	push   %es
     674:	0c 05                	or     $0x5,%al
     676:	00 00                	add    %al,(%eax)
     678:	3a 08                	cmp    (%eax),%cl
     67a:	6d                   	insl   (%dx),%es:(%edi)
     67b:	10 c0                	adc    %al,%al
     67d:	0b 00                	or     (%eax),%eax
     67f:	00 00                	add    %al,(%eax)
     681:	01 9c e4 00 00 00 09 	add    %ebx,0x9000000(%esp,%eiz,8)
     688:	76 00                	jbe    68a <start_-0xff982>
     68a:	3a 26                	cmp    (%esi),%ah
     68c:	00 00                	add    %al,(%eax)
     68e:	00 02                	add    %al,(%edx)
     690:	91                   	xchg   %eax,%ecx
     691:	00 00                	add    %al,(%eax)
     693:	0a eb                	or     %bl,%ch
     695:	04 00                	add    $0x0,%al
     697:	00 35 26 00 00 00    	add    %dh,0x26
     69d:	04 6d                	add    $0x6d,%al
     69f:	10 c0                	adc    %al,%al
     6a1:	04 00                	add    $0x0,%al
     6a3:	00 00                	add    %al,(%eax)
     6a5:	01 9c 0a e1 04 00 00 	add    %ebx,0x4e1(%edx,%ecx,1)
     6ac:	31 26                	xor    %esp,(%esi)
     6ae:	00 00                	add    %al,(%eax)
     6b0:	00 00                	add    %al,(%eax)
     6b2:	6d                   	insl   (%dx),%es:(%edi)
     6b3:	10 c0                	adc    %al,%al
     6b5:	04 00                	add    $0x0,%al
     6b7:	00 00                	add    %al,(%eax)
     6b9:	01 9c 0a d7 04 00 00 	add    %ebx,0x4d7(%edx,%ecx,1)
     6c0:	2d 26 00 00 00       	sub    $0x26,%eax
     6c5:	fc                   	cld    
     6c6:	6c                   	insb   (%dx),%es:(%edi)
     6c7:	10 c0                	adc    %al,%al
     6c9:	04 00                	add    $0x0,%al
     6cb:	00 00                	add    %al,(%eax)
     6cd:	01 9c 06 7d 05 00 00 	add    %ebx,0x57d(%esi,%eax,1)
     6d4:	18 1f                	sbb    %bl,(%edi)
     6d6:	6c                   	insb   (%dx),%es:(%edi)
     6d7:	10 c0                	adc    %al,%al
     6d9:	dd 00                	fldl   (%eax)
     6db:	00 00                	add    %al,(%eax)
     6dd:	01 9c 97 02 00 00 0d 	add    %ebx,0xd000002(%edi,%edx,4)
     6e4:	f5                   	cmc    
     6e5:	04 00                	add    $0x0,%al
     6e7:	00 18                	add    %bl,(%eax)
     6e9:	97                   	xchg   %eax,%edi
     6ea:	02 00                	add    (%eax),%al
     6ec:	00 02                	add    %al,(%edx)
     6ee:	91                   	xchg   %eax,%ecx
     6ef:	00 02                	add    %al,(%edx)
     6f1:	6f                   	outsl  %ds:(%esi),(%dx)
     6f2:	75 74                	jne    768 <start_-0xff8a4>
     6f4:	00 1d 0f a3 02 00    	add    %bl,0x2a30f
     6fa:	00 b8 01 00 00 b4    	add    %bh,-0x4bffffff(%eax)
     700:	01 00                	add    %eax,(%eax)
     702:	00 02                	add    %al,(%edx)
     704:	65 61                	gs popa 
     706:	78 00                	js     708 <start_-0xff904>
     708:	1e                   	push   %ds
     709:	0b 26                	or     (%esi),%esp
     70b:	00 00                	add    %al,(%eax)
     70d:	00 d0                	add    %dl,%al
     70f:	01 00                	add    %eax,(%eax)
     711:	00 c8                	add    %cl,%al
     713:	01 00                	add    %eax,(%eax)
     715:	00 02                	add    %al,(%edx)
     717:	65 62 78 00          	bound  %edi,%gs:0x0(%eax)
     71b:	1e                   	push   %ds
     71c:	14 26                	adc    $0x26,%al
     71e:	00 00                	add    %al,(%eax)
     720:	00 f8                	add    %bh,%al
     722:	01 00                	add    %eax,(%eax)
     724:	00 f0                	add    %dh,%al
     726:	01 00                	add    %eax,(%eax)
     728:	00 02                	add    %al,(%edx)
     72a:	65 64 78 00          	gs fs js 72e <start_-0xff8de>
     72e:	1e                   	push   %ds
     72f:	1d 26 00 00 00       	sbb    $0x26,%eax
     734:	20 02                	and    %al,(%edx)
     736:	00 00                	add    %al,(%eax)
     738:	18 02                	sbb    %al,(%edx)
     73a:	00 00                	add    %al,(%eax)
     73c:	02 65 63             	add    0x63(%ebp),%ah
     73f:	78 00                	js     741 <start_-0xff8cb>
     741:	1e                   	push   %ds
     742:	26 26 00 00          	es add %al,%es:(%eax)
     746:	00 48 02             	add    %cl,0x2(%eax)
     749:	00 00                	add    %al,(%eax)
     74b:	40                   	inc    %eax
     74c:	02 00                	add    (%eax),%al
     74e:	00 14 13             	add    %dl,(%ebx,%edx,1)
     751:	00 00                	add    %al,(%eax)
     753:	00 8d 02 00 00 02    	add    %cl,0x2000002(%ebp)
     759:	69 00 1f 13 63 00    	imul   $0x63131f,(%eax),%eax
     75f:	00 00                	add    %al,(%eax)
     761:	6c                   	insb   (%dx),%es:(%edi)
     762:	02 00                	add    (%eax),%al
     764:	00 68 02             	add    %ch,0x2(%eax)
     767:	00 00                	add    %al,(%eax)
     769:	02 6a 00             	add    0x0(%edx),%ch
     76c:	1f                   	pop    %ds
     76d:	1a 63 00             	sbb    0x0(%ebx),%ah
     770:	00 00                	add    %al,(%eax)
     772:	81 02 00 00 7d 02    	addl   $0x27d0000,(%edx)
     778:	00 00                	add    %al,(%eax)
     77a:	0e                   	push   %cs
     77b:	6f                   	outsl  %ds:(%esi),(%dx)
     77c:	04 00                	add    $0x0,%al
     77e:	00 98 6c 10 c0 00    	add    %bl,0xc0106c(%eax)
     784:	98                   	cwtl   
     785:	6c                   	insb   (%dx),%es:(%edi)
     786:	10 c0                	adc    %al,%al
     788:	58                   	pop    %eax
     789:	00 00                	add    %al,(%eax)
     78b:	00 21                	add    %ah,(%ecx)
     78d:	09 01                	or     %eax,(%ecx)
     78f:	b1 04                	mov    $0x4,%cl
     791:	00 00                	add    %al,(%eax)
     793:	93                   	xchg   %eax,%ebx
     794:	02 00                	add    (%eax),%al
     796:	00 91 02 00 00 01    	add    %dl,0x1000002(%ecx)
     79c:	a5                   	movsl  %ds:(%esi),%es:(%edi)
     79d:	04 00                	add    $0x0,%al
     79f:	00 a2 02 00 00 a0    	add    %ah,-0x5ffffffe(%edx)
     7a5:	02 00                	add    (%eax),%al
     7a7:	00 01                	add    %al,(%ecx)
     7a9:	99                   	cltd   
     7aa:	04 00                	add    $0x0,%al
     7ac:	00 b1 02 00 00 af    	add    %dh,-0x50fffffe(%ecx)
     7b2:	02 00                	add    (%eax),%al
     7b4:	00 01                	add    %al,(%ecx)
     7b6:	8d 04 00             	lea    (%eax,%eax,1),%eax
     7b9:	00 c0                	add    %al,%al
     7bb:	02 00                	add    (%eax),%al
     7bd:	00 be 02 00 00 01    	add    %bh,0x1000002(%esi)
     7c3:	81 04 00 00 d1 02 00 	addl   $0x2d100,(%eax,%eax,1)
     7ca:	00 cd                	add    %cl,%ch
     7cc:	02 00                	add    (%eax),%al
     7ce:	00 04 bd 04 00 00 e5 	add    %al,-0x1afffffc(,%edi,4)
     7d5:	02 00                	add    (%eax),%al
     7d7:	00 e1                	add    %ah,%cl
     7d9:	02 00                	add    (%eax),%al
     7db:	00 04 c8             	add    %al,(%eax,%ecx,8)
     7de:	04 00                	add    $0x0,%al
     7e0:	00 fe                	add    %bh,%dh
     7e2:	02 00                	add    (%eax),%al
     7e4:	00 fc                	add    %bh,%ah
     7e6:	02 00                	add    (%eax),%al
     7e8:	00 0f                	add    %cl,(%edi)
     7ea:	d9 04 00             	flds   (%eax,%eax,1)
     7ed:	00 a0 6c 10 c0 01    	add    %ah,0x1c0106c(%eax)
     7f3:	a0 6c 10 c0 23       	mov    0x23c0106c,%al
     7f8:	00 00                	add    %al,(%eax)
     7fa:	00 01                	add    %al,(%ecx)
     7fc:	f1                   	icebp  
     7fd:	04 00                	add    $0x0,%al
     7ff:	00 08                	add    %cl,(%eax)
     801:	03 00                	add    (%eax),%eax
     803:	00 06                	add    %al,(%esi)
     805:	03 00                	add    (%eax),%eax
     807:	00 01                	add    %al,(%ecx)
     809:	e6 04                	out    %al,$0x4
     80b:	00 00                	add    %al,(%eax)
     80d:	15 03 00 00 11       	adc    $0x11000003,%eax
     812:	03 00                	add    (%eax),%eax
     814:	00 04 fc             	add    %al,(%esp,%edi,8)
     817:	04 00                	add    $0x0,%al
     819:	00 30                	add    %dh,(%eax)
     81b:	03 00                	add    (%eax),%eax
     81d:	00 2c 03             	add    %ch,(%ebx,%eax,1)
     820:	00 00                	add    %al,(%eax)
     822:	04 06                	add    $0x6,%al
     824:	05 00 00 49 03       	add    $0x3490000,%eax
     829:	00 00                	add    %al,(%eax)
     82b:	47                   	inc    %edi
     82c:	03 00                	add    (%eax),%eax
     82e:	00 05 10 05 00 00    	add    %al,0x510
     834:	05 1a 05 00 00       	add    $0x51a,%eax
     839:	00 00                	add    %al,(%eax)
     83b:	00 15 30 6c 10 c0    	add    %dl,0xc0106c30
     841:	a8 02                	test   $0x2,%al
     843:	00 00                	add    %al,(%eax)
     845:	00 0b                	add    %cl,(%ebx)
     847:	9c                   	pushf  
     848:	02 00                	add    (%eax),%al
     84a:	00 03                	add    %al,(%ebx)
     84c:	01 06                	add    %eax,(%esi)
     84e:	df 01                	filds  (%ecx)
     850:	00 00                	add    %al,(%eax)
     852:	0b 63 00             	or     0x0(%ebx),%esp
     855:	00 00                	add    %al,(%eax)
     857:	16                   	push   %ss
     858:	32 05 00 00 01 13    	xor    0x13010000,%al
     85e:	05 7d 00 00 00       	add    $0x7d,%eax
     863:	e0 6b                	loopne 8d0 <start_-0xff73c>
     865:	10 c0                	adc    %al,%al
     867:	3f                   	aas    
     868:	00 00                	add    %al,(%eax)
     86a:	00 01                	add    %al,(%ecx)
     86c:	9c                   	pushf  
     86d:	2d 03 00 00 17       	sub    $0x17000003,%eax
     872:	43                   	inc    %ebx
     873:	05 00 00 01 14       	add    $0x14010000,%eax
     878:	0b 26                	or     (%esi),%esp
     87a:	00 00                	add    %al,(%eax)
     87c:	00 55 03             	add    %dl,0x3(%ebp)
     87f:	00 00                	add    %al,(%eax)
     881:	51                   	push   %ecx
     882:	03 00                	add    (%eax),%eax
     884:	00 18                	add    %bl,(%eax)
     886:	d9 04 00             	flds   (%eax,%eax,1)
     889:	00 e0                	add    %ah,%al
     88b:	6b 10 c0             	imul   $0xffffffc0,(%eax),%edx
     88e:	02 0c 00             	add    (%eax,%eax,1),%cl
     891:	00 00                	add    %al,(%eax)
     893:	01 14 17             	add    %edx,(%edi,%edx,1)
     896:	01 f1                	add    %esi,%ecx
     898:	04 00                	add    $0x0,%al
     89a:	00 64 03 00          	add    %ah,0x0(%ebx,%eax,1)
     89e:	00 62 03             	add    %ah,0x3(%edx)
     8a1:	00 00                	add    %al,(%eax)
     8a3:	01 e6                	add    %esp,%esi
     8a5:	04 00                	add    $0x0,%al
     8a7:	00 6d 03             	add    %ch,0x3(%ebp)
     8aa:	00 00                	add    %al,(%eax)
     8ac:	6b 03 00             	imul   $0x0,(%ebx),%eax
     8af:	00 19                	add    %bl,(%ecx)
     8b1:	0c 00                	or     $0x0,%al
     8b3:	00 00                	add    %al,(%eax)
     8b5:	04 fc                	add    $0xfc,%al
     8b7:	04 00                	add    $0x0,%al
     8b9:	00 7b 03             	add    %bh,0x3(%ebx)
     8bc:	00 00                	add    %al,(%eax)
     8be:	77 03                	ja     8c3 <start_-0xff749>
     8c0:	00 00                	add    %al,(%eax)
     8c2:	04 06                	add    $0x6,%al
     8c4:	05 00 00 88 03       	add    $0x3880000,%eax
     8c9:	00 00                	add    %al,(%eax)
     8cb:	86 03                	xchg   %al,(%ebx)
     8cd:	00 00                	add    %al,(%eax)
     8cf:	05 10 05 00 00       	add    $0x510,%eax
     8d4:	05 1a 05 00 00       	add    $0x51a,%eax
     8d9:	00 00                	add    %al,(%eax)
     8db:	00 06                	add    %al,(%esi)
     8dd:	c9                   	leave  
     8de:	04 00                	add    $0x0,%al
     8e0:	00 05 8d 6b 10 c0    	add    %al,0xc0106b8d
     8e6:	53                   	push   %ebx
     8e7:	00 00                	add    %al,(%eax)
     8e9:	00 01                	add    %al,(%ecx)
     8eb:	9c                   	pushf  
     8ec:	6f                   	outsl  %ds:(%esi),(%dx)
     8ed:	04 00                	add    $0x0,%al
     8ef:	00 0d 4d 05 00 00    	add    %cl,0x54d
     8f5:	05 97 02 00 00       	add    $0x297,%eax
     8fa:	02 91 00 02 6f 75    	add    0x756f0200(%ecx),%dl
     900:	74 00                	je     902 <start_-0xff70a>
     902:	06                   	push   %es
     903:	0f a3 02             	bt     %eax,(%edx)
     906:	00 00                	add    %al,(%eax)
     908:	90                   	nop
     909:	03 00                	add    (%eax),%eax
     90b:	00 8e 03 00 00 02    	add    %cl,0x2000003(%esi)
     911:	65 61                	gs popa 
     913:	78 00                	js     915 <start_-0xff6f7>
     915:	07                   	pop    %es
     916:	0b 26                	or     (%esi),%esp
     918:	00 00                	add    %al,(%eax)
     91a:	00 9b 03 00 00 97    	add    %bl,-0x68fffffd(%ebx)
     920:	03 00                	add    (%eax),%eax
     922:	00 02                	add    %al,(%edx)
     924:	65 62 78 00          	bound  %edi,%gs:0x0(%eax)
     928:	07                   	pop    %es
     929:	14 26                	adc    $0x26,%al
     92b:	00 00                	add    %al,(%eax)
     92d:	00 b0 03 00 00 a8    	add    %dh,-0x57fffffd(%eax)
     933:	03 00                	add    (%eax),%eax
     935:	00 02                	add    %al,(%edx)
     937:	65 64 78 00          	gs fs js 93b <start_-0xff6d1>
     93b:	07                   	pop    %es
     93c:	1d 26 00 00 00       	sbb    $0x26,%eax
     941:	cf                   	iret   
     942:	03 00                	add    (%eax),%eax
     944:	00 c7                	add    %al,%bh
     946:	03 00                	add    (%eax),%eax
     948:	00 02                	add    %al,(%edx)
     94a:	65 63 78 00          	arpl   %di,%gs:0x0(%eax)
     94e:	07                   	pop    %es
     94f:	26 26 00 00          	es add %al,%es:(%eax)
     953:	00 ee                	add    %ch,%dh
     955:	03 00                	add    (%eax),%eax
     957:	00 e6                	add    %ah,%dh
     959:	03 00                	add    (%eax),%eax
     95b:	00 0e                	add    %cl,(%esi)
     95d:	6f                   	outsl  %ds:(%esi),(%dx)
     95e:	04 00                	add    $0x0,%al
     960:	00 95 6b 10 c0 03    	add    %dl,0x3c0106b(%ebp)
     966:	95                   	xchg   %eax,%ebp
     967:	6b 10 c0             	imul   $0xffffffc0,(%eax),%edx
     96a:	2c 00                	sub    $0x0,%al
     96c:	00 00                	add    %al,(%eax)
     96e:	09 05 01 b1 04 00    	or     %eax,0x4b101
     974:	00 07                	add    %al,(%edi)
     976:	04 00                	add    $0x0,%al
     978:	00 05 04 00 00 01    	add    %al,0x1000004
     97e:	a5                   	movsl  %ds:(%esi),%es:(%edi)
     97f:	04 00                	add    $0x0,%al
     981:	00 14 04             	add    %dl,(%esp,%eax,1)
     984:	00 00                	add    %al,(%eax)
     986:	12 04 00             	adc    (%eax,%eax,1),%al
     989:	00 01                	add    %al,(%ecx)
     98b:	99                   	cltd   
     98c:	04 00                	add    $0x0,%al
     98e:	00 21                	add    %ah,(%ecx)
     990:	04 00                	add    $0x0,%al
     992:	00 1f                	add    %bl,(%edi)
     994:	04 00                	add    $0x0,%al
     996:	00 01                	add    %al,(%ecx)
     998:	8d 04 00             	lea    (%eax,%eax,1),%eax
     99b:	00 2e                	add    %ch,(%esi)
     99d:	04 00                	add    $0x0,%al
     99f:	00 2c 04             	add    %ch,(%esp,%eax,1)
     9a2:	00 00                	add    %al,(%eax)
     9a4:	01 81 04 00 00 3b    	add    %eax,0x3b000004(%ecx)
     9aa:	04 00                	add    $0x0,%al
     9ac:	00 39                	add    %bh,(%ecx)
     9ae:	04 00                	add    $0x0,%al
     9b0:	00 04 bd 04 00 00 44 	add    %al,0x44000004(,%edi,4)
     9b7:	04 00                	add    $0x0,%al
     9b9:	00 42 04             	add    %al,0x4(%edx)
     9bc:	00 00                	add    %al,(%eax)
     9be:	04 c8                	add    $0xc8,%al
     9c0:	04 00                	add    $0x0,%al
     9c2:	00 4f 04             	add    %cl,0x4(%edi)
     9c5:	00 00                	add    %al,(%eax)
     9c7:	4b                   	dec    %ebx
     9c8:	04 00                	add    $0x0,%al
     9ca:	00 0f                	add    %cl,(%edi)
     9cc:	d9 04 00             	flds   (%eax,%eax,1)
     9cf:	00 95 6b 10 c0 06    	add    %dl,0x6c0106b(%ebp)
     9d5:	95                   	xchg   %eax,%ebp
     9d6:	6b 10 c0             	imul   $0xffffffc0,(%eax),%edx
     9d9:	1f                   	pop    %ds
     9da:	00 00                	add    %al,(%eax)
     9dc:	00 01                	add    %al,(%ecx)
     9de:	f1                   	icebp  
     9df:	04 00                	add    $0x0,%al
     9e1:	00 5c 04 00          	add    %bl,0x0(%esp,%eax,1)
     9e5:	00 5a 04             	add    %bl,0x4(%edx)
     9e8:	00 00                	add    %al,(%eax)
     9ea:	01 e6                	add    %esp,%esi
     9ec:	04 00                	add    $0x0,%al
     9ee:	00 5c 04 00          	add    %bl,0x0(%esp,%eax,1)
     9f2:	00 5a 04             	add    %bl,0x4(%edx)
     9f5:	00 00                	add    %al,(%eax)
     9f7:	04 fc                	add    $0xfc,%al
     9f9:	04 00                	add    $0x0,%al
     9fb:	00 67 04             	add    %ah,0x4(%edi)
     9fe:	00 00                	add    %al,(%eax)
     a00:	63 04 00             	arpl   %ax,(%eax,%eax,1)
     a03:	00 04 06             	add    %al,(%esi,%eax,1)
     a06:	05 00 00 74 04       	add    $0x4740000,%eax
     a0b:	00 00                	add    %al,(%eax)
     a0d:	72 04                	jb     a13 <start_-0xff5f9>
     a0f:	00 00                	add    %al,(%eax)
     a11:	05 10 05 00 00       	add    $0x510,%eax
     a16:	05 1a 05 00 00       	add    $0x51a,%eax
     a1b:	00 00                	add    %al,(%eax)
     a1d:	00 1a                	add    %bl,(%edx)
     a1f:	57                   	push   %edi
     a20:	05 00 00 02 2e       	add    $0x2e020000,%eax
     a25:	01 01                	add    %eax,(%ecx)
     a27:	7d 00                	jge    a29 <start_-0xff5e3>
     a29:	00 00                	add    %al,(%eax)
     a2b:	03 d4                	add    %esp,%edx
     a2d:	04 00                	add    $0x0,%al
     a2f:	00 07                	add    %al,(%edi)
     a31:	ff 04 00             	incl   (%eax,%eax,1)
     a34:	00 2e                	add    %ch,(%esi)
     a36:	01 1b                	add    %ebx,(%ebx)
     a38:	32 00                	xor    (%eax),%al
     a3a:	00 00                	add    %al,(%eax)
     a3c:	07                   	pop    %es
     a3d:	20 05 00 00 2f 01    	and    %al,0x12f0000
     a43:	15 d4 04 00 00       	adc    $0x4d4,%eax
     a48:	07                   	pop    %es
     a49:	96                   	xchg   %eax,%esi
     a4a:	05 00 00 2f 01       	add    $0x12f0000,%eax
     a4f:	2a d4                	sub    %ah,%dl
     a51:	04 00                	add    $0x0,%al
     a53:	00 07                	add    %al,(%edi)
     a55:	26 05 00 00 30 01    	es add $0x1300000,%eax
     a5b:	15 d4 04 00 00       	adc    $0x4d4,%eax
     a60:	07                   	pop    %es
     a61:	9c                   	pushf  
     a62:	05 00 00 30 01       	add    $0x1300000,%eax
     a67:	2a d4                	sub    %ah,%dl
     a69:	04 00                	add    $0x0,%al
     a6b:	00 10                	add    %dl,(%eax)
     a6d:	2c 05                	sub    $0x5,%al
     a6f:	00 00                	add    %al,(%eax)
     a71:	32 01                	xor    (%ecx),%al
     a73:	32 00                	xor    (%eax),%al
     a75:	00 00                	add    %al,(%eax)
     a77:	10 8b 05 00 00 33    	adc    %cl,0x33000005(%ebx)
     a7d:	01 32                	add    %esi,(%edx)
     a7f:	00 00                	add    %al,(%eax)
     a81:	00 00                	add    %al,(%eax)
     a83:	0b 32                	or     (%edx),%esi
     a85:	00 00                	add    %al,(%eax)
     a87:	00 1b                	add    %bl,(%ebx)
     a89:	6d                   	insl   (%dx),%es:(%edi)
     a8a:	05 00 00 02 f7       	add    $0xf7020000,%eax
     a8f:	01 32                	add    %esi,(%edx)
     a91:	00 00                	add    %al,(%eax)
     a93:	00 03                	add    %al,(%ebx)
     a95:	11 2c 05 00 00 f7 1f 	adc    %ebp,0x1ff70000(,%eax,1)
     a9c:	32 00                	xor    (%eax),%al
     a9e:	00 00                	add    %al,(%eax)
     aa0:	11 06                	adc    %eax,(%esi)
     aa2:	05 00 00 f7 34       	add    $0x34f70000,%eax
     aa7:	d4 04                	aam    $0x4
     aa9:	00 00                	add    %al,(%eax)
     aab:	08 20                	or     %ah,(%eax)
     aad:	05 00 00 10 32       	add    $0x32100000,%eax
     ab2:	00 00                	add    %al,(%eax)
     ab4:	00 08                	add    %cl,(%eax)
     ab6:	96                   	xchg   %eax,%esi
     ab7:	05 00 00 17 32       	add    $0x32170000,%eax
     abc:	00 00                	add    %al,(%eax)
     abe:	00 08                	add    %cl,(%eax)
     ac0:	26 05 00 00 1e 32    	es add $0x321e0000,%eax
     ac6:	00 00                	add    %al,(%eax)
     ac8:	00 08                	add    %cl,(%eax)
     aca:	9c                   	pushf  
     acb:	05 00 00 25 32       	add    $0x32250000,%eax
     ad0:	00 00                	add    %al,(%eax)
     ad2:	00 00                	add    %al,(%eax)
     ad4:	00 42 01             	add    %al,0x1(%edx)
     ad7:	00 00                	add    %al,(%eax)
     ad9:	05 00 01 04 93       	add    $0x93040100,%eax
     ade:	03 00                	add    (%eax),%eax
     ae0:	00 06                	add    %al,(%esi)
     ae2:	5a                   	pop    %edx
     ae3:	02 00                	add    (%eax),%al
     ae5:	00 0c 03             	add    %cl,(%ebx,%eax,1)
     ae8:	01 00                	add    %eax,(%eax)
     aea:	00 00                	add    %al,(%eax)
     aec:	00 00                	add    %al,(%eax)
     aee:	00 00                	add    %al,(%eax)
     af0:	60                   	pusha  
     af1:	10 c0                	adc    %al,%al
     af3:	dc 00                	faddl  (%eax)
     af5:	00 00                	add    %al,(%eax)
     af7:	b8 04 00 00 01       	mov    $0x1000004,%eax
     afc:	01 06                	add    %eax,(%esi)
     afe:	d8 01                	fadds  (%ecx)
     b00:	00 00                	add    %al,(%eax)
     b02:	01 02                	add    %eax,(%edx)
     b04:	05 77 00 00 00       	add    $0x77,%eax
     b09:	01 04 05 5e 01 00 00 	add    %eax,0x15e(,%eax,1)
     b10:	01 08                	add    %ecx,(%eax)
     b12:	05 59 01 00 00       	add    $0x159,%eax
     b17:	01 01                	add    %eax,(%ecx)
     b19:	08 d6                	or     %dl,%dh
     b1b:	01 00                	add    %eax,(%eax)
     b1d:	00 04 8b             	add    %al,(%ebx,%ecx,4)
     b20:	00 00                	add    %al,(%eax)
     b22:	00 31                	add    %dh,(%ecx)
     b24:	53                   	push   %ebx
     b25:	00 00                	add    %al,(%eax)
     b27:	00 01                	add    %al,(%ecx)
     b29:	02 07                	add    (%edi),%al
     b2b:	d4 02                	aam    $0x2
     b2d:	00 00                	add    %al,(%eax)
     b2f:	04 6e                	add    $0x6e,%al
     b31:	00 00                	add    %al,(%eax)
     b33:	00 34 64             	add    %dh,(%esp,%eiz,2)
     b36:	00 00                	add    %al,(%eax)
     b38:	00 01                	add    %al,(%ecx)
     b3a:	04 07                	add    $0x7,%al
     b3c:	36 02 00             	add    %ss:(%eax),%al
     b3f:	00 04 f1             	add    %al,(%ecx,%esi,8)
     b42:	02 00                	add    (%eax),%al
     b44:	00 37                	add    %dh,(%edi)
     b46:	75 00                	jne    b48 <start_-0xff4c4>
     b48:	00 00                	add    %al,(%eax)
     b4a:	01 08                	add    %ecx,(%eax)
     b4c:	07                   	pop    %es
     b4d:	31 02                	xor    %eax,(%edx)
     b4f:	00 00                	add    %al,(%eax)
     b51:	07                   	pop    %es
     b52:	04 05                	add    $0x5,%al
     b54:	69 6e 74 00 01 04 07 	imul   $0x7040100,0x74(%esi),%ebp
     b5b:	3b 02                	cmp    (%edx),%eax
     b5d:	00 00                	add    %al,(%eax)
     b5f:	08 6b 00             	or     %ch,0x0(%ebx)
     b62:	00 00                	add    %al,(%eax)
     b64:	9a 00 00 00 09 64 00 	lcall  $0x64,$0x9000000
     b6b:	00 00                	add    %al,(%eax)
     b6d:	04 00                	add    $0x0,%al
     b6f:	05 c1 05 00 00       	add    $0x5c1,%eax
     b74:	06                   	push   %es
     b75:	8a 00                	mov    (%eax),%al
     b77:	00 00                	add    %al,(%eax)
     b79:	05 03 00 80 10       	add    $0x10800003,%eax
     b7e:	c0 05 b1 05 00 00 07 	rolb   $0x7,0x5b1
     b85:	49                   	dec    %ecx
     b86:	00 00                	add    %al,(%eax)
     b88:	00 05 03 00 90 12    	add    %al,0x12900003
     b8e:	c0 0a bc             	rorb   $0xbc,(%edx)
     b91:	05 00 00 01 11       	add    $0x11010000,%eax
     b96:	01 72 60             	add    %esi,0x60(%edx)
     b99:	10 c0                	adc    %al,%al
     b9b:	6a 00                	push   $0x0
     b9d:	00 00                	add    %al,(%eax)
     b9f:	01 9c fe 00 00 00 02 	add    %ebx,0x2000000(%esi,%edi,8)
     ba6:	85 60 10             	test   %esp,0x10(%eax)
     ba9:	c0 fe 00             	sar    $0x0,%dh
     bac:	00 00                	add    %al,(%eax)
     bae:	02 98 60 10 c0 fe    	add    -0x13fefa0(%eax),%bl
     bb4:	00 00                	add    %al,(%eax)
     bb6:	00 02                	add    %al,(%edx)
     bb8:	ae                   	scas   %es:(%edi),%al
     bb9:	60                   	pusha  
     bba:	10 c0                	adc    %al,%al
     bbc:	fe 00                	incb   (%eax)
     bbe:	00 00                	add    %al,(%eax)
     bc0:	02 c1                	add    %cl,%al
     bc2:	60                   	pusha  
     bc3:	10 c0                	adc    %al,%al
     bc5:	fe 00                	incb   (%eax)
     bc7:	00 00                	add    %al,(%eax)
     bc9:	02 d7                	add    %bh,%dl
     bcb:	60                   	pusha  
     bcc:	10 c0                	adc    %al,%al
     bce:	fe 00                	incb   (%eax)
     bd0:	00 00                	add    %al,(%eax)
     bd2:	00 0b                	add    %cl,(%ebx)
     bd4:	a2 05 00 00 01       	mov    %al,0x1000005
     bd9:	09 06                	or     %eax,(%esi)
     bdb:	00 60 10             	add    %ah,0x10(%eax)
     bde:	c0 72 00 00          	shlb   $0x0,0x0(%edx)
     be2:	00 01                	add    %al,(%ecx)
     be4:	9c                   	pushf  
     be5:	03 b9 03 00 00 1e    	add    0x1e000003(%ecx),%edi
     beb:	5a                   	pop    %edx
     bec:	00 00                	add    %al,(%eax)
     bee:	00 02                	add    %al,(%edx)
     bf0:	91                   	xchg   %eax,%ecx
     bf1:	00 03                	add    %al,(%ebx)
     bf3:	9c                   	pushf  
     bf4:	04 00                	add    $0x0,%al
     bf6:	00 2e                	add    %ch,(%esi)
     bf8:	5a                   	pop    %edx
     bf9:	00 00                	add    %al,(%eax)
     bfb:	00 02                	add    %al,(%edx)
     bfd:	91                   	xchg   %eax,%ecx
     bfe:	04 03                	add    $0x3,%al
     c00:	b6 05                	mov    $0x5,%dh
     c02:	00 00                	add    %al,(%eax)
     c04:	3d 5a 00 00 00       	cmp    $0x5a,%eax
     c09:	02 91 08 03 09 06    	add    0x6090308(%ecx),%dl
     c0f:	00 00                	add    %al,(%eax)
     c11:	4d                   	dec    %ebp
     c12:	5a                   	pop    %edx
     c13:	00 00                	add    %al,(%eax)
     c15:	00 02                	add    %al,(%edx)
     c17:	91                   	xchg   %eax,%ecx
     c18:	0c 00                	or     $0x0,%al
     c1a:	00 7d 01             	add    %bh,0x1(%ebp)
     c1d:	00 00                	add    %al,(%eax)
     c1f:	05 00 01 04 43       	add    $0x43040100,%eax
     c24:	04 00                	add    $0x0,%al
     c26:	00 06                	add    %al,(%esi)
     c28:	5a                   	pop    %edx
     c29:	02 00                	add    (%eax),%al
     c2b:	00 0c 27             	add    %cl,(%edi,%eiz,1)
     c2e:	01 00                	add    %eax,(%eax)
     c30:	00 00                	add    %al,(%eax)
     c32:	00 00                	add    %al,(%eax)
     c34:	00 dc                	add    %bl,%ah
     c36:	60                   	pusha  
     c37:	10 c0                	adc    %al,%al
     c39:	7f 00                	jg     c3b <start_-0xff3d1>
     c3b:	00 00                	add    %al,(%eax)
     c3d:	57                   	push   %edi
     c3e:	05 00 00 01 04       	add    $0x4010000,%eax
     c43:	07                   	pop    %es
     c44:	3b 02                	cmp    (%edx),%eax
     c46:	00 00                	add    %al,(%eax)
     c48:	01 01                	add    %eax,(%ecx)
     c4a:	06                   	push   %es
     c4b:	d8 01                	fadds  (%ecx)
     c4d:	00 00                	add    %al,(%eax)
     c4f:	01 02                	add    %eax,(%edx)
     c51:	05 77 00 00 00       	add    $0x77,%eax
     c56:	01 04 05 5e 01 00 00 	add    %eax,0x15e(,%eax,1)
     c5d:	01 08                	add    %ecx,(%eax)
     c5f:	05 59 01 00 00       	add    $0x159,%eax
     c64:	02 69 04             	add    0x4(%ecx),%ch
     c67:	00 00                	add    %al,(%eax)
     c69:	2e 18 54 00 00       	sbb    %dl,%cs:0x0(%eax,%eax,1)
     c6e:	00 01                	add    %al,(%ecx)
     c70:	01 08                	add    %ecx,(%eax)
     c72:	d6                   	(bad)  
     c73:	01 00                	add    %eax,(%eax)
     c75:	00 02                	add    %al,(%edx)
     c77:	8b 00                	mov    (%eax),%eax
     c79:	00 00                	add    %al,(%eax)
     c7b:	31 19                	xor    %ebx,(%ecx)
     c7d:	66 00 00             	data16 add %al,(%eax)
     c80:	00 01                	add    %al,(%ecx)
     c82:	02 07                	add    (%edi),%al
     c84:	d4 02                	aam    $0x2
     c86:	00 00                	add    %al,(%eax)
     c88:	02 6e 00             	add    0x0(%esi),%ch
     c8b:	00 00                	add    %al,(%eax)
     c8d:	34 19                	xor    $0x19,%al
     c8f:	78 00                	js     c91 <start_-0xff37b>
     c91:	00 00                	add    %al,(%eax)
     c93:	01 04 07             	add    %eax,(%edi,%eax,1)
     c96:	36 02 00             	add    %ss:(%eax),%al
     c99:	00 02                	add    %al,(%edx)
     c9b:	f1                   	icebp  
     c9c:	02 00                	add    (%eax),%al
     c9e:	00 37                	add    %dh,(%edi)
     ca0:	19 8a 00 00 00 01    	sbb    %ecx,0x1000000(%edx)
     ca6:	08 07                	or     %al,(%edi)
     ca8:	31 02                	xor    %eax,(%edx)
     caa:	00 00                	add    %al,(%eax)
     cac:	07                   	pop    %es
     cad:	04 05                	add    $0x5,%al
     caf:	69 6e 74 00 02 00 01 	imul   $0x1000200,0x74(%esi),%ebp
     cb6:	00 00                	add    %al,(%eax)
     cb8:	56                   	push   %esi
     cb9:	1a 78 00             	sbb    0x0(%eax),%bh
     cbc:	00 00                	add    %al,(%eax)
     cbe:	08 7f 00             	or     %bh,0x0(%edi)
     cc1:	00 00                	add    %al,(%eax)
     cc3:	b3 00                	mov    $0x0,%bl
     cc5:	00 00                	add    %al,(%eax)
     cc7:	09 78 00             	or     %edi,0x0(%eax)
     cca:	00 00                	add    %al,(%eax)
     ccc:	1f                   	pop    %ds
     ccd:	00 03                	add    %al,(%ebx)
     ccf:	e0 05                	loopne cd6 <start_-0xff336>
     cd1:	00 00                	add    %al,(%eax)
     cd3:	08 a3 00 00 00 05    	or     %ah,0x5000000(%ebx)
     cd9:	03 40 80             	add    -0x80(%eax),%eax
     cdc:	10 c0                	adc    %al,%al
     cde:	03 d0                	add    %eax,%edx
     ce0:	05 00 00 09 5b       	add    $0x5b090000,%eax
     ce5:	00 00                	add    %al,(%eax)
     ce7:	00 05 03 02 90 12    	add    %al,0x12900203
     ced:	c0 0a c6             	rorb   $0xc6,(%edx)
     cf0:	05 00 00 03 0d       	add    $0xd030000,%eax
     cf5:	01 e1                	add    %esp,%ecx
     cf7:	00 00                	add    %al,(%eax)
     cf9:	00 04 00             	add    %al,(%eax,%eax,1)
     cfc:	0b db                	or     %ebx,%ebx
     cfe:	05 00 00 01 14       	add    $0x14010000,%eax
     d03:	01 40 61             	add    %eax,0x61(%eax)
     d06:	10 c0                	adc    %al,%al
     d08:	1b 00                	sbb    (%eax),%eax
     d0a:	00 00                	add    %al,(%eax)
     d0c:	01 9c 01 01 00 00 0c 	add    %ebx,0xc000001(%ecx,%eax,1)
     d13:	56                   	push   %esi
     d14:	61                   	popa   
     d15:	10 c0                	adc    %al,%al
     d17:	01 01                	add    %eax,(%ecx)
     d19:	00 00                	add    %al,(%eax)
     d1b:	00 0d f2 05 00 00    	add    %cl,0x5f2
     d21:	01 0b                	add    %ecx,(%ebx)
     d23:	06                   	push   %es
     d24:	dc 60 10             	fsubl  0x10(%eax)
     d27:	c0 64 00 00 00       	shlb   $0x0,0x0(%eax,%eax,1)
     d2c:	01 9c 73 01 00 00 0e 	add    %ebx,0xe000001(%ebx,%esi,2)
     d33:	01 06                	add    %eax,(%esi)
     d35:	00 00                	add    %al,(%eax)
     d37:	01 0b                	add    %ecx,(%ebx)
     d39:	1e                   	push   %ds
     d3a:	6d                   	insl   (%dx),%es:(%edi)
     d3b:	00 00                	add    %al,(%eax)
     d3d:	00 02                	add    %al,(%edx)
     d3f:	91                   	xchg   %eax,%ecx
     d40:	00 0f                	add    %cl,(%edi)
     d42:	e5 05                	in     $0x5,%eax
     d44:	00 00                	add    %al,(%eax)
     d46:	01 0b                	add    %ecx,(%ebx)
     d48:	2f                   	das    
     d49:	5b                   	pop    %ebx
     d4a:	00 00                	add    %al,(%eax)
     d4c:	00 8a 04 00 00 86    	add    %cl,-0x79fffffc(%edx)
     d52:	04 00                	add    $0x0,%al
     d54:	00 05 69 73 72 00    	add    %al,0x727369
     d5a:	44                   	inc    %esp
     d5b:	7a 01                	jp     d5e <start_-0xff2ae>
     d5d:	00 00                	add    %al,(%eax)
     d5f:	9b                   	fwait
     d60:	04 00                	add    $0x0,%al
     d62:	00 97 04 00 00 05    	add    %dl,0x5000004(%edi)
     d68:	64 70 6c             	fs jo  dd7 <start_-0xff235>
     d6b:	00 54 49 00          	add    %dl,0x0(%ecx,%ecx,2)
     d6f:	00 00                	add    %al,(%eax)
     d71:	ac                   	lods   %ds:(%esi),%al
     d72:	04 00                	add    $0x0,%al
     d74:	00 a8 04 00 00 10    	add    %ch,0x10000004(%eax)
     d7a:	9e                   	sahf   
     d7b:	08 00                	or     %al,(%eax)
     d7d:	00 01                	add    %al,(%ecx)
     d7f:	0c 0f                	or     $0xf,%al
     d81:	98                   	cwtl   
     d82:	00 00                	add    %al,(%eax)
     d84:	00 bd 04 00 00 b9    	add    %bh,-0x46fffffc(%ebp)
     d8a:	04 00                	add    $0x0,%al
     d8c:	00 00                	add    %al,(%eax)
     d8e:	11 7a 01             	adc    %edi,0x1(%edx)
     d91:	00 00                	add    %al,(%eax)
     d93:	04 00                	add    $0x0,%al
     d95:	12 04 73             	adc    (%ebx,%esi,2),%al
     d98:	01 00                	add    %eax,(%eax)
     d9a:	00 00                	add    %al,(%eax)
     d9c:	f2 00 00             	repnz add %al,(%eax)
     d9f:	00 05 00 01 04 58    	add    %al,0x58040100
     da5:	05 00 00 07 5a       	add    $0x5a070000,%eax
     daa:	02 00                	add    (%eax),%al
     dac:	00 0c 5b             	add    %cl,(%ebx,%ebx,2)
     daf:	01 00                	add    %eax,(%eax)
     db1:	00 00                	add    %al,(%eax)
     db3:	00 00                	add    %al,(%eax)
     db5:	00 78 61             	add    %bh,0x61(%eax)
     db8:	10 c0                	adc    %al,%al
     dba:	3e 00 00             	add    %al,%ds:(%eax)
     dbd:	00 f2                	add    %dh,%dl
     dbf:	05 00 00 08 14       	add    $0x14080000,%eax
     dc4:	02 04 09             	add    (%ecx,%ecx,1),%al
     dc7:	66 00 00             	data16 add %al,(%eax)
     dca:	00 01                	add    %al,(%ecx)
     dcc:	01 06                	add    %eax,(%esi)
     dce:	00 00                	add    %al,(%eax)
     dd0:	05 66 00 00 00       	add    $0x66,%eax
     dd5:	00 01                	add    %al,(%ecx)
     dd7:	2b 06                	sub    (%esi),%eax
     dd9:	00 00                	add    %al,(%eax)
     ddb:	06                   	push   %es
     ddc:	66 00 00             	data16 add %al,(%eax)
     ddf:	00 04 02             	add    %al,(%edx,%eax,1)
     de2:	65 69 70 00 07 66 00 	imul   $0x6607,%gs:0x0(%eax),%esi
     de9:	00 
     dea:	00 08                	add    %cl,(%eax)
     dec:	02 63 73             	add    0x73(%ebx),%ah
     def:	00 08                	add    %cl,(%eax)
     df1:	66 00 00             	data16 add %al,(%eax)
     df4:	00 0c 01             	add    %cl,(%ecx,%eax,1)
     df7:	08 06                	or     %al,(%esi)
     df9:	00 00                	add    %al,(%eax)
     dfb:	09 66 00             	or     %esp,0x0(%esi)
     dfe:	00 00                	add    %al,(%eax)
     e00:	10 00                	adc    %al,(%eax)
     e02:	03 04 07             	add    (%edi,%eax,1),%eax
     e05:	3b 02                	cmp    (%edx),%eax
     e07:	00 00                	add    %al,(%eax)
     e09:	09 21                	or     %esp,(%ecx)
     e0b:	06                   	push   %es
     e0c:	00 00                	add    %al,(%eax)
     e0e:	02 0a                	add    (%edx),%cl
     e10:	1b 26                	sbb    (%esi),%esp
     e12:	00 00                	add    %al,(%eax)
     e14:	00 03                	add    %al,(%ebx)
     e16:	01 06                	add    %eax,(%esi)
     e18:	df 01                	filds  (%ecx)
     e1a:	00 00                	add    %al,(%eax)
     e1c:	0a bd 09 00 00 03    	or     0x3000009(%ebp),%bh
     e22:	0a 06                	or     (%esi),%al
     e24:	93                   	xchg   %eax,%ebx
     e25:	00 00                	add    %al,(%eax)
     e27:	00 0b                	add    %cl,(%ebx)
     e29:	93                   	xchg   %eax,%ebx
     e2a:	00 00                	add    %al,(%eax)
     e2c:	00 0c 00             	add    %cl,(%eax,%eax,1)
     e2f:	04 79                	add    $0x79,%al
     e31:	00 00                	add    %al,(%eax)
     e33:	00 0d 0f 06 00 00    	add    %cl,0x60f
     e39:	01 09                	add    %ecx,(%ecx)
     e3b:	01 98 61 10 c0 1e    	add    %ebx,0x1ec01061(%eax)
     e41:	00 00                	add    %al,(%eax)
     e43:	00 01                	add    %al,(%ecx)
     e45:	9c                   	pushf  
     e46:	c6 00 00             	movb   $0x0,(%eax)
     e49:	00 05 25 06 00 00    	add    %al,0x625
     e4f:	09 1e                	or     %ebx,(%esi)
     e51:	c6 00 00             	movb   $0x0,(%eax)
     e54:	00 02                	add    %al,(%edx)
     e56:	91                   	xchg   %eax,%ecx
     e57:	00 06                	add    %al,(%esi)
     e59:	b1 61                	mov    $0x61,%cl
     e5b:	10 c0                	adc    %al,%al
     e5d:	cb                   	lret   
     e5e:	00 00                	add    %al,(%eax)
     e60:	00 00                	add    %al,(%eax)
     e62:	04 6d                	add    $0x6d,%al
     e64:	00 00                	add    %al,(%eax)
     e66:	00 0e                	add    %cl,(%esi)
     e68:	cb                   	lret   
     e69:	05 00 00 01 04       	add    $0x4010000,%eax
     e6e:	06                   	push   %es
     e6f:	78 61                	js     ed2 <start_-0xff13a>
     e71:	10 c0                	adc    %al,%al
     e73:	20 00                	and    %al,(%eax)
     e75:	00 00                	add    %al,(%eax)
     e77:	01 9c 05 25 06 00 00 	add    %ebx,0x625(%ebp,%eax,1)
     e7e:	04 17                	add    $0x17,%al
     e80:	c6 00 00             	movb   $0x0,(%eax)
     e83:	00 02                	add    %al,(%edx)
     e85:	91                   	xchg   %eax,%ecx
     e86:	00 06                	add    %al,(%esi)
     e88:	93                   	xchg   %eax,%ebx
     e89:	61                   	popa   
     e8a:	10 c0                	adc    %al,%al
     e8c:	80 00 00             	addb   $0x0,(%eax)
     e8f:	00 00                	add    %al,(%eax)
     e91:	00 a3 07 00 00 05    	add    %ah,0x5000007(%ebx)
     e97:	00 01                	add    %al,(%ecx)
     e99:	04 35                	add    $0x35,%al
     e9b:	06                   	push   %es
     e9c:	00 00                	add    %al,(%eax)
     e9e:	17                   	pop    %ss
     e9f:	5a                   	pop    %edx
     ea0:	02 00                	add    (%eax),%al
     ea2:	00 0c 8d 01 00 00 00 	add    %cl,0x1(,%ecx,4)
     ea9:	00 00                	add    %al,(%eax)
     eab:	00 26                	add    %ah,(%esi)
     ead:	62 10                	bound  %edx,(%eax)
     eaf:	c0 b2 02 00 00 6f 06 	shlb   $0x6,0x6f000002(%edx)
     eb6:	00 00                	add    %al,(%eax)
     eb8:	05 01 06 d8 01       	add    $0x1d80601,%eax
     ebd:	00 00                	add    %al,(%eax)
     ebf:	05 02 05 77 00       	add    $0x770502,%eax
     ec4:	00 00                	add    %al,(%eax)
     ec6:	05 04 05 5e 01       	add    $0x15e0504,%eax
     ecb:	00 00                	add    %al,(%eax)
     ecd:	05 08 05 59 01       	add    $0x1590508,%eax
     ed2:	00 00                	add    %al,(%eax)
     ed4:	04 69                	add    $0x69,%al
     ed6:	04 00                	add    $0x0,%al
     ed8:	00 02                	add    %al,(%edx)
     eda:	2e 18 4e 00          	sbb    %cl,%cs:0x0(%esi)
     ede:	00 00                	add    %al,(%eax)
     ee0:	05 01 08 d6 01       	add    $0x1d60801,%eax
     ee5:	00 00                	add    %al,(%eax)
     ee7:	05 02 07 d4 02       	add    $0x2d40702,%eax
     eec:	00 00                	add    %al,(%eax)
     eee:	05 04 07 36 02       	add    $0x2360704,%eax
     ef3:	00 00                	add    %al,(%eax)
     ef5:	05 08 07 31 02       	add    $0x2310708,%eax
     efa:	00 00                	add    %al,(%eax)
     efc:	18 04 05 69 6e 74 00 	sbb    %al,0x746e69(,%eax,1)
     f03:	05 04 07 3b 02       	add    $0x23b0704,%eax
     f08:	00 00                	add    %al,(%eax)
     f0a:	04 00                	add    $0x0,%al
     f0c:	01 00                	add    %eax,(%eax)
     f0e:	00 02                	add    %al,(%edx)
     f10:	56                   	push   %esi
     f11:	1a 5c 00 00          	sbb    0x0(%eax,%eax,1),%bl
     f15:	00 04 92             	add    %al,(%edx,%edx,4)
     f18:	07                   	pop    %es
     f19:	00 00                	add    %al,(%eax)
     f1b:	03 03                	add    (%ebx),%eax
     f1d:	18 55 00             	sbb    %dl,0x0(%ebp)
     f20:	00 00                	add    %al,(%eax)
     f22:	04 79                	add    $0x79,%al
     f24:	07                   	pop    %es
     f25:	00 00                	add    %al,(%eax)
     f27:	04 3b                	add    $0x3b,%al
     f29:	16                   	push   %ss
     f2a:	71 00                	jno    f2c <start_-0xff0e0>
     f2c:	00 00                	add    %al,(%eax)
     f2e:	04 5e                	add    $0x5e,%al
     f30:	06                   	push   %es
     f31:	00 00                	add    %al,(%eax)
     f33:	05 d1 17 5c 00       	add    $0x5c17d1,%eax
     f38:	00 00                	add    %al,(%eax)
     f3a:	04 5f                	add    $0x5f,%al
     f3c:	04 00                	add    $0x0,%al
     f3e:	00 06                	add    %al,(%esi)
     f40:	49                   	dec    %ecx
     f41:	17                   	pop    %ss
     f42:	4e                   	dec    %esi
     f43:	00 00                	add    %al,(%eax)
     f45:	00 04 81             	add    %al,(%ecx,%eax,4)
     f48:	00 00                	add    %al,(%eax)
     f4a:	00 06                	add    %al,(%esi)
     f4c:	4a                   	dec    %edx
     f4d:	18 55 00             	sbb    %dl,0x0(%ebp)
     f50:	00 00                	add    %al,(%eax)
     f52:	04 64                	add    $0x64,%al
     f54:	00 00                	add    %al,(%eax)
     f56:	00 06                	add    %al,(%esi)
     f58:	4b                   	dec    %ebx
     f59:	16                   	push   %ss
     f5a:	71 00                	jno    f5c <start_-0xff0b0>
     f5c:	00 00                	add    %al,(%eax)
     f5e:	04 e7                	add    $0xe7,%al
     f60:	02 00                	add    (%eax),%al
     f62:	00 06                	add    %al,(%esi)
     f64:	4c                   	dec    %esp
     f65:	1c 63                	sbb    $0x63,%al
     f67:	00 00                	add    %al,(%eax)
     f69:	00 08                	add    %cl,(%eax)
     f6b:	2c 00                	sub    $0x0,%al
     f6d:	00 00                	add    %al,(%eax)
     f6f:	10 4e 14             	adc    %cl,0x14(%esi)
     f72:	01 00                	add    %eax,(%eax)
     f74:	00 01                	add    %al,(%ecx)
     f76:	a6                   	cmpsb  %es:(%edi),%ds:(%esi)
     f77:	03 00                	add    (%eax),%eax
     f79:	00 50 18             	add    %dl,0x18(%eax)
     f7c:	c0 00 00             	rolb   $0x0,(%eax)
     f7f:	00 00                	add    %al,(%eax)
     f81:	01 f8                	add    %edi,%eax
     f83:	00 00                	add    %al,(%eax)
     f85:	00 51 18             	add    %dl,0x18(%ecx)
     f88:	c0 00 00             	rolb   $0x0,(%eax)
     f8b:	00 04 01             	add    %al,(%ecx,%eax,1)
     f8e:	be 04 00 00 52       	mov    $0x52000004,%esi
     f93:	18 c0                	sbb    %al,%al
     f95:	00 00                	add    %al,(%eax)
     f97:	00 08                	add    %cl,(%eax)
     f99:	01 a1 04 00 00 53    	add    %esp,0x53000004(%ecx)
     f9f:	18 c0                	sbb    %al,%al
     fa1:	00 00                	add    %al,(%eax)
     fa3:	00 0c 00             	add    %cl,(%eax,%eax,1)
     fa6:	04 71                	add    $0x71,%al
     fa8:	04 00                	add    $0x0,%al
     faa:	00 06                	add    %al,(%esi)
     fac:	55                   	push   %ebp
     fad:	27                   	daa    
     fae:	d8 00                	fadds  (%eax)
     fb0:	00 00                	add    %al,(%eax)
     fb2:	08 35 03 00 00 10    	or     %dh,0x10000003
     fb8:	58                   	pop    %eax
     fb9:	5c                   	pop    %esp
     fba:	01 00                	add    %eax,(%eax)
     fbc:	00 0f                	add    %cl,(%edi)
     fbe:	6e                   	outsb  %ds:(%esi),(%dx)
     fbf:	75 6d                	jne    102e <start_-0xfefde>
     fc1:	00 5a 18             	add    %bl,0x18(%edx)
     fc4:	c0 00 00             	rolb   $0x0,(%eax)
     fc7:	00 00                	add    %al,(%eax)
     fc9:	01 b8 01 00 00 5b    	add    %edi,0x5b000001(%eax)
     fcf:	18 c0                	sbb    %al,%al
     fd1:	00 00                	add    %al,(%eax)
     fd3:	00 04 01             	add    %al,(%ecx,%eax,1)
     fd6:	be 04 00 00 5c       	mov    $0x5c000004,%esi
     fdb:	18 c0                	sbb    %al,%al
     fdd:	00 00                	add    %al,(%eax)
     fdf:	00 08                	add    %cl,(%eax)
     fe1:	01 39                	add    %edi,(%ecx)
     fe3:	01 00                	add    %eax,(%eax)
     fe5:	00 5d 18             	add    %bl,0x18(%ebp)
     fe8:	c0 00 00             	rolb   $0x0,(%eax)
     feb:	00 0c 00             	add    %cl,(%eax,%eax,1)
     fee:	04 14                	add    $0x14,%al
     ff0:	01 00                	add    %eax,(%eax)
     ff2:	00 06                	add    %al,(%esi)
     ff4:	60                   	pusha  
     ff5:	03 20                	add    (%eax),%esp
     ff7:	01 00                	add    %eax,(%eax)
     ff9:	00 10                	add    %dl,(%eax)
     ffb:	10 75 86             	adc    %dh,-0x7a(%ebp)
     ffe:	01 00                	add    %eax,(%eax)
    1000:	00 11                	add    %dl,(%ecx)
    1002:	d8 00                	fadds  (%eax)
    1004:	00 00                	add    %al,(%eax)
    1006:	77 22                	ja     102a <start_-0xfefe2>
    1008:	14 01                	adc    $0x1,%al
    100a:	00 00                	add    %al,(%eax)
    100c:	11 04 02             	adc    %eax,(%edx,%eax,1)
    100f:	00 00                	add    %al,(%eax)
    1011:	78 2e                	js     1041 <start_-0xfefcb>
    1013:	5c                   	pop    %esp
    1014:	01 00                	add    %eax,(%eax)
    1016:	00 00                	add    %al,(%eax)
    1018:	12 08                	adc    (%eax),%cl
    101a:	9f                   	lahf   
    101b:	a6                   	cmpsb  %es:(%edi),%ds:(%esi)
    101c:	01 00                	add    %eax,(%eax)
    101e:	00 01                	add    %al,(%ecx)
    1020:	aa                   	stos   %al,%es:(%edi)
    1021:	04 00                	add    $0x0,%al
    1023:	00 a1 20 c0 00 00    	add    %ah,0xc020(%ecx)
    1029:	00 00                	add    %al,(%eax)
    102b:	01 67 01             	add    %esp,0x1(%edi)
    102e:	00 00                	add    %al,(%eax)
    1030:	a2 20 b4 00 00       	mov    %al,0xb420
    1035:	00 04 00             	add    %al,(%eax,%eax,1)
    1038:	12 06                	adc    (%esi),%al
    103a:	a4                   	movsb  %ds:(%esi),%es:(%edi)
    103b:	f6 01 00             	testb  $0x0,(%ecx)
    103e:	00 01                	add    %al,(%ecx)
    1040:	94                   	xchg   %eax,%esp
    1041:	00 00                	add    %al,(%eax)
    1043:	00 a6 1f a8 00 00    	add    %ah,0xa81f(%esi)
    1049:	00 00                	add    %al,(%eax)
    104b:	01 bf 03 00 00 a7    	add    %edi,-0x58fffffd(%edi)
    1051:	1f                   	pop    %ds
    1052:	a8 00                	test   $0x0,%al
    1054:	00 00                	add    %al,(%eax)
    1056:	01 01                	add    %eax,(%ecx)
    1058:	43                   	inc    %ebx
    1059:	00 00                	add    %al,(%eax)
    105b:	00 a8 1f a8 00 00    	add    %ch,0xa81f(%eax)
    1061:	00 02                	add    %al,(%edx)
    1063:	01 f4                	add    %esi,%esp
    1065:	03 00                	add    (%eax),%eax
    1067:	00 a9 1f a8 00 00    	add    %ch,0xa81f(%ecx)
    106d:	00 03                	add    %al,(%ebx)
    106f:	01 0b                	add    %ecx,(%ebx)
    1071:	03 00                	add    (%eax),%eax
    1073:	00 aa 1f a8 00 00    	add    %ch,0xa81f(%edx)
    1079:	00 04 01             	add    %al,(%ecx,%eax,1)
    107c:	00 00                	add    %al,(%eax)
    107e:	00 00                	add    %al,(%eax)
    1080:	ab                   	stos   %eax,%es:(%edi)
    1081:	1f                   	pop    %ds
    1082:	a8 00                	test   $0x0,%al
    1084:	00 00                	add    %al,(%eax)
    1086:	05 00 10 08 9d       	add    $0x9d081000,%eax
    108b:	08 02                	or     %al,(%edx)
    108d:	00 00                	add    %al,(%eax)
    108f:	13 86 01 00 00 13    	adc    0x13000001(%esi),%eax
    1095:	a6                   	cmpsb  %es:(%edi),%ds:(%esi)
    1096:	01 00                	add    %eax,(%eax)
    1098:	00 00                	add    %al,(%eax)
    109a:	08 c5                	or     %al,%ch
    109c:	02 00                	add    (%eax),%al
    109e:	00 78 62             	add    %bh,0x62(%eax)
    10a1:	5c                   	pop    %esp
    10a2:	03 00                	add    (%eax),%eax
    10a4:	00 01                	add    %al,(%ecx)
    10a6:	09 06                	or     %eax,(%esi)
    10a8:	00 00                	add    %al,(%eax)
    10aa:	65 18 c0             	gs sbb %al,%al
    10ad:	00 00                	add    %al,(%eax)
    10af:	00 00                	add    %al,(%eax)
    10b1:	01 0c 02             	add    %ecx,(%edx,%eax,1)
    10b4:	00 00                	add    %al,(%eax)
    10b6:	68 18 c0 00 00       	push   $0xc018
    10bb:	00 04 01             	add    %al,(%ecx,%eax,1)
    10be:	7b 03                	jnp    10c3 <start_-0xfef49>
    10c0:	00 00                	add    %al,(%eax)
    10c2:	69 18 c0 00 00 00    	imul   $0xc0,(%eax),%ebx
    10c8:	08 01                	or     %al,(%ecx)
    10ca:	86 01                	xchg   %al,(%ecx)
    10cc:	00 00                	add    %al,(%eax)
    10ce:	6c                   	insb   (%dx),%es:(%edi)
    10cf:	18 c0                	sbb    %al,%al
    10d1:	00 00                	add    %al,(%eax)
    10d3:	00 0c 01             	add    %cl,(%ecx,%eax,1)
    10d6:	bf 00 00 00 6f       	mov    $0x6f000000,%edi
    10db:	18 c0                	sbb    %al,%al
    10dd:	00 00                	add    %al,(%eax)
    10df:	00 10                	add    %dl,(%eax)
    10e1:	01 54 04 00          	add    %edx,0x0(%esp,%eax,1)
    10e5:	00 72 18             	add    %dh,0x18(%edx)
    10e8:	c0 00 00             	rolb   $0x0,(%eax)
    10eb:	00 14 01             	add    %dl,(%ecx,%eax,1)
    10ee:	e1 00                	loope  10f0 <start_-0xfef1c>
    10f0:	00 00                	add    %al,(%eax)
    10f2:	73 18                	jae    110c <start_-0xfef00>
    10f4:	c0 00 00             	rolb   $0x0,(%eax)
    10f7:	00 18                	add    %bl,(%eax)
    10f9:	0f 75 00             	pcmpeqw (%eax),%mm0
    10fc:	79 07                	jns    1105 <start_-0xfef07>
    10fe:	68 01 00 00 1c       	push   $0x1c000001
    1103:	01 ab 02 00 00 7c    	add    %ebp,0x7c000002(%ebx)
    1109:	18 c0                	sbb    %al,%al
    110b:	00 00                	add    %al,(%eax)
    110d:	00 2c 01             	add    %ch,(%ecx,%eax,1)
    1110:	cc                   	int3   
    1111:	01 00                	add    %eax,(%eax)
    1113:	00 7d 18             	add    %bh,0x18(%ebp)
    1116:	c0 00 00             	rolb   $0x0,(%eax)
    1119:	00 30                	add    %dh,(%eax)
    111b:	01 d9                	add    %ebx,%ecx
    111d:	03 00                	add    (%eax),%eax
    111f:	00 80 18 c0 00 00    	add    %al,0xc018(%eax)
    1125:	00 34 01             	add    %dh,(%ecx,%eax,1)
    1128:	b3 00                	mov    $0x0,%bl
    112a:	00 00                	add    %al,(%eax)
    112c:	81 18 c0 00 00 00    	sbbl   $0xc0,(%eax)
    1132:	38 01                	cmp    %al,(%ecx)
    1134:	e7 03                	out    %eax,$0x3
    1136:	00 00                	add    %al,(%eax)
    1138:	84 18                	test   %bl,(%eax)
    113a:	c0 00 00             	rolb   $0x0,(%eax)
    113d:	00 3c 01             	add    %bh,(%ecx,%eax,1)
    1140:	9d                   	popf   
    1141:	01 00                	add    %eax,(%eax)
    1143:	00 87 18 c0 00 00    	add    %al,0xc018(%edi)
    1149:	00 40 01             	add    %al,0x1(%eax)
    114c:	3f                   	aas    
    114d:	01 00                	add    %eax,(%eax)
    114f:	00 8a 18 c0 00 00    	add    %cl,0xc018(%edx)
    1155:	00 44 01 f3          	add    %al,-0xd(%ecx,%eax,1)
    1159:	01 00                	add    %eax,(%eax)
    115b:	00 8d 18 c0 00 00    	add    %cl,0xc018(%ebp)
    1161:	00 48 01             	add    %cl,0x1(%eax)
    1164:	98                   	cwtl   
    1165:	03 00                	add    (%eax),%eax
    1167:	00 8e 18 c0 00 00    	add    %cl,0xc018(%esi)
    116d:	00 4c 01 28          	add    %cl,0x28(%ecx,%eax,1)
    1171:	02 00                	add    (%eax),%al
    1173:	00 8f 18 b4 00 00    	add    %cl,0xb418(%edi)
    1179:	00 50 01             	add    %dl,0x1(%eax)
    117c:	8a 04 00             	mov    (%eax,%eax,1),%al
    117f:	00 90 18 b4 00 00    	add    %dl,0xb418(%eax)
    1185:	00 52 01             	add    %dl,0x1(%edx)
    1188:	16                   	push   %ss
    1189:	02 00                	add    (%eax),%al
    118b:	00 91 18 b4 00 00    	add    %dl,0xb418(%ecx)
    1191:	00 54 01 42          	add    %dl,0x42(%ecx,%eax,1)
    1195:	04 00                	add    $0x0,%al
    1197:	00 92 18 b4 00 00    	add    %dl,0xb418(%edx)
    119d:	00 56 01             	add    %dl,0x1(%esi)
    11a0:	1b 00                	sbb    (%eax),%eax
    11a2:	00 00                	add    %al,(%eax)
    11a4:	94                   	xchg   %eax,%esp
    11a5:	18 cc                	sbb    %cl,%ah
    11a7:	00 00                	add    %al,(%eax)
    11a9:	00 58 01             	add    %bl,0x1(%eax)
    11ac:	58                   	pop    %eax
    11ad:	03 00                	add    (%eax),%eax
    11af:	00 95 18 c0 00 00    	add    %dl,0xc018(%ebp)
    11b5:	00 60 01             	add    %ah,0x1(%eax)
    11b8:	48                   	dec    %eax
    11b9:	02 00                	add    (%eax),%al
    11bb:	00 96 18 c0 00 00    	add    %dl,0xc018(%esi)
    11c1:	00 64 01 2f          	add    %ah,0x2f(%ecx,%eax,1)
    11c5:	04 00                	add    $0x0,%al
    11c7:	00 97 18 c0 00 00    	add    %dl,0xc018(%edi)
    11cd:	00 68 01             	add    %ch,0x1(%eax)
    11d0:	49                   	dec    %ecx
    11d1:	01 00                	add    %eax,(%eax)
    11d3:	00 98 17 a8 00 00    	add    %bl,0xa817(%eax)
    11d9:	00 6c 01 6a          	add    %ch,0x6a(%ecx,%eax,1)
    11dd:	03 00                	add    (%eax),%eax
    11df:	00 9c 17 a8 00 00 00 	add    %bl,0xa8(%edi,%edx,1)
    11e6:	6d                   	insl   (%dx),%es:(%edi)
    11e7:	19 f6                	sbb    %esi,%esi
    11e9:	01 00                	add    %eax,(%eax)
    11eb:	00 70 00             	add    %dh,0x0(%eax)
    11ee:	04 10                	add    $0x10,%al
    11f0:	04 00                	add    $0x0,%al
    11f2:	00 06                	add    %al,(%esi)
    11f4:	af                   	scas   %es:(%edi),%eax
    11f5:	1f                   	pop    %ds
    11f6:	08 02                	or     %al,(%edx)
    11f8:	00 00                	add    %al,(%eax)
    11fa:	08 bf 06 00 00 18    	or     %bh,0x18000006(%edi)
    1200:	b8 bc 03 00 00       	mov    $0x3bc,%eax
    1205:	01 b8 01 00 00 ba    	add    %edi,-0x45ffffff(%eax)
    120b:	18 c0                	sbb    %al,%al
    120d:	00 00                	add    %al,(%eax)
    120f:	00 00                	add    %al,(%eax)
    1211:	01 77 06             	add    %esi,0x6(%edi)
    1214:	00 00                	add    %al,(%eax)
    1216:	bb 18 c0 00 00       	mov    $0xc018,%ebx
    121b:	00 04 01             	add    %al,(%ecx,%eax,1)
    121e:	65 06                	gs push %es
    1220:	00 00                	add    %al,(%eax)
    1222:	bc 18 c0 00 00       	mov    $0xc018,%esp
    1227:	00 08                	add    %cl,(%eax)
    1229:	01 6f 06             	add    %ebp,0x6(%edi)
    122c:	00 00                	add    %al,(%eax)
    122e:	bd 18 c0 00 00       	mov    $0xc018,%ebp
    1233:	00 0c 01             	add    %cl,(%ecx,%eax,1)
    1236:	98                   	cwtl   
    1237:	06                   	push   %es
    1238:	00 00                	add    %al,(%eax)
    123a:	be 18 c0 00 00       	mov    $0xc018,%esi
    123f:	00 10                	add    %dl,(%eax)
    1241:	01 76 03             	add    %esi,0x3(%esi)
    1244:	00 00                	add    %al,(%eax)
    1246:	c4 18                	les    (%eax),%ebx
    1248:	c0 00 00             	rolb   $0x0,(%eax)
    124b:	00 14 00             	add    %dl,(%eax,%eax,1)
    124e:	04 62                	add    $0x62,%al
    1250:	07                   	pop    %es
    1251:	00 00                	add    %al,(%eax)
    1253:	06                   	push   %es
    1254:	c7                   	(bad)  
    1255:	25 68 03 00 00       	and    $0x368,%eax
    125a:	05 01 06 df 01       	add    $0x1df0601,%eax
    125f:	00 00                	add    %al,(%eax)
    1261:	0a bd 01 00 00 12    	or     0x12000001(%ebp),%bh
    1267:	42                   	inc    %edx
    1268:	00 00                	add    %al,(%eax)
    126a:	00 0a                	add    %cl,(%edx)
    126c:	eb 00                	jmp    126e <start_-0xfed9e>
    126e:	00 00                	add    %al,(%eax)
    1270:	13 42 00             	adc    0x0(%edx),%eax
    1273:	00 00                	add    %al,(%eax)
    1275:	0a e4                	or     %ah,%ah
    1277:	01 00                	add    %eax,(%eax)
    1279:	00 14 42             	add    %dl,(%edx,%eax,2)
    127c:	00 00                	add    %al,(%eax)
    127e:	00 0b                	add    %cl,(%ebx)
    1280:	5a                   	pop    %edx
    1281:	07                   	pop    %es
    1282:	00 00                	add    %al,(%eax)
    1284:	3a 01                	cmp    (%ecx),%al
    1286:	04 00                	add    $0x0,%al
    1288:	00 01                	add    %al,(%ecx)
    128a:	04 00                	add    $0x0,%al
    128c:	00 03                	add    %al,(%ebx)
    128e:	01 04 00             	add    %eax,(%eax,%eax,1)
    1291:	00 00                	add    %al,(%eax)
    1293:	1a 04 06             	sbb    (%esi,%eax,1),%al
    1296:	7d 05                	jge    129d <start_-0xfed6f>
    1298:	00 00                	add    %al,(%eax)
    129a:	07                   	pop    %es
    129b:	22 06                	and    (%esi),%al
    129d:	15 04 00 00 03       	adc    $0x3000004,%eax
    12a2:	15 04 00 00 00       	adc    $0x4,%eax
    12a7:	0c c8                	or     $0xc8,%al
    12a9:	03 00                	add    (%eax),%eax
    12ab:	00 06                	add    %al,(%esi)
    12ad:	80 06 00             	addb   $0x0,(%esi)
    12b0:	00 08                	add    %cl,(%eax)
    12b2:	2f                   	das    
    12b3:	06                   	push   %es
    12b4:	2c 04                	sub    $0x4,%al
    12b6:	00 00                	add    %al,(%eax)
    12b8:	03 01                	add    (%ecx),%eax
    12ba:	04 00                	add    $0x0,%al
    12bc:	00 00                	add    %al,(%eax)
    12be:	0b 41 06             	or     0x6(%ecx),%eax
    12c1:	00 00                	add    %al,(%eax)
    12c3:	28 01                	sub    %al,(%ecx)
    12c5:	04 00                	add    $0x0,%al
    12c7:	00 4a 04             	add    %cl,0x4(%edx)
    12ca:	00 00                	add    %al,(%eax)
    12cc:	03 01                	add    (%ecx),%eax
    12ce:	04 00                	add    $0x0,%al
    12d0:	00 03                	add    %al,(%ebx)
    12d2:	90                   	nop
    12d3:	00 00                	add    %al,(%eax)
    12d5:	00 03                	add    %al,(%ebx)
    12d7:	90                   	nop
    12d8:	00 00                	add    %al,(%eax)
    12da:	00 00                	add    %al,(%eax)
    12dc:	06                   	push   %es
    12dd:	3e 07                	ds pop %es
    12df:	00 00                	add    %al,(%eax)
    12e1:	03 1a                	add    (%edx),%ebx
    12e3:	01 5c 04 00          	add    %ebx,0x0(%esp,%eax,1)
    12e7:	00 03                	add    %al,(%ebx)
    12e9:	01 04 00             	add    %eax,(%eax,%eax,1)
    12ec:	00 00                	add    %al,(%eax)
    12ee:	0b b2 06 00 00 20    	or     0x20000006(%edx),%esi
    12f4:	01 04 00             	add    %eax,(%eax,%eax,1)
    12f7:	00 7f 04             	add    %bh,0x4(%edi)
    12fa:	00 00                	add    %al,(%eax)
    12fc:	03 01                	add    (%ecx),%eax
    12fe:	04 00                	add    $0x0,%al
    1300:	00 03                	add    %al,(%ebx)
    1302:	01 04 00             	add    %eax,(%eax,%eax,1)
    1305:	00 03                	add    %al,(%ebx)
    1307:	90                   	nop
    1308:	00 00                	add    %al,(%eax)
    130a:	00 03                	add    %al,(%ebx)
    130c:	90                   	nop
    130d:	00 00                	add    %al,(%eax)
    130f:	00 00                	add    %al,(%eax)
    1311:	06                   	push   %es
    1312:	e0 06                	loopne 131a <start_-0xfecf2>
    1314:	00 00                	add    %al,(%eax)
    1316:	09 27                	or     %esp,(%edi)
    1318:	06                   	push   %es
    1319:	96                   	xchg   %eax,%esi
    131a:	04 00                	add    $0x0,%al
    131c:	00 03                	add    %al,(%ebx)
    131e:	78 00                	js     1320 <start_-0xfecec>
    1320:	00 00                	add    %al,(%eax)
    1322:	03 9c 00 00 00 00 06 	add    0x6000000(%eax,%eax,1),%ebx
    1329:	2a 07                	sub    (%edi),%al
    132b:	00 00                	add    %al,(%eax)
    132d:	09 1f                	or     %ebx,(%edi)
    132f:	06                   	push   %es
    1330:	ad                   	lods   %ds:(%esi),%eax
    1331:	04 00                	add    $0x0,%al
    1333:	00 03                	add    %al,(%ebx)
    1335:	78 00                	js     1337 <start_-0xfecd5>
    1337:	00 00                	add    %al,(%eax)
    1339:	03 9c 00 00 00 00 06 	add    0x6000000(%eax,%eax,1),%ebx
    1340:	bd 09 00 00 0a       	mov    $0xa000009,%ebp
    1345:	0a 06                	or     (%esi),%al
    1347:	c0 04 00 00          	rolb   $0x0,(%eax,%eax,1)
    134b:	03 15 04 00 00 0d    	add    0xd000004,%edx
    1351:	00 06                	add    %al,(%esi)
    1353:	50                   	push   %eax
    1354:	06                   	push   %es
    1355:	00 00                	add    %al,(%eax)
    1357:	03 1d 01 d7 04 00    	add    0x4d701,%ebx
    135d:	00 03                	add    %al,(%ebx)
    135f:	84 00                	test   %al,(%eax)
    1361:	00 00                	add    %al,(%eax)
    1363:	03 84 00 00 00 00 06 	add    0x6000000(%eax,%eax,1),%eax
    136a:	a1 06 00 00 03       	mov    0x3000006,%eax
    136f:	17                   	pop    %ss
    1370:	01 e9                	add    %ebp,%ecx
    1372:	04 00                	add    $0x0,%al
    1374:	00 03                	add    %al,(%ebx)
    1376:	01 04 00             	add    %eax,(%eax,%eax,1)
    1379:	00 00                	add    %al,(%eax)
    137b:	14 f8                	adc    $0xf8,%al
    137d:	06                   	push   %es
    137e:	00 00                	add    %al,(%eax)
    1380:	08 0c 06             	or     %cl,(%esi,%eax,1)
    1383:	f7 04 00 00 0d 00 06 	testl  $0x6000d00,(%eax,%eax,1)
    138a:	8f 06                	pop    (%esi)
    138c:	00 00                	add    %al,(%eax)
    138e:	09 35 06 09 05 00    	or     %esi,0x50906
    1394:	00 03                	add    %al,(%ebx)
    1396:	78 00                	js     1398 <start_-0xfec74>
    1398:	00 00                	add    %al,(%eax)
    139a:	00 14 db             	add    %dl,(%ebx,%ebx,8)
    139d:	05 00 00 0b 06       	add    $0x60b0000,%eax
    13a2:	01 17                	add    %edx,(%edi)
    13a4:	05 00 00 0d 00       	add    $0xd0000,%eax
    13a9:	15 4d 07 00 00       	adc    $0x74d,%eax
    13ae:	78 87                	js     1337 <start_-0xfecd5>
    13b0:	64 10 c0             	fs adc %al,%al
    13b3:	51                   	push   %ecx
    13b4:	00 00                	add    %al,(%eax)
    13b6:	00 01                	add    %al,(%ecx)
    13b8:	9c                   	pushf  
    13b9:	7c 05                	jl     13c0 <start_-0xfec4c>
    13bb:	00 00                	add    %al,(%eax)
    13bd:	1b 62 75             	sbb    0x75(%edx),%esp
    13c0:	66 00 01             	data16 add %al,(%ecx)
    13c3:	7a 0a                	jp     13cf <start_-0xfec3d>
    13c5:	7c 05                	jl     13cc <start_-0xfec40>
    13c7:	00 00                	add    %al,(%eax)
    13c9:	03 91 b0 7f 09 8a    	add    -0x75f68050(%ecx),%edx
    13cf:	07                   	pop    %es
    13d0:	00 00                	add    %al,(%eax)
    13d2:	82 0b 01             	orb    $0x1,(%ebx)
    13d5:	04 00                	add    $0x0,%al
    13d7:	00 d8                	add    %bl,%al
    13d9:	04 00                	add    $0x0,%al
    13db:	00 d6                	add    %dl,%dh
    13dd:	04 00                	add    $0x0,%al
    13df:	00 02                	add    %al,(%edx)
    13e1:	98                   	cwtl   
    13e2:	64 10 c0             	fs adc %al,%al
    13e5:	ad                   	lods   %ds:(%esi),%eax
    13e6:	04 00                	add    $0x0,%al
    13e8:	00 02                	add    %al,(%edx)
    13ea:	a3 64 10 c0 03       	mov    %eax,0x3c01064
    13ef:	04 00                	add    $0x0,%al
    13f1:	00 02                	add    %al,(%edx)
    13f3:	b1 64                	mov    $0x64,%cl
    13f5:	10 c0                	adc    %al,%al
    13f7:	ad                   	lods   %ds:(%esi),%eax
    13f8:	04 00                	add    $0x0,%al
    13fa:	00 02                	add    %al,(%edx)
    13fc:	bd 64 10 c0 ed       	mov    $0xedc01064,%ebp
    1401:	03 00                	add    (%eax),%eax
    1403:	00 02                	add    %al,(%edx)
    1405:	d0 64 10 c0          	shlb   -0x40(%eax,%edx,1)
    1409:	ad                   	lods   %ds:(%esi),%eax
    140a:	04 00                	add    $0x0,%al
    140c:	00 00                	add    %al,(%eax)
    140e:	1c c8                	sbb    $0xc8,%al
    1410:	03 00                	add    (%eax),%eax
    1412:	00 8c 05 00 00 1d 5c 	add    %cl,0x5c1d0000(%ebp,%eax,1)
    1419:	00 00                	add    %al,(%eax)
    141b:	00 3f                	add    %bh,(%edi)
    141d:	00 15 18 07 00 00    	add    %dl,0x718
    1423:	6b 26 64             	imul   $0x64,(%esi),%esp
    1426:	10 c0                	adc    %al,%al
    1428:	61                   	popa   
    1429:	00 00                	add    %al,(%eax)
    142b:	00 01                	add    %al,(%ecx)
    142d:	9c                   	pushf  
    142e:	f7 05 00 00 09 06 07 	testl  $0x6d000007,0x6090000
    1435:	00 00 6d 
    1438:	0c 9c                	or     $0x9c,%al
    143a:	00 00                	add    %al,(%eax)
    143c:	00 e2                	add    %ah,%dl
    143e:	04 00                	add    $0x0,%al
    1440:	00 e0                	add    %ah,%al
    1442:	04 00                	add    $0x0,%al
    1444:	00 0e                	add    %cl,(%esi)
    1446:	4e                   	dec    %esi
    1447:	64 10 c0             	fs adc %al,%al
    144a:	22 00                	and    (%eax),%al
    144c:	00 00                	add    %al,(%eax)
    144e:	db 05 00 00 07 69    	fildl  0x69070000
    1454:	00 71 11             	add    %dh,0x11(%ecx)
    1457:	9c                   	pushf  
    1458:	00 00                	add    %al,(%eax)
    145a:	00 ee                	add    %ch,%dh
    145c:	04 00                	add    $0x0,%al
    145e:	00 ea                	add    %ch,%dl
    1460:	04 00                	add    $0x0,%al
    1462:	00 02                	add    %al,(%edx)
    1464:	66 64 10 c0          	data16 fs adc %al,%al
    1468:	1a 04 00             	sbb    (%eax,%eax,1),%al
    146b:	00 00                	add    %al,(%eax)
    146d:	02 38                	add    (%eax),%bh
    146f:	64 10 c0             	fs adc %al,%al
    1472:	ad                   	lods   %ds:(%esi),%eax
    1473:	04 00                	add    $0x0,%al
    1475:	00 02                	add    %al,(%edx)
    1477:	4e                   	dec    %esi
    1478:	64 10 c0             	fs adc %al,%al
    147b:	ad                   	lods   %ds:(%esi),%eax
    147c:	04 00                	add    $0x0,%al
    147e:	00 02                	add    %al,(%edx)
    1480:	7d 64                	jge    14e6 <start_-0xfeb26>
    1482:	10 c0                	adc    %al,%al
    1484:	ad                   	lods   %ds:(%esi),%eax
    1485:	04 00                	add    $0x0,%al
    1487:	00 00                	add    %al,(%eax)
    1489:	1e                   	push   %ds
    148a:	34 06                	xor    $0x6,%al
    148c:	00 00                	add    %al,(%eax)
    148e:	01 17                	add    %edx,(%edi)
    1490:	01 26                	add    %esp,(%esi)
    1492:	62 10                	bound  %edx,(%eax)
    1494:	c0 00 02             	rolb   $0x2,(%eax)
    1497:	00 00                	add    %al,(%eax)
    1499:	01 9c 9c 07 00 00 1f 	add    %ebx,0x1f000007(%esp,%ebx,4)
    14a0:	aa                   	stos   %al,%es:(%edi)
    14a1:	06                   	push   %es
    14a2:	00 00                	add    %al,(%eax)
    14a4:	01 17                	add    %edx,(%edi)
    14a6:	20 9c 07 00 00 02 91 	and    %bl,-0x6efe0000(%edi,%eax,1)
    14ad:	00 07                	add    %al,(%edi)
    14af:	6d                   	insl   (%dx),%es:(%edi)
    14b0:	61                   	popa   
    14b1:	70 00                	jo     14b3 <start_-0xfeb59>
    14b3:	1b 1d a1 07 00 00    	sbb    0x7a1,%ebx
    14b9:	06                   	push   %es
    14ba:	05 00 00 fe 04       	add    $0x4fe0000,%eax
    14bf:	00 00                	add    %al,(%eax)
    14c1:	09 81 07 00 00 2f    	or     %eax,0x2f000007(%ecx)
    14c7:	12 71 00             	adc    0x0(%ecx),%dh
    14ca:	00 00                	add    %al,(%eax)
    14cc:	29 05 00 00 23 05    	sub    %eax,0x5230000
    14d2:	00 00                	add    %al,(%eax)
    14d4:	09 0f                	or     %ecx,(%edi)
    14d6:	07                   	pop    %es
    14d7:	00 00                	add    %al,(%eax)
    14d9:	48                   	dec    %eax
    14da:	0c 9c                	or     $0x9c,%al
    14dc:	00 00                	add    %al,(%eax)
    14de:	00 41 05             	add    %al,0x5(%ecx)
    14e1:	00 00                	add    %al,(%eax)
    14e3:	3f                   	aas    
    14e4:	05 00 00 20 d4       	add    $0xd4200000,%eax
    14e9:	06                   	push   %es
    14ea:	00 00                	add    %al,(%eax)
    14ec:	01 4d 0c             	add    %ecx,0xc(%ebp)
    14ef:	9c                   	pushf  
    14f0:	00 00                	add    %al,(%eax)
    14f2:	00 01                	add    %al,(%ecx)
    14f4:	0e                   	push   %cs
    14f5:	9d                   	popf   
    14f6:	62 10                	bound  %edx,(%eax)
    14f8:	c0 a1 00 00 00 d5 06 	shlb   $0x6,-0x2b000000(%ecx)
    14ff:	00 00                	add    %al,(%eax)
    1501:	07                   	pop    %es
    1502:	69 00 37 17 71 00    	imul   $0x711737,(%eax),%eax
    1508:	00 00                	add    %al,(%eax)
    150a:	4d                   	dec    %ebp
    150b:	05 00 00 49 05       	add    $0x5490000,%eax
    1510:	00 00                	add    %al,(%eax)
    1512:	21 b3 62 10 c0 8b    	and    %esi,-0x743fef9e(%ebx)
    1518:	00 00                	add    %al,(%eax)
    151a:	00 22                	add    %ah,(%edx)
    151c:	01 07                	add    %eax,(%edi)
    151e:	00 00                	add    %al,(%eax)
    1520:	01 38                	add    %edi,(%eax)
    1522:	20 bc 03 00 00 02 91 	and    %bh,-0x6efe0000(%ebx,%eax,1)
    1529:	48                   	dec    %eax
    152a:	0e                   	push   %cs
    152b:	fd                   	std    
    152c:	62 10                	bound  %edx,(%eax)
    152e:	c0 41 00 00          	rolb   $0x0,0x0(%ecx)
    1532:	00 ca                	add    %cl,%dl
    1534:	06                   	push   %es
    1535:	00 00                	add    %al,(%eax)
    1537:	07                   	pop    %es
    1538:	70 67                	jo     15a1 <start_-0xfea6b>
    153a:	00 3f                	add    %bh,(%edi)
    153c:	17                   	pop    %ss
    153d:	78 00                	js     153f <start_-0xfeacd>
    153f:	00 00                	add    %al,(%eax)
    1541:	5e                   	pop    %esi
    1542:	05 00 00 5c 05       	add    $0x55c0000,%eax
    1547:	00 00                	add    %al,(%eax)
    1549:	02 1b                	add    (%ebx),%bl
    154b:	63 10                	arpl   %dx,(%eax)
    154d:	c0 96 04 00 00 02 36 	rclb   $0x36,0x2000004(%esi)
    1554:	63 10                	arpl   %dx,(%eax)
    1556:	c0 ad 04 00 00 00 02 	shrb   $0x2,0x4(%ebp)
    155d:	f5                   	cmc    
    155e:	62 10                	bound  %edx,(%eax)
    1560:	c0 ad 04 00 00 00 00 	shrb   $0x0,0x4(%ebp)
    1567:	16                   	push   %ss
    1568:	2a 00                	sub    (%eax),%al
    156a:	00 00                	add    %al,(%eax)
    156c:	f9                   	stc    
    156d:	06                   	push   %es
    156e:	00 00                	add    %al,(%eax)
    1570:	07                   	pop    %es
    1571:	69 00 53 11 9c 00    	imul   $0x9c1153,(%eax),%eax
    1577:	00 00                	add    %al,(%eax)
    1579:	6c                   	insb   (%dx),%es:(%edi)
    157a:	05 00 00 66 05       	add    $0x5660000,%eax
    157f:	00 00                	add    %al,(%eax)
    1581:	02 cb                	add    %bl,%cl
    1583:	63 10                	arpl   %dx,(%eax)
    1585:	c0 5c 04 00 00       	rcrb   $0x0,0x0(%esp,%eax,1)
    158a:	00 16                	add    %dl,(%esi)
    158c:	35 00 00 00 1d       	xor    $0x1d000000,%eax
    1591:	07                   	pop    %es
    1592:	00 00                	add    %al,(%eax)
    1594:	07                   	pop    %es
    1595:	69 00 62 11 9c 00    	imul   $0x9c1162,(%eax),%eax
    159b:	00 00                	add    %al,(%eax)
    159d:	87 05 00 00 83 05    	xchg   %eax,0x5830000
    15a3:	00 00                	add    %al,(%eax)
    15a5:	02 ea                	add    %dl,%ch
    15a7:	63 10                	arpl   %dx,(%eax)
    15a9:	c0 2c 04 00          	shrb   $0x0,(%esp,%eax,1)
    15ad:	00 00                	add    %al,(%eax)
    15af:	02 37                	add    (%edi),%dh
    15b1:	62 10                	bound  %edx,(%eax)
    15b3:	c0 09 05             	rorb   $0x5,(%ecx)
    15b6:	00 00                	add    %al,(%eax)
    15b8:	02 51 62             	add    0x62(%ecx),%dl
    15bb:	10 c0                	adc    %al,%al
    15bd:	f7 04 00 00 02 56 62 	testl  $0x62560200,(%eax,%eax,1)
    15c4:	10 c0                	adc    %al,%al
    15c6:	e9 04 00 00 02       	jmp    20015cf <__init_hhk_end+0x1efb5cf>
    15cb:	62 62 10             	bound  %esp,0x10(%edx)
    15ce:	c0 d7 04             	rcl    $0x4,%bh
    15d1:	00 00                	add    %al,(%eax)
    15d3:	02 6e 62             	add    0x62(%esi),%ch
    15d6:	10 c0                	adc    %al,%al
    15d8:	c0 04 00 00          	rolb   $0x0,(%eax,%eax,1)
    15dc:	02 7a 62             	add    0x62(%edx),%bh
    15df:	10 c0                	adc    %al,%al
    15e1:	ad                   	lods   %ds:(%esi),%eax
    15e2:	04 00                	add    $0x0,%al
    15e4:	00 02                	add    %al,(%edx)
    15e6:	9d                   	popf   
    15e7:	62 10                	bound  %edx,(%eax)
    15e9:	c0 ad 04 00 00 02 5e 	shrb   $0x5e,0x2000004(%ebp)
    15f0:	63 10                	arpl   %dx,(%eax)
    15f2:	c0 7f 04 00          	sarb   $0x0,0x4(%edi)
    15f6:	00 02                	add    %al,(%edx)
    15f8:	6c                   	insb   (%dx),%es:(%edi)
    15f9:	63 10                	arpl   %dx,(%eax)
    15fb:	c0 ad 04 00 00 02 7b 	shrb   $0x7b,0x2000004(%ebp)
    1602:	63 10                	arpl   %dx,(%eax)
    1604:	c0 7f 04 00          	sarb   $0x0,0x4(%edi)
    1608:	00 02                	add    %al,(%edx)
    160a:	94                   	xchg   %eax,%esp
    160b:	63 10                	arpl   %dx,(%eax)
    160d:	c0 4a 04 00          	rorb   $0x0,0x4(%edx)
    1611:	00 02                	add    %al,(%edx)
    1613:	a6                   	cmpsb  %es:(%edi),%ds:(%esi)
    1614:	63 10                	arpl   %dx,(%eax)
    1616:	c0 ad 04 00 00 02 0f 	shrb   $0xf,0x2000004(%ebp)
    161d:	64 10 c0             	fs adc %al,%al
    1620:	ad                   	lods   %ds:(%esi),%eax
    1621:	04 00                	add    $0x0,%al
    1623:	00 02                	add    %al,(%edx)
    1625:	1b 64 10 c0          	sbb    -0x40(%eax,%edx,1),%esp
    1629:	ad                   	lods   %ds:(%esi),%eax
    162a:	04 00                	add    $0x0,%al
    162c:	00 00                	add    %al,(%eax)
    162e:	0c 5c                	or     $0x5c,%al
    1630:	03 00                	add    (%eax),%eax
    1632:	00 0c bc             	add    %cl,(%esp,%edi,4)
    1635:	03 00                	add    (%eax),%eax
    1637:	00 00                	add    %al,(%eax)
    1639:	cc                   	int3   
    163a:	03 00                	add    (%eax),%eax
    163c:	00 05 00 01 04 36    	add    %al,0x36040100
    1642:	08 00                	or     %al,(%eax)
    1644:	00 0c 5a             	add    %cl,(%edx,%ebx,2)
    1647:	02 00                	add    (%eax),%al
    1649:	00 0c dc             	add    %cl,(%esp,%ebx,8)
    164c:	01 00                	add    %eax,(%eax)
    164e:	00 00                	add    %al,(%eax)
    1650:	00 00                	add    %al,(%eax)
    1652:	00 d8                	add    %bl,%al
    1654:	64 10 c0             	fs adc %al,%al
    1657:	b9 02 00 00 a6       	mov    $0xa6000002,%ecx
    165c:	08 00                	or     %al,(%eax)
    165e:	00 02                	add    %al,(%edx)
    1660:	01 06                	add    %eax,(%esi)
    1662:	d8 01                	fadds  (%ecx)
    1664:	00 00                	add    %al,(%eax)
    1666:	02 02                	add    (%edx),%al
    1668:	05 77 00 00 00       	add    $0x77,%eax
    166d:	02 04 05 5e 01 00 00 	add    0x15e(,%eax,1),%al
    1674:	02 08                	add    (%eax),%cl
    1676:	05 59 01 00 00       	add    $0x159,%eax
    167b:	05 69 04 00 00       	add    $0x469,%eax
    1680:	02 2e                	add    (%esi),%ch
    1682:	18 4e 00             	sbb    %cl,0x0(%esi)
    1685:	00 00                	add    %al,(%eax)
    1687:	02 01                	add    (%ecx),%al
    1689:	08 d6                	or     %dl,%dh
    168b:	01 00                	add    %eax,(%eax)
    168d:	00 02                	add    %al,(%edx)
    168f:	02 07                	add    (%edi),%al
    1691:	d4 02                	aam    $0x2
    1693:	00 00                	add    %al,(%eax)
    1695:	05 6e 00 00 00       	add    $0x6e,%eax
    169a:	02 34 19             	add    (%ecx,%ebx,1),%dh
    169d:	68 00 00 00 02       	push   $0x2000000
    16a2:	04 07                	add    $0x7,%al
    16a4:	36 02 00             	add    %ss:(%eax),%al
    16a7:	00 02                	add    %al,(%edx)
    16a9:	08 07                	or     %al,(%edi)
    16ab:	31 02                	xor    %eax,(%edx)
    16ad:	00 00                	add    %al,(%eax)
    16af:	0d 04 05 69 6e       	or     $0x6e690504,%eax
    16b4:	74 00                	je     16b6 <start_-0xfe956>
    16b6:	02 04 07             	add    (%edi,%eax,1),%al
    16b9:	3b 02                	cmp    (%edx),%eax
    16bb:	00 00                	add    %al,(%eax)
    16bd:	05 00 01 00 00       	add    $0x100,%eax
    16c2:	02 56 1a             	add    0x1a(%esi),%dl
    16c5:	68 00 00 00 05       	push   $0x5000000
    16ca:	5e                   	pop    %esi
    16cb:	06                   	push   %es
    16cc:	00 00                	add    %al,(%eax)
    16ce:	03 d1                	add    %ecx,%edx
    16d0:	17                   	pop    %ss
    16d1:	68 00 00 00 0e       	push   $0xe000000
    16d6:	42                   	inc    %edx
    16d7:	00 00                	add    %al,(%eax)
    16d9:	00 af 00 00 00 0f    	add    %ch,0xf000000(%edi)
    16df:	68 00 00 00 ff       	push   $0xff000000
    16e4:	ff 01                	incl   (%ecx)
    16e6:	00 00                	add    %al,(%eax)
    16e8:	07                   	pop    %es
    16e9:	a0 07 00 00 10       	mov    0x10000007,%al
    16ee:	09 9c 00 00 00 05 03 	or     %ebx,0x3050000(%eax,%eax,1)
    16f5:	60                   	pusha  
    16f6:	81 10 c0 07 0e 08    	adcl   $0x80e07c0,(%eax)
    16fc:	00 00                	add    %al,(%eax)
    16fe:	12 0b                	adc    (%ebx),%cl
    1700:	84 00                	test   %al,(%eax)
    1702:	00 00                	add    %al,(%eax)
    1704:	05 03 44 81 10       	add    $0x10814403,%eax
    1709:	c0 07 15             	rolb   $0x15,(%edi)
    170c:	08 00                	or     %al,(%eax)
    170e:	00 4d 08             	add    %cl,0x8(%ebp)
    1711:	90                   	nop
    1712:	00 00                	add    %al,(%eax)
    1714:	00 05 03 40 81 10    	add    %al,0x10814003
    171a:	c0 10 f5             	rclb   $0xf5,(%eax)
    171d:	07                   	pop    %es
    171e:	00 00                	add    %al,(%eax)
    1720:	01 81 01 76 00 00    	add    %eax,0x7601(%ecx)
    1726:	00 5a 67             	add    %bl,0x67(%edx)
    1729:	10 c0                	adc    %al,%al
    172b:	37                   	aaa    
    172c:	00 00                	add    %al,(%eax)
    172e:	00 01                	add    %al,(%ecx)
    1730:	9c                   	pushf  
    1731:	26 01 00             	add    %eax,%es:(%eax)
    1734:	00 04 2d 08 00 00 81 	add    %al,-0x7efffff8(,%ebp,1)
    173b:	15 26 01 00 00       	adc    $0x126,%eax
    1740:	02 91 00 03 70 67    	add    0x67700300(%ecx),%dl
    1746:	00 84 0e 5c 00 00 00 	add    %al,0x5c(%esi,%ecx,1)
    174d:	b1 05                	mov    $0x5,%cl
    174f:	00 00                	add    %al,(%eax)
    1751:	a3 05 00 00 08       	mov    %eax,0x8000005
    1756:	80 67 10 c0          	andb   $0xc0,0x10(%edi)
    175a:	88 03                	mov    %al,(%ebx)
    175c:	00 00                	add    %al,(%eax)
    175e:	00 11                	add    %dl,(%ecx)
    1760:	04 12                	add    $0x12,%al
    1762:	23 08                	and    (%eax),%ecx
    1764:	00 00                	add    %al,(%eax)
    1766:	01 5d 01             	add    %ebx,0x1(%ebp)
    1769:	26 01 00             	add    %eax,%es:(%eax)
    176c:	00 ae 66 10 c0 ac    	add    %ch,-0x533fef9a(%esi)
    1772:	00 00                	add    %al,(%eax)
    1774:	00 01                	add    %al,(%ecx)
    1776:	9c                   	pushf  
    1777:	b3 01                	mov    $0x1,%bl
    1779:	00 00                	add    %al,(%eax)
    177b:	01 aa 07 00 00 60    	add    %ebp,0x60000007(%edx)
    1781:	0f 84 00 00 00 ff    	je     ff001787 <__heap_start+0x3eed0787>
    1787:	05 00 00 f7 05       	add    $0x5f70000,%eax
    178c:	00 00                	add    %al,(%eax)
    178e:	01 48 08             	add    %ecx,0x8(%eax)
    1791:	00 00                	add    %al,(%eax)
    1793:	61                   	popa   
    1794:	0c 90                	or     $0x90,%al
    1796:	00 00                	add    %al,(%eax)
    1798:	00 27                	add    %ah,(%edi)
    179a:	06                   	push   %es
    179b:	00 00                	add    %al,(%eax)
    179d:	1d 06 00 00 01       	sbb    $0x1000006,%eax
    17a2:	be 07 00 00 62       	mov    $0x62000007,%esi
    17a7:	0c 90                	or     $0x90,%al
    17a9:	00 00                	add    %al,(%eax)
    17ab:	00 57 06             	add    %dl,0x6(%edi)
    17ae:	00 00                	add    %al,(%eax)
    17b0:	4f                   	dec    %edi
    17b1:	06                   	push   %es
    17b2:	00 00                	add    %al,(%eax)
    17b4:	01 d2                	add    %edx,%edx
    17b6:	07                   	pop    %es
    17b7:	00 00                	add    %al,(%eax)
    17b9:	63 0d 42 00 00 00    	arpl   %cx,0x42
    17bf:	7f 06                	jg     17c7 <start_-0xfe845>
    17c1:	00 00                	add    %al,(%eax)
    17c3:	75 06                	jne    17cb <start_-0xfe841>
    17c5:	00 00                	add    %al,(%eax)
    17c7:	09 cc                	or     %ecx,%esp
    17c9:	66 10 c0             	data16 adc %al,%al
    17cc:	3c 00                	cmp    $0x0,%al
    17ce:	00 00                	add    %al,(%eax)
    17d0:	03 69 00             	add    0x0(%ecx),%ebp
    17d3:	69 19 90 00 00 00    	imul   $0x90,(%ecx),%ebx
    17d9:	af                   	scas   %es:(%edi),%eax
    17da:	06                   	push   %es
    17db:	00 00                	add    %al,(%eax)
    17dd:	ad                   	lods   %ds:(%esi),%eax
    17de:	06                   	push   %es
    17df:	00 00                	add    %al,(%eax)
    17e1:	08 fc                	or     %bh,%ah
    17e3:	66 10 c0             	data16 adc %al,%al
    17e6:	3f                   	aas    
    17e7:	03 00                	add    (%eax),%eax
    17e9:	00 00                	add    %al,(%eax)
    17eb:	00 06                	add    %al,(%esi)
    17ed:	8f 06                	pop    (%esi)
    17ef:	00 00                	add    %al,(%eax)
    17f1:	50                   	push   %eax
    17f2:	7c 66                	jl     185a <start_-0xfe7b2>
    17f4:	10 c0                	adc    %al,%al
    17f6:	32 00                	xor    (%eax),%al
    17f8:	00 00                	add    %al,(%eax)
    17fa:	01 9c f1 01 00 00 04 	add    %ebx,0x4000001(%ecx,%esi,8)
    1801:	ba 07 00 00 50       	mov    $0x50000007,%edx
    1806:	14 84                	adc    $0x84,%al
    1808:	00 00                	add    %al,(%eax)
    180a:	00 02                	add    %al,(%edx)
    180c:	91                   	xchg   %eax,%ecx
    180d:	00 09                	add    %cl,(%ecx)
    180f:	94                   	xchg   %eax,%esp
    1810:	66 10 c0             	data16 adc %al,%al
    1813:	18 00                	sbb    %al,(%eax)
    1815:	00 00                	add    %al,(%eax)
    1817:	03 69 00             	add    0x0(%ecx),%ebp
    181a:	57                   	push   %edi
    181b:	11 90 00 00 00 bb    	adc    %edx,-0x45000000(%eax)
    1821:	06                   	push   %es
    1822:	00 00                	add    %al,(%eax)
    1824:	b7 06                	mov    $0x6,%bh
    1826:	00 00                	add    %al,(%eax)
    1828:	00 00                	add    %al,(%eax)
    182a:	06                   	push   %es
    182b:	e0 06                	loopne 1833 <start_-0xfe7d9>
    182d:	00 00                	add    %al,(%eax)
    182f:	39 c9                	cmp    %ecx,%ecx
    1831:	65 10 c0             	gs adc %al,%al
    1834:	b3 00                	mov    $0x0,%bl
    1836:	00 00                	add    %al,(%eax)
    1838:	01 9c 98 02 00 00 04 	add    %ebx,0x4000002(%eax,%ebx,4)
    183f:	c8 07 00 00          	enter  $0x7,$0x0
    1843:	39 22                	cmp    %esp,(%edx)
    1845:	5c                   	pop    %esp
    1846:	00 00                	add    %al,(%eax)
    1848:	00 02                	add    %al,(%edx)
    184a:	91                   	xchg   %eax,%ecx
    184b:	00 04 03             	add    %al,(%ebx,%eax,1)
    184e:	08 00                	or     %al,(%eax)
    1850:	00 39                	add    %bh,(%ecx)
    1852:	34 90                	xor    $0x90,%al
    1854:	00 00                	add    %al,(%eax)
    1856:	00 02                	add    %al,(%edx)
    1858:	91                   	xchg   %eax,%ecx
    1859:	04 01                	add    $0x1,%al
    185b:	d8 07                	fadds  (%edi)
    185d:	00 00                	add    %al,(%eax)
    185f:	3b 05 5c 00 00 00    	cmp    0x5c,%eax
    1865:	cd 06                	int    $0x6
    1867:	00 00                	add    %al,(%eax)
    1869:	cb                   	lret   
    186a:	06                   	push   %es
    186b:	00 00                	add    %al,(%eax)
    186d:	01 9e 08 00 00 3b    	add    %ebx,0x3b000008(%esi)
    1873:	05 5c 00 00 00       	add    $0x5c,%eax
    1878:	dd 06                	fldl   (%esi)
    187a:	00 00                	add    %al,(%eax)
    187c:	d5 06                	aad    $0x6
    187e:	00 00                	add    %al,(%eax)
    1880:	01 32                	add    %esi,(%edx)
    1882:	08 00                	or     %al,(%eax)
    1884:	00 3b                	add    %bh,(%ebx)
    1886:	05 5c 00 00 00       	add    $0x5c,%eax
    188b:	0e                   	push   %cs
    188c:	07                   	pop    %es
    188d:	00 00                	add    %al,(%eax)
    188f:	04 07                	add    $0x7,%al
    1891:	00 00                	add    %al,(%eax)
    1893:	01 3e                	add    %edi,(%esi)
    1895:	08 00                	or     %al,(%eax)
    1897:	00 3b                	add    %bh,(%ebx)
    1899:	05 5c 00 00 00       	add    $0x5c,%eax
    189e:	58                   	pop    %eax
    189f:	07                   	pop    %es
    18a0:	00 00                	add    %al,(%eax)
    18a2:	50                   	push   %eax
    18a3:	07                   	pop    %es
    18a4:	00 00                	add    %al,(%eax)
    18a6:	01 66 08             	add    %esp,0x8(%esi)
    18a9:	00 00                	add    %al,(%eax)
    18ab:	3b 05 5c 00 00 00    	cmp    0x5c,%eax
    18b1:	79 07                	jns    18ba <start_-0xfe752>
    18b3:	00 00                	add    %al,(%eax)
    18b5:	77 07                	ja     18be <start_-0xfe74e>
    18b7:	00 00                	add    %al,(%eax)
    18b9:	0a 57 00             	or     0x0(%edi),%dl
    18bc:	00 00                	add    %al,(%eax)
    18be:	03 69 00             	add    0x0(%ecx),%ebp
    18c1:	42                   	inc    %edx
    18c2:	13 5c 00 00          	adc    0x0(%eax,%eax,1),%ebx
    18c6:	00 87 07 00 00 81    	add    %al,-0x7efffff9(%edi)
    18cc:	07                   	pop    %es
    18cd:	00 00                	add    %al,(%eax)
    18cf:	00 00                	add    %al,(%eax)
    18d1:	06                   	push   %es
    18d2:	2a 07                	sub    (%edi),%al
    18d4:	00 00                	add    %al,(%eax)
    18d6:	25 14 65 10 c0       	and    $0xc0106514,%eax
    18db:	b5 00                	mov    $0x0,%ch
    18dd:	00 00                	add    %al,(%eax)
    18df:	01 9c 3f 03 00 00 04 	add    %ebx,0x4000003(%edi,%edi,1)
    18e6:	c8 07 00 00          	enter  $0x7,$0x0
    18ea:	25 1f 84 00 00       	and    $0x841f,%eax
    18ef:	00 02                	add    %al,(%edx)
    18f1:	91                   	xchg   %eax,%ecx
    18f2:	00 04 03             	add    %al,(%ebx,%eax,1)
    18f5:	08 00                	or     %al,(%eax)
    18f7:	00 25 31 90 00 00    	add    %ah,0x9031
    18fd:	00 02                	add    %al,(%edx)
    18ff:	91                   	xchg   %eax,%ecx
    1900:	04 01                	add    $0x1,%al
    1902:	d8 07                	fadds  (%edi)
    1904:	00 00                	add    %al,(%eax)
    1906:	27                   	daa    
    1907:	05 5c 00 00 00       	add    $0x5c,%eax
    190c:	a0 07 00 00 9e       	mov    0x9e000007,%al
    1911:	07                   	pop    %es
    1912:	00 00                	add    %al,(%eax)
    1914:	01 9e 08 00 00 27    	add    %ebx,0x27000008(%esi)
    191a:	05 5c 00 00 00       	add    $0x5c,%eax
    191f:	af                   	scas   %es:(%edi),%eax
    1920:	07                   	pop    %es
    1921:	00 00                	add    %al,(%eax)
    1923:	a7                   	cmpsl  %es:(%edi),%ds:(%esi)
    1924:	07                   	pop    %es
    1925:	00 00                	add    %al,(%eax)
    1927:	01 32                	add    %esi,(%edx)
    1929:	08 00                	or     %al,(%eax)
    192b:	00 27                	add    %ah,(%edi)
    192d:	05 5c 00 00 00       	add    $0x5c,%eax
    1932:	d9 07                	flds   (%edi)
    1934:	00 00                	add    %al,(%eax)
    1936:	d3 07                	roll   %cl,(%edi)
    1938:	00 00                	add    %al,(%eax)
    193a:	01 3e                	add    %edi,(%esi)
    193c:	08 00                	or     %al,(%eax)
    193e:	00 27                	add    %ah,(%edi)
    1940:	05 5c 00 00 00       	add    $0x5c,%eax
    1945:	01 08                	add    %ecx,(%eax)
    1947:	00 00                	add    %al,(%eax)
    1949:	f9                   	stc    
    194a:	07                   	pop    %es
    194b:	00 00                	add    %al,(%eax)
    194d:	01 66 08             	add    %esp,0x8(%esi)
    1950:	00 00                	add    %al,(%eax)
    1952:	27                   	daa    
    1953:	05 5c 00 00 00       	add    $0x5c,%eax
    1958:	1f                   	pop    %ds
    1959:	08 00                	or     %al,(%eax)
    195b:	00 1d 08 00 00 0a    	add    %bl,0xa000008
    1961:	4c                   	dec    %esp
    1962:	00 00                	add    %al,(%eax)
    1964:	00 03                	add    %al,(%ebx)
    1966:	69 00 30 13 5c 00    	imul   $0x5c1330,(%eax),%eax
    196c:	00 00                	add    %al,(%eax)
    196e:	2b 08                	sub    (%eax),%ecx
    1970:	00 00                	add    %al,(%eax)
    1972:	25 08 00 00 00       	and    $0x8,%eax
    1977:	00 06                	add    %al,(%esi)
    1979:	de 07                	fiadds (%edi)
    197b:	00 00                	add    %al,(%eax)
    197d:	1e                   	push   %ds
    197e:	f7 64 10 c0          	mull   -0x40(%eax,%edx,1)
    1982:	1d 00 00 00 01       	sbb    $0x1000000,%eax
    1987:	9c                   	pushf  
    1988:	88 03                	mov    %al,(%ebx)
    198a:	00 00                	add    %al,(%eax)
    198c:	0b 70 70             	or     0x70(%eax),%esi
    198f:	6e                   	outsb  %ds:(%esi),(%dx)
    1990:	00 1e                	add    %bl,(%esi)
    1992:	22 84 00 00 00 02 91 	and    -0x6efe0000(%eax,%eax,1),%al
    1999:	00 01                	add    %al,(%ecx)
    199b:	d8 07                	fadds  (%edi)
    199d:	00 00                	add    %al,(%eax)
    199f:	20 05 5c 00 00 00    	and    %al,0x5c
    19a5:	44                   	inc    %esp
    19a6:	08 00                	or     %al,(%eax)
    19a8:	00 42 08             	add    %al,0x8(%edx)
    19ab:	00 00                	add    %al,(%eax)
    19ad:	03 6d 73             	add    0x73(%ebp),%ebp
    19b0:	6b 00 20             	imul   $0x20,(%eax),%eax
    19b3:	05 5c 00 00 00       	add    $0x5c,%eax
    19b8:	4c                   	dec    %esp
    19b9:	08 00                	or     %al,(%eax)
    19bb:	00 4a 08             	add    %cl,0x8(%edx)
    19be:	00 00                	add    %al,(%eax)
    19c0:	00 13                	add    %dl,(%ebx)
    19c2:	53                   	push   %ebx
    19c3:	08 00                	or     %al,(%eax)
    19c5:	00 01                	add    %al,(%ecx)
    19c7:	17                   	pop    %ss
    19c8:	01 d8                	add    %ebx,%eax
    19ca:	64 10 c0             	fs adc %al,%al
    19cd:	1f                   	pop    %ds
    19ce:	00 00                	add    %al,(%eax)
    19d0:	00 01                	add    %al,(%ecx)
    19d2:	9c                   	pushf  
    19d3:	0b 70 70             	or     0x70(%eax),%esi
    19d6:	6e                   	outsb  %ds:(%esi),(%dx)
    19d7:	00 17                	add    %dl,(%edi)
    19d9:	1e                   	push   %ds
    19da:	84 00                	test   %al,(%eax)
    19dc:	00 00                	add    %al,(%eax)
    19de:	02 91 00 01 d8 07    	add    0x7d80100(%ecx),%dl
    19e4:	00 00                	add    %al,(%eax)
    19e6:	19 05 5c 00 00 00    	sbb    %eax,0x5c
    19ec:	54                   	push   %esp
    19ed:	08 00                	or     %al,(%eax)
    19ef:	00 52 08             	add    %dl,0x8(%edx)
    19f2:	00 00                	add    %al,(%eax)
    19f4:	03 6d 73             	add    0x73(%ebp),%ebp
    19f7:	6b 00 19             	imul   $0x19,(%eax),%eax
    19fa:	05 5c 00 00 00       	add    $0x5c,%eax
    19ff:	5e                   	pop    %esi
    1a00:	08 00                	or     %al,(%eax)
    1a02:	00 5a 08             	add    %bl,0x8(%edx)
    1a05:	00 00                	add    %al,(%eax)
    1a07:	00 00                	add    %al,(%eax)
    1a09:	8b 04 00             	mov    (%eax,%eax,1),%eax
    1a0c:	00 05 00 01 04 71    	add    %al,0x71040100
    1a12:	09 00                	or     %eax,(%eax)
    1a14:	00 10                	add    %dl,(%eax)
    1a16:	5a                   	pop    %edx
    1a17:	02 00                	add    (%eax),%al
    1a19:	00 0c f6             	add    %cl,(%esi,%esi,8)
    1a1c:	01 00                	add    %eax,(%eax)
    1a1e:	00 00                	add    %al,(%eax)
    1a20:	00 00                	add    %al,(%eax)
    1a22:	00 91 67 10 c0 75    	add    %dl,0x75c01067(%ecx)
    1a28:	02 00                	add    (%eax),%al
    1a2a:	00 70 0c             	add    %dh,0xc(%eax)
    1a2d:	00 00                	add    %al,(%eax)
    1a2f:	02 04 05 5e 01 00 00 	add    0x15e(,%eax,1),%al
    1a36:	04 5e                	add    $0x5e,%al
    1a38:	06                   	push   %es
    1a39:	00 00                	add    %al,(%eax)
    1a3b:	02 d1                	add    %cl,%dl
    1a3d:	17                   	pop    %ss
    1a3e:	39 00                	cmp    %eax,(%eax)
    1a40:	00 00                	add    %al,(%eax)
    1a42:	02 04 07             	add    (%edi,%eax,1),%al
    1a45:	36 02 00             	add    %ss:(%eax),%al
    1a48:	00 11                	add    %dl,(%ecx)
    1a4a:	04 05                	add    $0x5,%al
    1a4c:	69 6e 74 00 02 01 06 	imul   $0x6010200,0x74(%esi),%ebp
    1a53:	d8 01                	fadds  (%ecx)
    1a55:	00 00                	add    %al,(%eax)
    1a57:	02 02                	add    (%edx),%al
    1a59:	05 77 00 00 00       	add    $0x77,%eax
    1a5e:	02 08                	add    (%eax),%cl
    1a60:	05 59 01 00 00       	add    $0x159,%eax
    1a65:	04 69                	add    $0x69,%al
    1a67:	04 00                	add    $0x0,%al
    1a69:	00 03                	add    %al,(%ebx)
    1a6b:	2e 18 68 00          	sbb    %ch,%cs:0x0(%eax)
    1a6f:	00 00                	add    %al,(%eax)
    1a71:	02 01                	add    (%ecx),%al
    1a73:	08 d6                	or     %dl,%dh
    1a75:	01 00                	add    %eax,(%eax)
    1a77:	00 02                	add    %al,(%edx)
    1a79:	02 07                	add    (%edi),%al
    1a7b:	d4 02                	aam    $0x2
    1a7d:	00 00                	add    %al,(%eax)
    1a7f:	04 6e                	add    $0x6e,%al
    1a81:	00 00                	add    %al,(%eax)
    1a83:	00 03                	add    %al,(%ebx)
    1a85:	34 19                	xor    $0x19,%al
    1a87:	39 00                	cmp    %eax,(%eax)
    1a89:	00 00                	add    %al,(%eax)
    1a8b:	02 08                	add    (%eax),%cl
    1a8d:	07                   	pop    %es
    1a8e:	31 02                	xor    %eax,(%edx)
    1a90:	00 00                	add    %al,(%eax)
    1a92:	02 04 07             	add    (%edi,%eax,1),%al
    1a95:	3b 02                	cmp    (%edx),%eax
    1a97:	00 00                	add    %al,(%eax)
    1a99:	04 00                	add    $0x0,%al
    1a9b:	01 00                	add    %eax,(%eax)
    1a9d:	00 03                	add    %al,(%ebx)
    1a9f:	56                   	push   %esi
    1aa0:	1a 39                	sbb    (%ecx),%bh
    1aa2:	00 00                	add    %al,(%eax)
    1aa4:	00 04 ae             	add    %al,(%esi,%ebp,4)
    1aa7:	01 00                	add    %eax,(%eax)
    1aa9:	00 04 39             	add    %al,(%ecx,%edi,1)
    1aac:	17                   	pop    %ss
    1aad:	39 00                	cmp    %eax,(%eax)
    1aaf:	00 00                	add    %al,(%eax)
    1ab1:	04 b3                	add    $0xb3,%al
    1ab3:	08 00                	or     %al,(%eax)
    1ab5:	00 04 3a             	add    %al,(%edx,%edi,1)
    1ab8:	17                   	pop    %ss
    1ab9:	39 00                	cmp    %eax,(%eax)
    1abb:	00 00                	add    %al,(%eax)
    1abd:	04 79                	add    $0x79,%al
    1abf:	07                   	pop    %es
    1ac0:	00 00                	add    %al,(%eax)
    1ac2:	04 3b                	add    $0x3b,%al
    1ac4:	16                   	push   %ss
    1ac5:	89 00                	mov    %eax,(%eax)
    1ac7:	00 00                	add    %al,(%eax)
    1ac9:	0b f5                	or     %ebp,%esi
    1acb:	07                   	pop    %es
    1acc:	00 00                	add    %al,(%eax)
    1ace:	05 3e 05 40 00       	add    $0x40053e,%eax
    1ad3:	00 00                	add    %al,(%eax)
    1ad5:	d6                   	(bad)  
    1ad6:	00 00                	add    %al,(%eax)
    1ad8:	00 06                	add    %al,(%esi)
    1ada:	d6                   	(bad)  
    1adb:	00 00                	add    %al,(%eax)
    1add:	00 00                	add    %al,(%eax)
    1adf:	12 04 0b             	adc    (%ebx,%ecx,1),%al
    1ae2:	a5                   	movsl  %ds:(%esi),%es:(%edi)
    1ae3:	08 00                	or     %al,(%eax)
    1ae5:	00 06                	add    %al,(%esi)
    1ae7:	10 01                	adc    %al,(%ecx)
    1ae9:	d6                   	(bad)  
    1aea:	00 00                	add    %al,(%eax)
    1aec:	00 f8                	add    %bh,%al
    1aee:	00 00                	add    %al,(%eax)
    1af0:	00 06                	add    %al,(%esi)
    1af2:	d6                   	(bad)  
    1af3:	00 00                	add    %al,(%eax)
    1af5:	00 06                	add    %al,(%esi)
    1af7:	40                   	inc    %eax
    1af8:	00 00                	add    %al,(%eax)
    1afa:	00 06                	add    %al,(%esi)
    1afc:	2d 00 00 00 00       	sub    $0x0,%eax
    1b01:	13 23                	adc    (%ebx),%esp
    1b03:	08 00                	or     %al,(%eax)
    1b05:	00 05 2e 07 d6 00    	add    %al,0xd6072e
    1b0b:	00 00                	add    %al,(%eax)
    1b0d:	0a 01                	or     (%ecx),%al
    1b0f:	00 00                	add    %al,(%eax)
    1b11:	14 00                	adc    $0x0,%al
    1b13:	09 5a 07             	or     %ebx,0x7(%edx)
    1b16:	00 00                	add    %al,(%eax)
    1b18:	89 d6                	mov    %edx,%esi
    1b1a:	00 00                	add    %al,(%eax)
    1b1c:	00 ba 69 10 c0 4c    	add    %bh,0x4cc01069(%edx)
    1b22:	00 00                	add    %al,(%eax)
    1b24:	00 01                	add    %al,(%ecx)
    1b26:	9c                   	pushf  
    1b27:	bf 01 00 00 07       	mov    $0x7000001,%edi
    1b2c:	76 61                	jbe    1b8f <start_-0xfe47d>
    1b2e:	00 89 0f d6 00 00    	add    %cl,0xd60f(%ecx)
    1b34:	00 02                	add    %al,(%edx)
    1b36:	91                   	xchg   %eax,%ecx
    1b37:	00 03                	add    %al,(%ebx)
    1b39:	9b                   	fwait
    1b3a:	08 00                	or     %al,(%eax)
    1b3c:	00 8b 0f 90 00 00    	add    %cl,0x900f(%ebx)
    1b42:	00 80 08 00 00 78    	add    %al,0x78000008(%eax)
    1b48:	08 00                	or     %al,(%eax)
    1b4a:	00 03                	add    %al,(%ebx)
    1b4c:	88 08                	mov    %cl,(%eax)
    1b4e:	00 00                	add    %al,(%eax)
    1b50:	8c 0f                	mov    %cs,(%edi)
    1b52:	90                   	nop
    1b53:	00 00                	add    %al,(%eax)
    1b55:	00 a9 08 00 00 a7    	add    %ch,-0x58fffff8(%ecx)
    1b5b:	08 00                	or     %al,(%eax)
    1b5d:	00 01                	add    %al,(%ecx)
    1b5f:	70 6f                	jo     1bd0 <start_-0xfe43c>
    1b61:	00 8d 0f 90 00 00    	add    %cl,0x900f(%ebp)
    1b67:	00 b3 08 00 00 b1    	add    %dh,-0x4efffff8(%ebx)
    1b6d:	08 00                	or     %al,(%eax)
    1b6f:	00 0c 92             	add    %cl,(%edx,%edx,4)
    1b72:	08 00                	or     %al,(%eax)
    1b74:	00 8e bf 01 00 00    	add    %cl,0x1bf(%esi)
    1b7a:	01 70 64             	add    %esi,0x64(%eax)
    1b7d:	65 00 90 0b 9c 00 00 	add    %dl,%gs:0x9c0b(%eax)
    1b84:	00 c3                	add    %al,%bl
    1b86:	08 00                	or     %al,(%eax)
    1b88:	00 bb 08 00 00 0d    	add    %bh,0xd000008(%ebx)
    1b8e:	e0 69                	loopne 1bf9 <start_-0xfe413>
    1b90:	10 c0                	adc    %al,%al
    1b92:	16                   	push   %ss
    1b93:	00 00                	add    %al,(%eax)
    1b95:	00 01                	add    %al,(%ecx)
    1b97:	70 74                	jo     1c0d <start_-0xfe3ff>
    1b99:	65 00 92 0e a8 00 00 	add    %dl,%gs:0xa80e(%edx)
    1ba0:	00 0a                	add    %cl,(%edx)
    1ba2:	09 00                	or     %eax,(%eax)
    1ba4:	00 02                	add    %al,(%edx)
    1ba6:	09 00                	or     %eax,(%eax)
    1ba8:	00 0d ef 69 10 c0    	add    %cl,0xc01069ef
    1bae:	07                   	pop    %es
    1baf:	00 00                	add    %al,(%eax)
    1bb1:	00 01                	add    %al,(%ecx)
    1bb3:	70 70                	jo     1c25 <start_-0xfe3e7>
    1bb5:	6e                   	outsb  %ds:(%esi),(%dx)
    1bb6:	00 94 17 90 00 00 00 	add    %dl,0x90(%edi,%edx,1)
    1bbd:	4b                   	dec    %ebx
    1bbe:	09 00                	or     %eax,(%eax)
    1bc0:	00 47 09             	add    %al,0x9(%edi)
    1bc3:	00 00                	add    %al,(%eax)
    1bc5:	00 00                	add    %al,(%eax)
    1bc7:	00 0a                	add    %cl,(%edx)
    1bc9:	9c                   	pushf  
    1bca:	00 00                	add    %al,(%eax)
    1bcc:	00 0e                	add    %cl,(%esi)
    1bce:	80 06 00             	addb   $0x0,(%esi)
    1bd1:	00 73 65             	add    %dh,0x65(%ebx)
    1bd4:	69 10 c0 55 00 00    	imul   $0x55c0,(%eax),%edx
    1bda:	00 01                	add    %al,(%ecx)
    1bdc:	9c                   	pushf  
    1bdd:	63 02                	arpl   %ax,(%edx)
    1bdf:	00 00                	add    %al,(%eax)
    1be1:	0f 76 70 6e          	pcmpeqd 0x6e(%eax),%mm6
    1be5:	00 73 16             	add    %dh,0x16(%ebx)
    1be8:	d6                   	(bad)  
    1be9:	00 00                	add    %al,(%eax)
    1beb:	00 76 09             	add    %dh,0x9(%esi)
    1bee:	00 00                	add    %al,(%eax)
    1bf0:	72 09                	jb     1bfb <start_-0xfe411>
    1bf2:	00 00                	add    %al,(%eax)
    1bf4:	03 9b 08 00 00 75    	add    0x75000008(%ebx),%ebx
    1bfa:	0f 90 00             	seto   (%eax)
    1bfd:	00 00                	add    %al,(%eax)
    1bff:	8c 09                	mov    %cs,(%ecx)
    1c01:	00 00                	add    %al,(%eax)
    1c03:	86 09                	xchg   %cl,(%ecx)
    1c05:	00 00                	add    %al,(%eax)
    1c07:	03 88 08 00 00 76    	add    0x76000008(%eax),%ecx
    1c0d:	0f 90 00             	seto   (%eax)
    1c10:	00 00                	add    %al,(%eax)
    1c12:	b1 09                	mov    $0x9,%cl
    1c14:	00 00                	add    %al,(%eax)
    1c16:	ab                   	stos   %eax,%es:(%edi)
    1c17:	09 00                	or     %eax,(%eax)
    1c19:	00 0c 92             	add    %cl,(%edx,%edx,4)
    1c1c:	08 00                	or     %al,(%eax)
    1c1e:	00 77 bf             	add    %dh,-0x41(%edi)
    1c21:	01 00                	add    %eax,(%eax)
    1c23:	00 01                	add    %al,(%ecx)
    1c25:	70 64                	jo     1c8b <start_-0xfe381>
    1c27:	65 00 79 0b          	add    %bh,%gs:0xb(%ecx)
    1c2b:	9c                   	pushf  
    1c2c:	00 00                	add    %al,(%eax)
    1c2e:	00 de                	add    %bl,%dh
    1c30:	09 00                	or     %eax,(%eax)
    1c32:	00 d8                	add    %bl,%al
    1c34:	09 00                	or     %eax,(%eax)
    1c36:	00 15 6e 00 00 00    	add    %dl,0x6e
    1c3c:	01 70 74             	add    %esi,0x74(%eax)
    1c3f:	00 7c 0f 63          	add    %bh,0x63(%edi,%ecx,1)
    1c43:	02 00                	add    (%eax),%al
    1c45:	00 16                	add    %dl,(%esi)
    1c47:	0a 00                	or     (%eax),%al
    1c49:	00 0e                	add    %cl,(%esi)
    1c4b:	0a 00                	or     (%eax),%al
    1c4d:	00 01                	add    %al,(%ecx)
    1c4f:	70 74                	jo     1cc5 <start_-0xfe347>
    1c51:	65 00 7d 12          	add    %bh,%gs:0x12(%ebp)
    1c55:	76 00                	jbe    1c57 <start_-0xfe3b5>
    1c57:	00 00                	add    %al,(%eax)
    1c59:	4e                   	dec    %esi
    1c5a:	0a 00                	or     (%eax),%al
    1c5c:	00 4a 0a             	add    %cl,0xa(%edx)
    1c5f:	00 00                	add    %al,(%eax)
    1c61:	05 ae 69 10 c0       	add    $0xc01069ae,%eax
    1c66:	c0 00 00             	rolb   $0x0,(%eax)
    1c69:	00 00                	add    %al,(%eax)
    1c6b:	00 0a                	add    %cl,(%edx)
    1c6d:	a8 00                	test   $0x0,%al
    1c6f:	00 00                	add    %al,(%eax)
    1c71:	09 41 06             	or     %eax,0x6(%ecx)
    1c74:	00 00                	add    %al,(%eax)
    1c76:	68 d6 00 00 00       	push   $0xd6
    1c7b:	2a 69 10             	sub    0x10(%ecx),%ch
    1c7e:	c0 3b 00             	sarb   $0x0,(%ebx)
    1c81:	00 00                	add    %al,(%eax)
    1c83:	01 9c f5 02 00 00 07 	add    %ebx,0x7000002(%ebp,%esi,8)
    1c8a:	76 70                	jbe    1cfc <start_-0xfe310>
    1c8c:	6e                   	outsb  %ds:(%esi),(%dx)
    1c8d:	00 68 16             	add    %ch,0x16(%eax)
    1c90:	d6                   	(bad)  
    1c91:	00 00                	add    %al,(%eax)
    1c93:	00 02                	add    %al,(%edx)
    1c95:	91                   	xchg   %eax,%ecx
    1c96:	00 08                	add    %cl,(%eax)
    1c98:	c2 08 00             	ret    $0x8
    1c9b:	00 68 23             	add    %ch,0x23(%eax)
    1c9e:	b4 00                	mov    $0x0,%ah
    1ca0:	00 00                	add    %al,(%eax)
    1ca2:	63 0a                	arpl   %cx,(%edx)
    1ca4:	00 00                	add    %al,(%eax)
    1ca6:	5d                   	pop    %ebp
    1ca7:	0a 00                	or     (%eax),%al
    1ca9:	00 08                	add    %cl,(%eax)
    1cab:	cf                   	iret   
    1cac:	08 00                	or     %al,(%eax)
    1cae:	00 68 32             	add    %ch,0x32(%eax)
    1cb1:	b4 00                	mov    $0x0,%ah
    1cb3:	00 00                	add    %al,(%eax)
    1cb5:	82 0a 00             	orb    $0x0,(%edx)
    1cb8:	00 7c 0a 00          	add    %bh,0x0(%edx,%ecx,1)
    1cbc:	00 01                	add    %al,(%ecx)
    1cbe:	70 70                	jo     1d30 <start_-0xfe2dc>
    1cc0:	00 6a 0b             	add    %ch,0xb(%edx)
    1cc3:	d6                   	(bad)  
    1cc4:	00 00                	add    %al,(%eax)
    1cc6:	00 a1 0a 00 00 9b    	add    %ah,-0x64fffff6(%ecx)
    1ccc:	0a 00                	or     (%eax),%al
    1cce:	00 03                	add    %al,(%ebx)
    1cd0:	75 08                	jne    1cda <start_-0xfe332>
    1cd2:	00 00                	add    %al,(%eax)
    1cd4:	6b 0b d6             	imul   $0xffffffd6,(%ebx),%ecx
    1cd7:	00 00                	add    %al,(%eax)
    1cd9:	00 bf 0a 00 00 b7    	add    %bh,-0x48fffff6(%edi)
    1cdf:	0a 00                	or     (%eax),%al
    1ce1:	00 05 34 69 10 c0    	add    %al,0xc0106934
    1ce7:	f8                   	clc    
    1ce8:	00 00                	add    %al,(%eax)
    1cea:	00 05 45 69 10 c0    	add    %al,0xc0106945
    1cf0:	f5                   	cmc    
    1cf1:	02 00                	add    (%eax),%al
    1cf3:	00 05 60 69 10 c0    	add    %al,0xc0106960
    1cf9:	c0 00 00             	rolb   $0x0,(%eax)
    1cfc:	00 00                	add    %al,(%eax)
    1cfe:	09 b2 06 00 00 35    	or     %esi,0x35000006(%edx)
    1d04:	d6                   	(bad)  
    1d05:	00 00                	add    %al,(%eax)
    1d07:	00 e9                	add    %ch,%cl
    1d09:	67 10 c0             	addr16 adc %al,%al
    1d0c:	41                   	inc    %ecx
    1d0d:	01 00                	add    %eax,(%eax)
    1d0f:	00 01                	add    %al,(%ecx)
    1d11:	9c                   	pushf  
    1d12:	d6                   	(bad)  
    1d13:	03 00                	add    (%eax),%eax
    1d15:	00 07                	add    %al,(%edi)
    1d17:	76 61                	jbe    1d7a <start_-0xfe292>
    1d19:	00 35 14 d6 00 00    	add    %dh,0xd614
    1d1f:	00 02                	add    %al,(%edx)
    1d21:	91                   	xchg   %eax,%ecx
    1d22:	00 0f                	add    %cl,(%edi)
    1d24:	70 61                	jo     1d87 <start_-0xfe285>
    1d26:	00 35 1e d6 00 00    	add    %dh,0xd61e
    1d2c:	00 e2                	add    %ah,%dl
    1d2e:	0a 00                	or     (%eax),%al
    1d30:	00 dc                	add    %bl,%ah
    1d32:	0a 00                	or     (%eax),%al
    1d34:	00 08                	add    %cl,(%eax)
    1d36:	c2 08 00             	ret    $0x8
    1d39:	00 35 2a b4 00 00    	add    %dh,0xb42a
    1d3f:	00 00                	add    %al,(%eax)
    1d41:	0b 00                	or     (%eax),%eax
    1d43:	00 fa                	add    %bh,%dl
    1d45:	0a 00                	or     (%eax),%al
    1d47:	00 08                	add    %cl,(%eax)
    1d49:	cf                   	iret   
    1d4a:	08 00                	or     %al,(%eax)
    1d4c:	00 35 39 b4 00 00    	add    %dh,0xb439
    1d52:	00 1e                	add    %bl,(%esi)
    1d54:	0b 00                	or     (%eax),%eax
    1d56:	00 18                	add    %bl,(%eax)
    1d58:	0b 00                	or     (%eax),%eax
    1d5a:	00 03                	add    %al,(%ebx)
    1d5c:	9b                   	fwait
    1d5d:	08 00                	or     %al,(%eax)
    1d5f:	00 3c 0f             	add    %bh,(%edi,%ecx,1)
    1d62:	90                   	nop
    1d63:	00 00                	add    %al,(%eax)
    1d65:	00 3c 0b             	add    %bh,(%ebx,%ecx,1)
    1d68:	00 00                	add    %al,(%eax)
    1d6a:	36 0b 00             	or     %ss:(%eax),%eax
    1d6d:	00 03                	add    %al,(%ebx)
    1d6f:	88 08                	mov    %cl,(%eax)
    1d71:	00 00                	add    %al,(%eax)
    1d73:	3d 0f 90 00 00       	cmp    $0x900f,%eax
    1d78:	00 5b 0b             	add    %bl,0xb(%ebx)
    1d7b:	00 00                	add    %al,(%eax)
    1d7d:	51                   	push   %ecx
    1d7e:	0b 00                	or     (%eax),%eax
    1d80:	00 01                	add    %al,(%ecx)
    1d82:	70 74                	jo     1df8 <start_-0xfe214>
    1d84:	64 00 3e             	add    %bh,%fs:(%esi)
    1d87:	0c bf                	or     $0xbf,%al
    1d89:	01 00                	add    %eax,(%eax)
    1d8b:	00 86 0b 00 00 80    	add    %al,-0x7ffffff5(%esi)
    1d91:	0b 00                	or     (%eax),%eax
    1d93:	00 01                	add    %al,(%ecx)
    1d95:	70 64                	jo     1dfb <start_-0xfe211>
    1d97:	65 00 41 0b          	add    %al,%gs:0xb(%ecx)
    1d9b:	9c                   	pushf  
    1d9c:	00 00                	add    %al,(%eax)
    1d9e:	00 ab 0b 00 00 a5    	add    %ch,-0x5afffff5(%ebx)
    1da4:	0b 00                	or     (%eax),%eax
    1da6:	00 01                	add    %al,(%ecx)
    1da8:	70 74                	jo     1e1e <start_-0xfe1ee>
    1daa:	00 42 0b             	add    %al,0xb(%edx)
    1dad:	63 02                	arpl   %ax,(%edx)
    1daf:	00 00                	add    %al,(%eax)
    1db1:	c9                   	leave  
    1db2:	0b 00                	or     (%eax),%eax
    1db4:	00 c1                	add    %al,%cl
    1db6:	0b 00                	or     (%eax),%eax
    1db8:	00 03                	add    %al,(%ebx)
    1dba:	b8 08 00 00 58       	mov    $0x58000008,%eax
    1dbf:	0e                   	push   %cs
    1dc0:	d6                   	(bad)  
    1dc1:	03 00                	add    (%eax),%eax
    1dc3:	00 e8                	add    %ch,%al
    1dc5:	0b 00                	or     (%eax),%eax
    1dc7:	00 e6                	add    %ah,%dh
    1dc9:	0b 00                	or     (%eax),%eax
    1dcb:	00 05 b7 68 10 c0    	add    %al,0xc01068b7
    1dd1:	f8                   	clc    
    1dd2:	00 00                	add    %al,(%eax)
    1dd4:	00 05 ec 68 10 c0    	add    %al,0xc01068ec
    1dda:	d8 00                	fadds  (%eax)
    1ddc:	00 00                	add    %al,(%eax)
    1dde:	00 0a                	add    %cl,(%edx)
    1de0:	5c                   	pop    %esp
    1de1:	00 00                	add    %al,(%eax)
    1de3:	00 16                	add    %dl,(%esi)
    1de5:	7c 08                	jl     1def <start_-0xfe21d>
    1de7:	00 00                	add    %al,(%eax)
    1de9:	01 27                	add    %esp,(%edi)
    1deb:	01 bf 01 00 00 b2    	add    %edi,-0x4dffffff(%edi)
    1df1:	67 10 c0             	addr16 adc %al,%al
    1df4:	37                   	aaa    
    1df5:	00 00                	add    %al,(%eax)
    1df7:	00 01                	add    %al,(%ecx)
    1df9:	9c                   	pushf  
    1dfa:	31 04 00             	xor    %eax,(%eax,%eax,1)
    1dfd:	00 01                	add    %al,(%ecx)
    1dff:	64 69 72 00 29 0c bf 	imul   $0x1bf0c29,%fs:0x0(%edx),%esi
    1e06:	01 
    1e07:	00 00                	add    %al,(%eax)
    1e09:	f2 0b 00             	repnz or (%eax),%eax
    1e0c:	00 f0                	add    %dh,%al
    1e0e:	0b 00                	or     (%eax),%eax
    1e10:	00 17                	add    %dl,(%edi)
    1e12:	bd 67 10 c0 19       	mov    $0x19c01067,%ebp
    1e17:	00 00                	add    %al,(%eax)
    1e19:	00 27                	add    %ah,(%edi)
    1e1b:	04 00                	add    $0x0,%al
    1e1d:	00 01                	add    %al,(%ecx)
    1e1f:	69 00 2a 11 2d 00    	imul   $0x2d112a,(%eax),%eax
    1e25:	00 00                	add    %al,(%eax)
    1e27:	fc                   	cld    
    1e28:	0b 00                	or     (%eax),%eax
    1e2a:	00 f8                	add    %bh,%al
    1e2c:	0b 00                	or     (%eax),%eax
    1e2e:	00 00                	add    %al,(%eax)
    1e30:	05 bd 67 10 c0       	add    $0xc01067bd,%eax
    1e35:	f8                   	clc    
    1e36:	00 00                	add    %al,(%eax)
    1e38:	00 00                	add    %al,(%eax)
    1e3a:	18 f8                	sbb    %bh,%al
    1e3c:	06                   	push   %es
    1e3d:	00 00                	add    %al,(%eax)
    1e3f:	01 21                	add    %esp,(%ecx)
    1e41:	01 b1 67 10 c0 01    	add    %esi,0x1c01067(%ecx)
    1e47:	00 00                	add    %al,(%eax)
    1e49:	00 01                	add    %al,(%ecx)
    1e4b:	9c                   	pushf  
    1e4c:	0e                   	push   %cs
    1e4d:	c8 08 00 00          	enter  $0x8,$0x0
    1e51:	15 9f 67 10 c0       	adc    $0xc010679f,%eax
    1e56:	12 00                	adc    (%eax),%al
    1e58:	00 00                	add    %al,(%eax)
    1e5a:	01 9c 65 04 00 00 07 	add    %ebx,0x7000004(%ebp,%eiz,2)
    1e61:	70 64                	jo     1ec7 <start_-0xfe145>
    1e63:	00 15 0f bf 01 00    	add    %dl,0x1bf0f
    1e69:	00 02                	add    %al,(%edx)
    1e6b:	91                   	xchg   %eax,%ecx
    1e6c:	00 00                	add    %al,(%eax)
    1e6e:	19 ac 08 00 00 01 09 	sbb    %ebp,0x9010000(%eax,%ecx,1)
    1e75:	01 bf 01 00 00 91    	add    %edi,-0x6effffff(%edi)
    1e7b:	67 10 c0             	addr16 adc %al,%al
    1e7e:	0e                   	push   %cs
    1e7f:	00 00                	add    %al,(%eax)
    1e81:	00 01                	add    %al,(%ecx)
    1e83:	9c                   	pushf  
    1e84:	01 70 64             	add    %esi,0x64(%eax)
    1e87:	00 0b                	add    %cl,(%ebx)
    1e89:	0c bf                	or     $0xbf,%al
    1e8b:	01 00                	add    %eax,(%eax)
    1e8d:	00 0c 0c             	add    %cl,(%esp,%ecx,1)
    1e90:	00 00                	add    %al,(%eax)
    1e92:	08 0c 00             	or     %cl,(%eax,%eax,1)
    1e95:	00 00                	add    %al,(%eax)
    1e97:	00 79 02             	add    %bh,0x2(%ecx)
    1e9a:	00 00                	add    %al,(%eax)
    1e9c:	05 00 01 04 19       	add    $0x19040100,%eax
    1ea1:	0b 00                	or     (%eax),%eax
    1ea3:	00 0d 5a 02 00 00    	add    %cl,0x25a
    1ea9:	0c 0f                	or     $0xf,%al
    1eab:	02 00                	add    (%eax),%al
    1ead:	00 00                	add    %al,(%eax)
    1eaf:	00 00                	add    %al,(%eax)
    1eb1:	00 06                	add    %al,(%esi)
    1eb3:	6a 10                	push   $0x10
    1eb5:	c0 87 01 00 00 42 0f 	rolb   $0xf,0x42000001(%edi)
    1ebc:	00 00                	add    %al,(%eax)
    1ebe:	01 04 05 5e 01 00 00 	add    %eax,0x15e(,%eax,1)
    1ec5:	02 5e 06             	add    0x6(%esi),%bl
    1ec8:	00 00                	add    %al,(%eax)
    1eca:	02 d1                	add    %cl,%dl
    1ecc:	17                   	pop    %ss
    1ecd:	39 00                	cmp    %eax,(%eax)
    1ecf:	00 00                	add    %al,(%eax)
    1ed1:	01 04 07             	add    %eax,(%edi,%eax,1)
    1ed4:	36 02 00             	add    %ss:(%eax),%al
    1ed7:	00 0e                	add    %cl,(%esi)
    1ed9:	04 05                	add    $0x5,%al
    1edb:	69 6e 74 00 02 92 07 	imul   $0x7920200,0x74(%esi),%ebp
    1ee2:	00 00                	add    %al,(%eax)
    1ee4:	03 03                	add    (%ebx),%eax
    1ee6:	18 53 00             	sbb    %dl,0x0(%ebx)
    1ee9:	00 00                	add    %al,(%eax)
    1eeb:	01 02                	add    %eax,(%edx)
    1eed:	07                   	pop    %es
    1eee:	d4 02                	aam    $0x2
    1ef0:	00 00                	add    %al,(%eax)
    1ef2:	01 01                	add    %eax,(%ecx)
    1ef4:	06                   	push   %es
    1ef5:	d8 01                	fadds  (%ecx)
    1ef7:	00 00                	add    %al,(%eax)
    1ef9:	01 02                	add    %eax,(%edx)
    1efb:	05 77 00 00 00       	add    $0x77,%eax
    1f00:	01 08                	add    %ecx,(%eax)
    1f02:	05 59 01 00 00       	add    $0x159,%eax
    1f07:	01 01                	add    %eax,(%ecx)
    1f09:	08 d6                	or     %dl,%dh
    1f0b:	01 00                	add    %eax,(%eax)
    1f0d:	00 02                	add    %al,(%edx)
    1f0f:	8b 00                	mov    (%eax),%eax
    1f11:	00 00                	add    %al,(%eax)
    1f13:	04 31                	add    $0x31,%al
    1f15:	19 53 00             	sbb    %edx,0x0(%ebx)
    1f18:	00 00                	add    %al,(%eax)
    1f1a:	02 6e 00             	add    0x0(%esi),%ch
    1f1d:	00 00                	add    %al,(%eax)
    1f1f:	04 34                	add    $0x34,%al
    1f21:	19 39                	sbb    %edi,(%ecx)
    1f23:	00 00                	add    %al,(%eax)
    1f25:	00 01                	add    %al,(%ecx)
    1f27:	08 07                	or     %al,(%edi)
    1f29:	31 02                	xor    %eax,(%edx)
    1f2b:	00 00                	add    %al,(%eax)
    1f2d:	01 04 07             	add    %eax,(%edi,%eax,1)
    1f30:	3b 02                	cmp    (%edx),%eax
    1f32:	00 00                	add    %al,(%eax)
    1f34:	03 04 09             	add    (%ecx,%ecx,1),%eax
    1f37:	00 00                	add    %al,(%eax)
    1f39:	09 10                	or     %edx,(%eax)
    1f3b:	ad                   	lods   %ds:(%esi),%eax
    1f3c:	00 00                	add    %al,(%eax)
    1f3e:	00 05 03 04 90 12    	add    %al,0x12900403
    1f44:	c0 06 47             	rolb   $0x47,(%esi)
    1f47:	00 00                	add    %al,(%eax)
    1f49:	00 03                	add    %al,(%ebx)
    1f4b:	ec                   	in     (%dx),%al
    1f4c:	08 00                	or     %al,(%eax)
    1f4e:	00 0b                	add    %cl,(%ebx)
    1f50:	0f 47 00             	cmova  (%eax),%eax
    1f53:	00 00                	add    %al,(%eax)
    1f55:	05 03 68 81 12       	add    $0x12816803,%eax
    1f5a:	c0 03 29             	rolb   $0x29,(%ebx)
    1f5d:	09 00                	or     %eax,(%eax)
    1f5f:	00 0d 0a 82 00 00    	add    %cl,0x820a
    1f65:	00 05 03 64 81 12    	add    %al,0x12816403
    1f6b:	c0 03 2f             	rolb   $0x2f,(%ebx)
    1f6e:	09 00                	or     %eax,(%eax)
    1f70:	00 0e                	add    %cl,(%esi)
    1f72:	0a 76 00             	or     0x0(%esi),%dh
    1f75:	00 00                	add    %al,(%eax)
    1f77:	05 03 60 81 12       	add    $0x12816003,%eax
    1f7c:	c0 0f 35             	rorb   $0x35,(%edi)
    1f7f:	09 00                	or     %eax,(%eax)
    1f81:	00 05 0a 01 05 01    	add    %al,0x105010a
    1f87:	00 00                	add    %al,(%eax)
    1f89:	05 01 00 00 07       	add    $0x7000001,%eax
    1f8e:	07                   	pop    %es
    1f8f:	01 00                	add    %eax,(%eax)
    1f91:	00 07                	add    %al,(%edi)
    1f93:	11 01                	adc    %eax,(%ecx)
    1f95:	00 00                	add    %al,(%eax)
    1f97:	07                   	pop    %es
    1f98:	2d 00 00 00 00       	sub    $0x0,%eax
    1f9d:	10 04 09             	adc    %al,(%ecx,%ecx,1)
    1fa0:	05 01 00 00 06       	add    $0x6000001,%eax
    1fa5:	16                   	push   %ss
    1fa6:	01 00                	add    %eax,(%eax)
    1fa8:	00 09                	add    %cl,(%ecx)
    1faa:	0c 01                	or     $0x1,%al
    1fac:	00 00                	add    %al,(%eax)
    1fae:	11 0a                	adc    %ecx,(%edx)
    1fb0:	13 09                	adc    (%ecx),%ecx
    1fb2:	00 00                	add    %al,(%eax)
    1fb4:	50                   	push   %eax
    1fb5:	42                   	inc    %edx
    1fb6:	6b 10 c0             	imul   $0xffffffc0,(%eax),%edx
    1fb9:	36 00 00             	add    %al,%ss:(%eax)
    1fbc:	00 01                	add    %al,(%ecx)
    1fbe:	9c                   	pushf  
    1fbf:	47                   	inc    %edi
    1fc0:	01 00                	add    %eax,(%eax)
    1fc2:	00 12                	add    %dl,(%edx)
    1fc4:	42                   	inc    %edx
    1fc5:	6b 10 c0             	imul   $0xffffffc0,(%eax),%edx
    1fc8:	22 00                	and    (%eax),%al
    1fca:	00 00                	add    %al,(%eax)
    1fcc:	0b 69 00             	or     0x0(%ecx),%ebp
    1fcf:	52                   	push   %edx
    1fd0:	13 82 00 00 00 2d    	adc    0x2d000000(%edx),%eax
    1fd6:	0c 00                	or     $0x0,%al
    1fd8:	00 29                	add    %ch,(%ecx)
    1fda:	0c 00                	or     $0x0,%al
    1fdc:	00 00                	add    %al,(%eax)
    1fde:	00 0a                	add    %cl,(%edx)
    1fe0:	3c 09                	cmp    $0x9,%al
    1fe2:	00 00                	add    %al,(%eax)
    1fe4:	45                   	inc    %ebp
    1fe5:	2c 6a                	sub    $0x6a,%al
    1fe7:	10 c0                	adc    %al,%al
    1fe9:	5d                   	pop    %ebp
    1fea:	00 00                	add    %al,(%eax)
    1fec:	00 01                	add    %al,(%ecx)
    1fee:	9c                   	pushf  
    1fef:	92                   	xchg   %eax,%edx
    1ff0:	01 00                	add    %eax,(%eax)
    1ff2:	00 13                	add    %dl,(%ebx)
    1ff4:	e2 08                	loop   1ffe <start_-0xfe00e>
    1ff6:	00 00                	add    %al,(%eax)
    1ff8:	01 47 0c             	add    %eax,0xc(%edi)
    1ffb:	2d 00 00 00 80       	sub    $0x80000000,%eax
    2000:	07                   	pop    %es
    2001:	14 49                	adc    $0x49,%al
    2003:	6a 10                	push   $0x10
    2005:	c0 27 00             	shlb   $0x0,(%edi)
    2008:	00 00                	add    %al,(%eax)
    200a:	88 01                	mov    %al,(%ecx)
    200c:	00 00                	add    %al,(%eax)
    200e:	0b 69 00             	or     0x0(%ecx),%ebp
    2011:	49                   	dec    %ecx
    2012:	11 2d 00 00 00 41    	adc    %ebp,0x41000000
    2018:	0c 00                	or     $0x0,%al
    201a:	00 3d 0c 00 00 00    	add    %bh,0xc
    2020:	04 49                	add    $0x49,%al
    2022:	6a 10                	push   $0x10
    2024:	c0 e5 00             	shl    $0x0,%ch
    2027:	00 00                	add    %al,(%eax)
    2029:	00 05 1d 09 00 00    	add    %al,0x91d
    202f:	3c 01                	cmp    $0x1,%al
    2031:	18 6b 10             	sbb    %ch,0x10(%ebx)
    2034:	c0 2a 00             	shrb   $0x0,(%edx)
    2037:	00 00                	add    %al,(%eax)
    2039:	01 9c c5 01 00 00 15 	add    %ebx,0x15000001(%ebp,%eax,8)
    2040:	73 74                	jae    20b6 <start_-0xfdf56>
    2042:	72 00                	jb     2044 <start_-0xfdfc8>
    2044:	01 3c 13             	add    %edi,(%ebx,%edx,1)
    2047:	c5 01                	lds    (%ecx),%eax
    2049:	00 00                	add    %al,(%eax)
    204b:	51                   	push   %ecx
    204c:	0c 00                	or     $0x0,%al
    204e:	00 4d 0c             	add    %cl,0xc(%ebp)
    2051:	00 00                	add    %al,(%eax)
    2053:	04 30                	add    $0x30,%al
    2055:	6b 10 c0             	imul   $0xffffffc0,(%eax),%edx
    2058:	d1 01                	roll   (%ecx)
    205a:	00 00                	add    %al,(%eax)
    205c:	00 06                	add    %al,(%esi)
    205e:	ca 01 00             	lret   $0x1
    2061:	00 01                	add    %al,(%ecx)
    2063:	01 06                	add    %eax,(%esi)
    2065:	df 01                	filds  (%ecx)
    2067:	00 00                	add    %al,(%eax)
    2069:	05 d5 08 00 00       	add    $0x8d5,%eax
    206e:	20 01                	and    %al,(%ecx)
    2070:	89 6a 10             	mov    %ebp,0x10(%edx)
    2073:	c0 8f 00 00 00 01 9c 	rorb   $0x9c,0x1000000(%edi)
    207a:	fe 01                	incb   (%ecx)
    207c:	00 00                	add    %al,(%eax)
    207e:	08 63 68             	or     %ah,0x68(%ebx)
    2081:	72 00                	jb     2083 <start_-0xfdf89>
    2083:	20 13                	and    %dl,(%ebx)
    2085:	ca 01 00             	lret   $0x1
    2088:	00 02                	add    %al,(%edx)
    208a:	91                   	xchg   %eax,%ecx
    208b:	00 04 16             	add    %al,(%esi,%edx,1)
    208e:	6b 10 c0             	imul   $0xffffffc0,(%eax),%edx
    2091:	47                   	inc    %edi
    2092:	01 00                	add    %eax,(%eax)
    2094:	00 00                	add    %al,(%eax)
    2096:	05 50 06 00 00       	add    $0x650,%eax
    209b:	1a 01                	sbb    (%ecx),%al
    209d:	13 6a 10             	adc    0x10(%edx),%ebp
    20a0:	c0 19 00             	rcrb   $0x0,(%ecx)
    20a3:	00 00                	add    %al,(%eax)
    20a5:	01 9c 2e 02 00 00 08 	add    %ebx,0x8000002(%esi,%ebp,1)
    20ac:	66 67 00 1a          	data16 add %bl,(%bp,%si)
    20b0:	1d 47 00 00 00       	sbb    $0x47,%eax
    20b5:	02 91 00 08 62 67    	add    0x67620800(%ecx),%dl
    20bb:	00 1a                	add    %bl,(%edx)
    20bd:	2f                   	das    
    20be:	47                   	inc    %edi
    20bf:	00 00                	add    %al,(%eax)
    20c1:	00 02                	add    %al,(%edx)
    20c3:	91                   	xchg   %eax,%ecx
    20c4:	04 00                	add    $0x0,%al
    20c6:	05 3e 07 00 00       	add    $0x73e,%eax
    20cb:	15 06 06 6a 10       	adc    $0x106a0606,%eax
    20d0:	c0 0d 00 00 00 01 9c 	rorb   $0x9c,0x1000000
    20d7:	52                   	push   %edx
    20d8:	02 00                	add    (%eax),%al
    20da:	00 0c fc             	add    %cl,(%esp,%edi,8)
    20dd:	08 00                	or     %al,(%eax)
    20df:	00 15 1b 05 01 00    	add    %dl,0x1051b
    20e5:	00 02                	add    %al,(%edx)
    20e7:	91                   	xchg   %eax,%ecx
    20e8:	00 00                	add    %al,(%eax)
    20ea:	16                   	push   %ss
    20eb:	a1 06 00 00 01       	mov    0x1000006,%eax
    20f0:	10 06                	adc    %al,(%esi)
    20f2:	78 6b                	js     215f <start_-0xfdead>
    20f4:	10 c0                	adc    %al,%al
    20f6:	15 00 00 00 01       	adc    $0x1000000,%eax
    20fb:	9c                   	pushf  
    20fc:	0c fc                	or     $0xfc,%al
    20fe:	08 00                	or     %al,(%eax)
    2100:	00 10                	add    %dl,(%eax)
    2102:	15 05 01 00 00       	adc    $0x105,%eax
    2107:	02 91 00 04 8b 6b    	add    0x6b8b0400(%ecx),%dl
    210d:	10 c0                	adc    %al,%al
    210f:	17                   	pop    %ss
    2110:	01 00                	add    %eax,(%eax)
    2112:	00 00                	add    %al,(%eax)
    2114:	00 03                	add    %al,(%ebx)
    2116:	01 00                	add    %eax,(%eax)
    2118:	00 05 00 01 04 6c    	add    %al,0x6c040100
    211e:	0c 00                	or     $0x0,%al
    2120:	00 06                	add    %al,(%esi)
    2122:	5a                   	pop    %edx
    2123:	02 00                	add    (%eax),%al
    2125:	00 0c 2b             	add    %cl,(%ebx,%ebp,1)
    2128:	02 00                	add    (%eax),%al
    212a:	00 00                	add    %al,(%eax)
    212c:	00 00                	add    %al,(%eax)
    212e:	00 29                	add    %ch,(%ecx)
    2130:	6d                   	insl   (%dx),%es:(%edi)
    2131:	10 c0                	adc    %al,%al
    2133:	2d 00 00 00 12       	sub    $0x12000000,%eax
    2138:	11 00                	adc    %eax,(%eax)
    213a:	00 03                	add    %al,(%ebx)
    213c:	4f                   	dec    %edi
    213d:	09 00                	or     %eax,(%eax)
    213f:	00 28                	add    %ch,(%eax)
    2141:	1b 31                	sbb    (%ecx),%esi
    2143:	00 00                	add    %al,(%eax)
    2145:	00 07                	add    %al,(%edi)
    2147:	04 71                	add    $0x71,%al
    2149:	09 00                	or     %eax,(%eax)
    214b:	00 3b                	add    %bh,(%ebx)
    214d:	00 00                	add    %al,(%eax)
    214f:	00 01                	add    %al,(%ecx)
    2151:	01 06                	add    %eax,(%esi)
    2153:	df 01                	filds  (%ecx)
    2155:	00 00                	add    %al,(%eax)
    2157:	03 56 09             	add    0x9(%esi),%edx
    215a:	00 00                	add    %al,(%eax)
    215c:	63 18                	arpl   %bx,(%eax)
    215e:	26 00 00             	add    %al,%es:(%eax)
    2161:	00 01                	add    %al,(%ecx)
    2163:	02 07                	add    (%edi),%al
    2165:	d4 02                	aam    $0x2
    2167:	00 00                	add    %al,(%eax)
    2169:	08 1d 09 00 00 03    	or     %bl,0x3000009
    216f:	23 01                	and    (%ecx),%eax
    2171:	66 00 00             	data16 add %al,(%eax)
    2174:	00 09                	add    %cl,(%ecx)
    2176:	66 00 00             	data16 add %al,(%eax)
    2179:	00 00                	add    %al,(%eax)
    217b:	0a 04 3b             	or     (%ebx,%edi,1),%al
    217e:	00 00                	add    %al,(%eax)
    2180:	00 04 5e             	add    %al,(%esi,%ebx,2)
    2183:	09 00                	or     %eax,(%eax)
    2185:	00 7b 00             	add    %bh,0x0(%ebx)
    2188:	00 00                	add    %al,(%eax)
    218a:	7b 00                	jnp    218c <start_-0xfde80>
    218c:	00 00                	add    %al,(%eax)
    218e:	02 00                	add    (%eax),%al
    2190:	0b 04 05 69 6e 74 00 	or     0x746e69(,%eax,1),%eax
    2197:	0c bd                	or     $0xbd,%al
    2199:	09 00                	or     %eax,(%eax)
    219b:	00 01                	add    %al,(%ecx)
    219d:	08 01                	or     %al,(%ecx)
    219f:	29 6d 10             	sub    %ebp,0x10(%ebp)
    21a2:	c0 2d 00 00 00 01 9c 	shrb   $0x9c,0x1000000
    21a9:	ee                   	out    %al,(%dx)
    21aa:	00 00                	add    %al,(%eax)
    21ac:	00 0d 66 6d 74 00    	add    %cl,0x746d66
    21b2:	01 08                	add    %ecx,(%eax)
    21b4:	0e                   	push   %cs
    21b5:	66 00 00             	data16 add %al,(%eax)
    21b8:	00 02                	add    %al,(%edx)
    21ba:	91                   	xchg   %eax,%ecx
    21bb:	00 02                	add    %al,(%edx)
    21bd:	0e                   	push   %cs
    21be:	0c 09                	or     $0x9,%al
    21c0:	00 00                	add    %al,(%eax)
    21c2:	01 0a                	add    %ecx,(%edx)
    21c4:	0a ee                	or     %dh,%ch
    21c6:	00 00                	add    %al,(%eax)
    21c8:	00 03                	add    %al,(%ebx)
    21ca:	91                   	xchg   %eax,%ecx
    21cb:	f0 77 0f             	lock ja 21dd <start_-0xfde2f>
    21ce:	4a                   	dec    %edx
    21cf:	09 00                	or     %eax,(%eax)
    21d1:	00 01                	add    %al,(%ecx)
    21d3:	0b 0d 42 00 00 00    	or     0x42,%ecx
    21d9:	71 0c                	jno    21e7 <start_-0xfde25>
    21db:	00 00                	add    %al,(%eax)
    21dd:	6d                   	insl   (%dx),%es:(%edi)
    21de:	0c 00                	or     $0x0,%al
    21e0:	00 04 5e             	add    %al,(%esi,%ebx,2)
    21e3:	09 00                	or     %eax,(%eax)
    21e5:	00 7b 00             	add    %bh,0x0(%ebx)
    21e8:	00 00                	add    %al,(%eax)
    21ea:	db 00                	fildl  (%eax)
    21ec:	00 00                	add    %al,(%eax)
    21ee:	02 00                	add    (%eax),%al
    21f0:	05 46 6d 10 c0       	add    $0xc0106d46,%eax
    21f5:	6c                   	insb   (%dx),%es:(%edi)
    21f6:	00 00                	add    %al,(%eax)
    21f8:	00 05 4e 6d 10 c0    	add    %al,0xc0106d4e
    21fe:	54                   	push   %esp
    21ff:	00 00                	add    %al,(%eax)
    2201:	00 00                	add    %al,(%eax)
    2203:	10 3b                	adc    %bh,(%ebx)
    2205:	00 00                	add    %al,(%eax)
    2207:	00 ff                	add    %bh,%bh
    2209:	00 00                	add    %al,(%eax)
    220b:	00 11                	add    %dl,(%ecx)
    220d:	ff 00                	incl   (%eax)
    220f:	00 00                	add    %al,(%eax)
    2211:	ff 03                	incl   (%ebx)
    2213:	00 01                	add    %al,(%ecx)
    2215:	04 07                	add    $0x7,%al
    2217:	36 02 00             	add    %ss:(%eax),%al
    221a:	00 00                	add    %al,(%eax)
    221c:	19 03                	sbb    %eax,(%ebx)
    221e:	00 00                	add    %al,(%eax)
    2220:	05 00 01 04 5f       	add    $0x5f040100,%eax
    2225:	0d 00 00 0f 5a       	or     $0x5a0f0000,%eax
    222a:	02 00                	add    (%eax),%al
    222c:	00 0c 5d 02 00 00 00 	add    %cl,0x2(,%ebx,2)
    2233:	00 00                	add    %al,(%eax)
    2235:	00 56 6d             	add    %dl,0x6d(%esi)
    2238:	10 c0                	adc    %al,%al
    223a:	e9 01 00 00 7c       	jmp    7c002240 <__init_hhk_end+0x7befc240>
    223f:	11 00                	adc    %eax,(%eax)
    2241:	00 06                	add    %al,(%esi)
    2243:	4f                   	dec    %edi
    2244:	09 00                	or     %eax,(%eax)
    2246:	00 02                	add    %al,(%edx)
    2248:	28 1b                	sub    %bl,(%ebx)
    224a:	32 00                	xor    (%eax),%al
    224c:	00 00                	add    %al,(%eax)
    224e:	10 04 71             	adc    %al,(%ecx,%esi,2)
    2251:	09 00                	or     %eax,(%eax)
    2253:	00 3c 00             	add    %bh,(%eax,%eax,1)
    2256:	00 00                	add    %al,(%eax)
    2258:	01 01                	add    %eax,(%ecx)
    225a:	06                   	push   %es
    225b:	df 01                	filds  (%ecx)
    225d:	00 00                	add    %al,(%eax)
    225f:	11 3c 00             	adc    %edi,(%eax,%eax,1)
    2262:	00 00                	add    %al,(%eax)
    2264:	06                   	push   %es
    2265:	56                   	push   %esi
    2266:	09 00                	or     %eax,(%eax)
    2268:	00 02                	add    %al,(%edx)
    226a:	63 18                	arpl   %bx,(%eax)
    226c:	26 00 00             	add    %al,%es:(%eax)
    226f:	00 01                	add    %al,(%ecx)
    2271:	04 05                	add    $0x5,%al
    2273:	5e                   	pop    %esi
    2274:	01 00                	add    %eax,(%eax)
    2276:	00 06                	add    %al,(%esi)
    2278:	5e                   	pop    %esi
    2279:	06                   	push   %es
    227a:	00 00                	add    %al,(%eax)
    227c:	03 d1                	add    %ecx,%edx
    227e:	17                   	pop    %ss
    227f:	67 00 00             	add    %al,(%bx,%si)
    2282:	00 01                	add    %al,(%ecx)
    2284:	04 07                	add    $0x7,%al
    2286:	36 02 00             	add    %ss:(%eax),%al
    2289:	00 12                	add    %dl,(%edx)
    228b:	04 05                	add    $0x5,%al
    228d:	69 6e 74 00 01 01 06 	imul   $0x6010100,0x74(%esi),%ebp
    2294:	d8 01                	fadds  (%ecx)
    2296:	00 00                	add    %al,(%eax)
    2298:	01 02                	add    %eax,(%edx)
    229a:	05 77 00 00 00       	add    $0x77,%eax
    229f:	01 08                	add    %ecx,(%eax)
    22a1:	05 59 01 00 00       	add    $0x159,%eax
    22a6:	01 01                	add    %eax,(%ecx)
    22a8:	08 d6                	or     %dl,%dh
    22aa:	01 00                	add    %eax,(%eax)
    22ac:	00 01                	add    %al,(%ecx)
    22ae:	02 07                	add    (%edi),%al
    22b0:	d4 02                	aam    $0x2
    22b2:	00 00                	add    %al,(%eax)
    22b4:	01 08                	add    %ecx,(%eax)
    22b6:	07                   	pop    %es
    22b7:	31 02                	xor    %eax,(%edx)
    22b9:	00 00                	add    %al,(%eax)
    22bb:	01 04 07             	add    %eax,(%edi,%eax,1)
    22be:	3b 02                	cmp    (%edx),%eax
    22c0:	00 00                	add    %al,(%eax)
    22c2:	06                   	push   %es
    22c3:	00 01                	add    %al,(%ecx)
    22c5:	00 00                	add    %al,(%eax)
    22c7:	04 56                	add    $0x56,%al
    22c9:	1a 67 00             	sbb    0x0(%edi),%ah
    22cc:	00 00                	add    %al,(%eax)
    22ce:	04 a6                	add    $0xa6,%al
    22d0:	09 00                	or     %eax,(%eax)
    22d2:	00 2a                	add    %ch,(%edx)
    22d4:	6e                   	outsb  %ds:(%esi),(%dx)
    22d5:	00 00                	add    %al,(%eax)
    22d7:	00 c2                	add    %al,%dl
    22d9:	00 00                	add    %al,(%eax)
    22db:	00 02                	add    %al,(%edx)
    22dd:	00 04 83             	add    %al,(%ebx,%eax,4)
    22e0:	09 00                	or     %eax,(%eax)
    22e2:	00 25 6e 00 00 00    	add    %ah,0x6e
    22e8:	d2 00                	rolb   %cl,(%eax)
    22ea:	00 00                	add    %al,(%eax)
    22ec:	02 00                	add    (%eax),%al
    22ee:	09 93 09 00 00 13    	or     %edx,0x13000009(%ebx)
    22f4:	5b                   	pop    %ebx
    22f5:	00 00                	add    %al,(%eax)
    22f7:	00 e6                	add    %ah,%dh
    22f9:	00 00                	add    %al,(%eax)
    22fb:	00 08                	add    %cl,(%eax)
    22fd:	e6 00                	out    %al,$0x0
    22ff:	00 00                	add    %al,(%eax)
    2301:	00 0a                	add    %cl,(%edx)
    2303:	43                   	inc    %ebx
    2304:	00 00                	add    %al,(%eax)
    2306:	00 09                	add    %cl,(%ecx)
    2308:	9a 09 00 00 16 04 01 	lcall  $0x104,$0x16000009
    230f:	00 00                	add    %al,(%eax)
    2311:	04 01                	add    $0x1,%al
    2313:	00 00                	add    %al,(%eax)
    2315:	08 04 01             	or     %al,(%ecx,%eax,1)
    2318:	00 00                	add    %al,(%eax)
    231a:	08 e6                	or     %ah,%dh
    231c:	00 00                	add    %al,(%eax)
    231e:	00 00                	add    %al,(%eax)
    2320:	0a 3c 00             	or     (%eax,%eax,1),%bh
    2323:	00 00                	add    %al,(%eax)
    2325:	13 bc 09 00 00 01 5a 	adc    0x5a010000(%ecx,%ecx,1),%edi
    232c:	01 25 6f 10 c0 1a    	add    %esp,0x1ac0106f
    2332:	00 00                	add    %al,(%eax)
    2334:	00 01                	add    %al,(%ecx)
    2336:	9c                   	pushf  
    2337:	5f                   	pop    %edi
    2338:	01 00                	add    %eax,(%eax)
    233a:	00 0b                	add    %cl,(%ebx)
    233c:	0c 09                	or     $0x9,%al
    233e:	00 00                	add    %al,(%eax)
    2340:	5a                   	pop    %edx
    2341:	0f 04                	(bad)  
    2343:	01 00                	add    %eax,(%eax)
    2345:	00 02                	add    %al,(%edx)
    2347:	91                   	xchg   %eax,%ecx
    2348:	00 0c 66             	add    %cl,(%esi,%eiz,2)
    234b:	6d                   	insl   (%dx),%es:(%edi)
    234c:	74 00                	je     234e <start_-0xfdcbe>
    234e:	5a                   	pop    %edx
    234f:	1d 04 01 00 00       	sbb    $0x104,%eax
    2354:	8e 0c 00             	mov    (%eax,%eax,1),%cs
    2357:	00 8a 0c 00 00 02    	add    %cl,0x200000c(%edx)
    235d:	14 4a                	adc    $0x4a,%al
    235f:	09 00                	or     %eax,(%eax)
    2361:	00 01                	add    %al,(%ecx)
    2363:	5c                   	pop    %esp
    2364:	0d 48 00 00 00       	or     $0x48,%eax
    2369:	a3 0c 00 00 9f       	mov    %eax,0x9f00000c
    236e:	0c 00                	or     $0x0,%al
    2370:	00 03                	add    %al,(%ebx)
    2372:	3a 6f 10             	cmp    0x10(%edi),%ch
    2375:	c0 5f 01 00          	rcrb   $0x0,0x1(%edi)
    2379:	00 00                	add    %al,(%eax)
    237b:	15 5e 09 00 00       	adc    $0x95e,%eax
    2380:	01 08                	add    %ecx,(%eax)
    2382:	01 56 6d             	add    %edx,0x6d(%esi)
    2385:	10 c0                	adc    %al,%al
    2387:	cf                   	iret   
    2388:	01 00                	add    %eax,(%eax)
    238a:	00 01                	add    %al,(%ecx)
    238c:	9c                   	pushf  
    238d:	0b 0c 09             	or     (%ecx,%ecx,1),%ecx
    2390:	00 00                	add    %al,(%eax)
    2392:	08 1a                	or     %bl,(%edx)
    2394:	04 01                	add    $0x1,%al
    2396:	00 00                	add    %al,(%eax)
    2398:	02 91 00 0c 66 6d    	add    0x6d660c00(%ecx),%dl
    239e:	74 00                	je     23a0 <start_-0xfdc6c>
    23a0:	08 28                	or     %ch,(%eax)
    23a2:	04 01                	add    $0x1,%al
    23a4:	00 00                	add    %al,(%eax)
    23a6:	c0 0c 00 00          	rorb   $0x0,(%eax,%eax,1)
    23aa:	b4 0c                	mov    $0xc,%ah
    23ac:	00 00                	add    %al,(%eax)
    23ae:	16                   	push   %ss
    23af:	4a                   	dec    %edx
    23b0:	09 00                	or     %eax,(%eax)
    23b2:	00 01                	add    %al,(%ecx)
    23b4:	08 35 48 00 00 00    	or     %dh,0x48
    23ba:	e7 0c                	out    %eax,$0xc
    23bc:	00 00                	add    %al,(%eax)
    23be:	e5 0c                	in     $0xc,%eax
    23c0:	00 00                	add    %al,(%eax)
    23c2:	07                   	pop    %es
    23c3:	63 00                	arpl   %ax,(%eax)
    23c5:	0a 0a                	or     (%edx),%cl
    23c7:	3c 00                	cmp    $0x0,%al
    23c9:	00 00                	add    %al,(%eax)
    23cb:	00 0d 00 00 ee 0c    	add    %cl,0xcee0000
    23d1:	00 00                	add    %al,(%eax)
    23d3:	17                   	pop    %ss
    23d4:	6e                   	outsb  %ds:(%esi),(%dx)
    23d5:	75 6d                	jne    2444 <start_-0xfdbc8>
    23d7:	00 01                	add    %al,(%ecx)
    23d9:	0b 09                	or     (%ecx),%ecx
    23db:	6e                   	outsb  %ds:(%esi),(%dx)
    23dc:	00 00                	add    %al,(%eax)
    23de:	00 07                	add    %al,(%edi)
    23e0:	70 74                	jo     2456 <start_-0xfdbb6>
    23e2:	72 00                	jb     23e4 <start_-0xfdc28>
    23e4:	0c 12                	or     $0x12,%al
    23e6:	9f                   	lahf   
    23e7:	00 00                	add    %al,(%eax)
    23e9:	00 48 0d             	add    %cl,0xd(%eax)
    23ec:	00 00                	add    %al,(%eax)
    23ee:	3c 0d                	cmp    $0xd,%al
    23f0:	00 00                	add    %al,(%eax)
    23f2:	0d 61 64 76 00       	or     $0x766461,%eax
    23f7:	0d 12 9f 00 00       	or     $0x9f12,%eax
    23fc:	00 02                	add    %al,(%edx)
    23fe:	91                   	xchg   %eax,%ecx
    23ff:	5c                   	pop    %esp
    2400:	05 e3 6d 10 c0       	add    $0xc0106de3,%eax
    2405:	2a 00                	sub    (%eax),%al
    2407:	00 00                	add    %al,(%eax)
    2409:	11 02                	adc    %eax,(%edx)
    240b:	00 00                	add    %al,(%eax)
    240d:	0d 73 74 72 00       	or     $0x727473,%eax
    2412:	1c 1b                	sbb    $0x1b,%al
    2414:	04 01                	add    $0x1,%al
    2416:	00 00                	add    %al,(%eax)
    2418:	01 56 03             	add    %edx,0x3(%esi)
    241b:	fd                   	std    
    241c:	6d                   	insl   (%dx),%es:(%edi)
    241d:	10 c0                	adc    %al,%al
    241f:	eb 00                	jmp    2421 <start_-0xfdbeb>
    2421:	00 00                	add    %al,(%eax)
    2423:	03 05 6e 10 c0 d2    	add    0xd2c0106e,%eax
    2429:	00 00                	add    %al,(%eax)
    242b:	00 00                	add    %al,(%eax)
    242d:	05 0d 6e 10 c0       	add    $0xc0106e0d,%eax
    2432:	22 00                	and    (%eax),%al
    2434:	00 00                	add    %al,(%eax)
    2436:	38 02                	cmp    %al,(%edx)
    2438:	00 00                	add    %al,(%eax)
    243a:	04 83                	add    $0x83,%al
    243c:	09 00                	or     %eax,(%eax)
    243e:	00 25 6e 00 00 00    	add    %ah,0x6e
    2444:	2e 02 00             	add    %cs:(%eax),%al
    2447:	00 02                	add    %al,(%edx)
    2449:	00 03                	add    %al,(%ebx)
    244b:	2a 6e 10             	sub    0x10(%esi),%ch
    244e:	c0 c2 00             	rol    $0x0,%dl
    2451:	00 00                	add    %al,(%eax)
    2453:	00 05 2f 6e 10 c0    	add    %al,0xc0106e2f
    2459:	25 00 00 00 6c       	and    $0x6c000000,%eax
    245e:	02 00                	add    (%eax),%al
    2460:	00 0e                	add    %cl,(%esi)
    2462:	b7 09                	mov    $0x9,%bh
    2464:	00 00                	add    %al,(%eax)
    2466:	29 22                	sub    %esp,(%edx)
    2468:	9f                   	lahf   
    2469:	00 00                	add    %al,(%eax)
    246b:	00 01                	add    %al,(%ecx)
    246d:	50                   	push   %eax
    246e:	04 a6                	add    $0xa6,%al
    2470:	09 00                	or     %eax,(%eax)
    2472:	00 2a                	add    %ch,(%edx)
    2474:	6e                   	outsb  %ds:(%esi),(%dx)
    2475:	00 00                	add    %al,(%eax)
    2477:	00 62 02             	add    %ah,0x2(%edx)
    247a:	00 00                	add    %al,(%eax)
    247c:	02 00                	add    (%eax),%al
    247e:	03 4c 6e 10          	add    0x10(%esi,%ebp,2),%ecx
    2482:	c0 b2 00 00 00 00 05 	shlb   $0x5,0x0(%edx)
    2489:	54                   	push   %esp
    248a:	6e                   	outsb  %ds:(%esi),(%dx)
    248b:	10 c0                	adc    %al,%al
    248d:	25 00 00 00 93       	and    $0x93000000,%eax
    2492:	02 00                	add    (%eax),%al
    2494:	00 04 83             	add    %al,(%ebx,%eax,4)
    2497:	09 00                	or     %eax,(%eax)
    2499:	00 25 6e 00 00 00    	add    %ah,0x6e
    249f:	89 02                	mov    %eax,(%edx)
    24a1:	00 00                	add    %al,(%eax)
    24a3:	02 00                	add    (%eax),%al
    24a5:	03 71 6e             	add    0x6e(%ecx),%esi
    24a8:	10 c0                	adc    %al,%al
    24aa:	c2 00 00             	ret    $0x0
    24ad:	00 00                	add    %al,(%eax)
    24af:	05 79 6e 10 c0       	add    $0xc0106e79,%eax
    24b4:	57                   	push   %edi
    24b5:	00 00                	add    %al,(%eax)
    24b7:	00 eb                	add    %ch,%bl
    24b9:	02 00                	add    (%eax),%al
    24bb:	00 04 83             	add    %al,(%ebx,%eax,4)
    24be:	09 00                	or     %eax,(%eax)
    24c0:	00 25 6e 00 00 00    	add    %ah,0x6e
    24c6:	b0 02                	mov    $0x2,%al
    24c8:	00 00                	add    %al,(%eax)
    24ca:	02 00                	add    (%eax),%al
    24cc:	05 a3 6e 10 c0       	add    $0xc0106ea3,%eax
    24d1:	2d 00 00 00 e1       	sub    $0xe1000000,%eax
    24d6:	02 00                	add    (%eax),%al
    24d8:	00 07                	add    %al,(%edi)
    24da:	70 00                	jo     24dc <start_-0xfdb30>
    24dc:	38 1d 6e 00 00 00    	cmp    %bl,0x6e
    24e2:	72 0d                	jb     24f1 <start_-0xfdb1b>
    24e4:	00 00                	add    %al,(%eax)
    24e6:	70 0d                	jo     24f5 <start_-0xfdb17>
    24e8:	00 00                	add    %al,(%eax)
    24ea:	07                   	pop    %es
    24eb:	63 5f 00             	arpl   %bx,0x0(%edi)
    24ee:	39 1e                	cmp    %ebx,(%esi)
    24f0:	3c 00                	cmp    $0x0,%al
    24f2:	00 00                	add    %al,(%eax)
    24f4:	7e 0d                	jle    2503 <start_-0xfdb09>
    24f6:	00 00                	add    %al,(%eax)
    24f8:	7a 0d                	jp     2507 <start_-0xfdb05>
    24fa:	00 00                	add    %al,(%eax)
    24fc:	00 03                	add    %al,(%ebx)
    24fe:	96                   	xchg   %eax,%esi
    24ff:	6e                   	outsb  %ds:(%esi),(%dx)
    2500:	10 c0                	adc    %al,%al
    2502:	c2 00 00             	ret    $0x0
    2505:	00 00                	add    %al,(%eax)
    2507:	18 d0                	sbb    %dl,%al
    2509:	6e                   	outsb  %ds:(%esi),(%dx)
    250a:	10 c0                	adc    %al,%al
    250c:	34 00                	xor    $0x0,%al
    250e:	00 00                	add    %al,(%eax)
    2510:	0e                   	push   %cs
    2511:	a1 09 00 00 42       	mov    0x42000009,%eax
    2516:	1f                   	pop    %ds
    2517:	a6                   	cmpsb  %es:(%edi),%ds:(%esi)
    2518:	00 00                	add    %al,(%eax)
    251a:	00 01                	add    %al,(%ecx)
    251c:	50                   	push   %eax
    251d:	04 83                	add    $0x83,%al
    251f:	09 00                	or     %eax,(%eax)
    2521:	00 25 6e 00 00 00    	add    %ah,0x6e
    2527:	11 03                	adc    %eax,(%ebx)
    2529:	00 00                	add    %al,(%eax)
    252b:	02 00                	add    (%eax),%al
    252d:	03 f8                	add    %eax,%edi
    252f:	6e                   	outsb  %ds:(%esi),(%dx)
    2530:	10 c0                	adc    %al,%al
    2532:	c2 00 00             	ret    $0x0
    2535:	00 00                	add    %al,(%eax)
    2537:	00 00                	add    %al,(%eax)
    2539:	f8                   	clc    
    253a:	01 00                	add    %eax,(%eax)
    253c:	00 05 00 01 04 d8    	add    %al,0xd8040100
    2542:	0e                   	push   %cs
    2543:	00 00                	add    %al,(%eax)
    2545:	0a 5a 02             	or     0x2(%edx),%bl
    2548:	00 00                	add    %al,(%eax)
    254a:	0c 77                	or     $0x77,%al
    254c:	02 00                	add    (%eax),%al
    254e:	00 00                	add    %al,(%eax)
    2550:	00 00                	add    %al,(%eax)
    2552:	00 3f                	add    %bh,(%edi)
    2554:	6f                   	outsl  %ds:(%esi),(%dx)
    2555:	10 c0                	adc    %al,%al
    2557:	e6 00                	out    %al,$0x0
    2559:	00 00                	add    %al,(%eax)
    255b:	49                   	dec    %ecx
    255c:	13 00                	adc    (%eax),%eax
    255e:	00 01                	add    %al,(%ecx)
    2560:	04 05                	add    $0x5,%al
    2562:	5e                   	pop    %esi
    2563:	01 00                	add    %eax,(%eax)
    2565:	00 01                	add    %al,(%ecx)
    2567:	04 07                	add    $0x7,%al
    2569:	36 02 00             	add    %ss:(%eax),%al
    256c:	00 0b                	add    %cl,(%ebx)
    256e:	04 05                	add    $0x5,%al
    2570:	69 6e 74 00 0c 4b 00 	imul   $0x4b0c00,0x74(%esi),%ebp
    2577:	00 00                	add    %al,(%eax)
    2579:	4b                   	dec    %ebx
    257a:	00 00                	add    %al,(%eax)
    257c:	00 0d 2d 00 00 00    	add    %cl,0x2d
    2582:	24 00                	and    $0x0,%al
    2584:	01 01                	add    %eax,(%ecx)
    2586:	06                   	push   %es
    2587:	df 01                	filds  (%ecx)
    2589:	00 00                	add    %al,(%eax)
    258b:	0e                   	push   %cs
    258c:	c4 09                	les    (%ecx),%ecx
    258e:	00 00                	add    %al,(%eax)
    2590:	01 05 06 3b 00 00    	add    %eax,0x3b06
    2596:	00 05 03 20 90 12    	add    %al,0x12902003
    259c:	c0 06 ce             	rolb   $0xce,(%esi)
    259f:	09 00                	or     %eax,(%eax)
    25a1:	00 2c ba             	add    %ch,(%edx,%edi,4)
    25a4:	00 00                	add    %al,(%eax)
    25a6:	00 10                	add    %dl,(%eax)
    25a8:	70 10                	jo     25ba <start_-0xfda52>
    25aa:	c0 15 00 00 00 01 9c 	rclb   $0x9c,0x1000000
    25b1:	ba 00 00 00 02       	mov    $0x2000000,%edx
    25b6:	d3 09                	rorl   %cl,(%ecx)
    25b8:	00 00                	add    %al,(%eax)
    25ba:	2c 0a                	sub    $0xa,%al
    25bc:	34 00                	xor    $0x0,%al
    25be:	00 00                	add    %al,(%eax)
    25c0:	02 91 00 07 73 74    	add    0x74730700(%ecx),%dl
    25c6:	72 00                	jb     25c8 <start_-0xfda44>
    25c8:	2c 17                	sub    $0x17,%al
    25ca:	ba 00 00 00 9d       	mov    $0x9d000000,%edx
    25cf:	0d 00 00 99 0d       	or     $0xd990000,%eax
    25d4:	00 00                	add    %al,(%eax)
    25d6:	03 9c 04 00 00 2c 20 	add    0x202c0000(%esp,%eax,1),%ebx
    25dd:	34 00                	xor    $0x0,%al
    25df:	00 00                	add    %al,(%eax)
    25e1:	b2 0d                	mov    $0xd,%dl
    25e3:	00 00                	add    %al,(%eax)
    25e5:	ae                   	scas   %es:(%edi),%al
    25e6:	0d 00 00 05 23       	or     $0x23050000,%eax
    25eb:	70 10                	jo     25fd <start_-0xfda0f>
    25ed:	c0 bf 00 00 00 00 08 	sarb   $0x8,0x0(%edi)
    25f4:	4b                   	dec    %ebx
    25f5:	00 00                	add    %al,(%eax)
    25f7:	00 06                	add    %al,(%esi)
    25f9:	83 09 00             	orl    $0x0,(%ecx)
    25fc:	00 1e                	add    %bl,(%esi)
    25fe:	ba 00 00 00 be       	mov    $0xbe000000,%edx
    2603:	6f                   	outsl  %ds:(%esi),(%dx)
    2604:	10 c0                	adc    %al,%al
    2606:	52                   	push   %edx
    2607:	00 00                	add    %al,(%eax)
    2609:	00 01                	add    %al,(%ecx)
    260b:	9c                   	pushf  
    260c:	51                   	push   %ecx
    260d:	01 00                	add    %eax,(%eax)
    260f:	00 02                	add    %al,(%edx)
    2611:	d3 09                	rorl   %cl,(%ecx)
    2613:	00 00                	add    %al,(%eax)
    2615:	1e                   	push   %ds
    2616:	15 34 00 00 00       	adc    $0x34,%eax
    261b:	02 91 00 07 73 74    	add    0x74730700(%ecx),%dl
    2621:	72 00                	jb     2623 <start_-0xfd9e9>
    2623:	1e                   	push   %ds
    2624:	22 ba 00 00 00 c9    	and    -0x37000000(%edx),%bh
    262a:	0d 00 00 c3 0d       	or     $0xdc30000,%eax
    262f:	00 00                	add    %al,(%eax)
    2631:	03 9c 04 00 00 1e 2b 	add    0x2b1e0000(%esp,%eax,1),%ebx
    2638:	34 00                	xor    $0x0,%al
    263a:	00 00                	add    %al,(%eax)
    263c:	e8 0d 00 00 e0       	call   e000264e <__heap_start+0x1fed164e>
    2641:	0d 00 00 03 b8       	or     $0xb8030000,%eax
    2646:	01 00                	add    %eax,(%eax)
    2648:	00 1e                	add    %bl,(%esi)
    264a:	3f                   	aas    
    264b:	51                   	push   %ecx
    264c:	01 00                	add    %eax,(%eax)
    264e:	00 0d 0e 00 00 07    	add    %cl,0x700000e
    2654:	0e                   	push   %cs
    2655:	00 00                	add    %al,(%eax)
    2657:	0f df 6f 10          	pandn  0x10(%edi),%mm5
    265b:	c0 14 00 00          	rclb   $0x0,(%eax,%eax,1)
    265f:	00 47 01             	add    %al,0x1(%edi)
    2662:	00 00                	add    %al,(%eax)
    2664:	04 5f                	add    $0x5f,%al
    2666:	76 00                	jbe    2668 <start_-0xfd9a4>
    2668:	22 16                	and    (%esi),%dl
    266a:	56                   	push   %esi
    266b:	01 00                	add    %eax,(%eax)
    266d:	00 28                	add    %ch,(%eax)
    266f:	0e                   	push   %cs
    2670:	00 00                	add    %al,(%eax)
    2672:	24 0e                	and    $0xe,%al
    2674:	00 00                	add    %al,(%eax)
    2676:	05 f3 6f 10 c0       	add    $0xc0106ff3,%eax
    267b:	5d                   	pop    %ebp
    267c:	01 00                	add    %eax,(%eax)
    267e:	00 00                	add    %al,(%eax)
    2680:	05 0b 70 10 c0       	add    $0xc010700b,%eax
    2685:	5d                   	pop    %ebp
    2686:	01 00                	add    %eax,(%eax)
    2688:	00 00                	add    %al,(%eax)
    268a:	08 56 01             	or     %dl,0x1(%esi)
    268d:	00 00                	add    %al,(%eax)
    268f:	01 04 07             	add    %eax,(%edi,%eax,1)
    2692:	3b 02                	cmp    (%edx),%eax
    2694:	00 00                	add    %al,(%eax)
    2696:	10 a6 09 00 00 01    	adc    %ah,0x1000009(%esi)
    269c:	08 01                	or     %al,(%ecx)
    269e:	ba 00 00 00 3f       	mov    $0x3f000000,%edx
    26a3:	6f                   	outsl  %ds:(%esi),(%dx)
    26a4:	10 c0                	adc    %al,%al
    26a6:	7f 00                	jg     26a8 <start_-0xfd964>
    26a8:	00 00                	add    %al,(%eax)
    26aa:	01 9c 03 d3 09 00 00 	add    %ebx,0x9d3(%ebx,%eax,1)
    26b1:	08 1f                	or     %bl,(%edi)
    26b3:	56                   	push   %esi
    26b4:	01 00                	add    %eax,(%eax)
    26b6:	00 43 0e             	add    %al,0xe(%ebx)
    26b9:	00 00                	add    %al,(%eax)
    26bb:	3b 0e                	cmp    (%esi),%ecx
    26bd:	00 00                	add    %al,(%eax)
    26bf:	11 73 74             	adc    %esi,0x74(%ebx)
    26c2:	72 00                	jb     26c4 <start_-0xfd948>
    26c4:	01 08                	add    %ecx,(%eax)
    26c6:	2c ba                	sub    $0xba,%al
    26c8:	00 00                	add    %al,(%eax)
    26ca:	00 02                	add    %al,(%edx)
    26cc:	91                   	xchg   %eax,%ecx
    26cd:	04 02                	add    $0x2,%al
    26cf:	9c                   	pushf  
    26d0:	04 00                	add    $0x0,%al
    26d2:	00 08                	add    %cl,(%eax)
    26d4:	35 34 00 00 00       	xor    $0x34,%eax
    26d9:	02 91 08 02 b8 01    	add    0x1b80208(%ecx),%dl
    26df:	00 00                	add    %al,(%eax)
    26e1:	08 49 51             	or     %cl,0x51(%ecx)
    26e4:	01 00                	add    %eax,(%eax)
    26e6:	00 02                	add    %al,(%edx)
    26e8:	91                   	xchg   %eax,%ecx
    26e9:	0c 04                	or     $0x4,%al
    26eb:	70 74                	jo     2761 <start_-0xfd8ab>
    26ed:	72 00                	jb     26ef <start_-0xfd91d>
    26ef:	0a 12                	or     (%edx),%dl
    26f1:	56                   	push   %esi
    26f2:	01 00                	add    %eax,(%eax)
    26f4:	00 5f 0e             	add    %bl,0xe(%edi)
    26f7:	00 00                	add    %al,(%eax)
    26f9:	59                   	pop    %ecx
    26fa:	0e                   	push   %cs
    26fb:	00 00                	add    %al,(%eax)
    26fd:	09 74 6f 10          	or     %esi,0x10(%edi,%ebp,2)
    2701:	c0 2e 00             	shrb   $0x0,(%esi)
    2704:	00 00                	add    %al,(%eax)
    2706:	04 69                	add    $0x69,%al
    2708:	00 11                	add    %dl,(%ecx)
    270a:	17                   	pop    %ss
    270b:	56                   	push   %esi
    270c:	01 00                	add    %eax,(%eax)
    270e:	00 73 0e             	add    %dh,0xe(%ebx)
    2711:	00 00                	add    %al,(%eax)
    2713:	71 0e                	jno    2723 <start_-0xfd8e9>
    2715:	00 00                	add    %al,(%eax)
    2717:	09 7e 6f             	or     %edi,0x6f(%esi)
    271a:	10 c0                	adc    %al,%al
    271c:	18 00                	sbb    %al,(%eax)
    271e:	00 00                	add    %al,(%eax)
    2720:	04 63                	add    $0x63,%al
    2722:	00 12                	add    %dl,(%edx)
    2724:	0e                   	push   %cs
    2725:	4b                   	dec    %ebx
    2726:	00 00                	add    %al,(%eax)
    2728:	00 7b 0e             	add    %bh,0xe(%ebx)
    272b:	00 00                	add    %al,(%eax)
    272d:	79 0e                	jns    273d <start_-0xfd8cf>
    272f:	00 00                	add    %al,(%eax)
    2731:	00 00                	add    %al,(%eax)
    2733:	00 00                	add    %al,(%eax)
    2735:	09 03                	or     %eax,(%ebx)
    2737:	00 00                	add    %al,(%eax)
    2739:	05 00 01 04 ea       	add    $0xea040100,%eax
    273e:	0f 00 00             	sldt   (%eax)
    2741:	0a 5a 02             	or     0x2(%edx),%bl
    2744:	00 00                	add    %al,(%eax)
    2746:	0c a0                	or     $0xa0,%al
    2748:	02 00                	add    (%eax),%al
    274a:	00 00                	add    %al,(%eax)
    274c:	00 00                	add    %al,(%eax)
    274e:	00 25 70 10 c0 c0    	add    %ah,0xc0c01070
    2754:	00 00                	add    %al,(%eax)
    2756:	00 bf 14 00 00 01    	add    %bh,0x1000014(%edi)
    275c:	01 06                	add    %eax,(%esi)
    275e:	d8 01                	fadds  (%ecx)
    2760:	00 00                	add    %al,(%eax)
    2762:	01 02                	add    %eax,(%edx)
    2764:	05 77 00 00 00       	add    $0x77,%eax
    2769:	01 04 05 5e 01 00 00 	add    %eax,0x15e(,%eax,1)
    2770:	01 08                	add    %ecx,(%eax)
    2772:	05 59 01 00 00       	add    $0x159,%eax
    2777:	09 69 04             	or     %ebp,0x4(%ecx)
    277a:	00 00                	add    %al,(%eax)
    277c:	02 2e                	add    (%esi),%ch
    277e:	18 53 00             	sbb    %dl,0x0(%ebx)
    2781:	00 00                	add    %al,(%eax)
    2783:	0b 42 00             	or     0x0(%edx),%eax
    2786:	00 00                	add    %al,(%eax)
    2788:	01 01                	add    %eax,(%ecx)
    278a:	08 d6                	or     %dl,%dh
    278c:	01 00                	add    %eax,(%eax)
    278e:	00 01                	add    %al,(%ecx)
    2790:	02 07                	add    (%edi),%al
    2792:	d4 02                	aam    $0x2
    2794:	00 00                	add    %al,(%eax)
    2796:	01 04 07             	add    %eax,(%edi,%eax,1)
    2799:	36 02 00             	add    %ss:(%eax),%al
    279c:	00 01                	add    %al,(%ecx)
    279e:	08 07                	or     %al,(%edi)
    27a0:	31 02                	xor    %eax,(%edx)
    27a2:	00 00                	add    %al,(%eax)
    27a4:	0c 04                	or     $0x4,%al
    27a6:	05 69 6e 74 00       	add    $0x746e69,%eax
    27ab:	01 04 07             	add    %eax,(%edi,%eax,1)
    27ae:	3b 02                	cmp    (%edx),%eax
    27b0:	00 00                	add    %al,(%eax)
    27b2:	09 5e 06             	or     %ebx,0x6(%esi)
    27b5:	00 00                	add    %al,(%eax)
    27b7:	03 d1                	add    %ecx,%edx
    27b9:	17                   	pop    %ss
    27ba:	61                   	popa   
    27bb:	00 00                	add    %al,(%eax)
    27bd:	00 07                	add    %al,(%edi)
    27bf:	e1 09                	loope  27ca <start_-0xfd842>
    27c1:	00 00                	add    %al,(%eax)
    27c3:	2b 6f 00             	sub    0x0(%edi),%ebp
    27c6:	00 00                	add    %al,(%eax)
    27c8:	b0 70                	mov    $0x70,%al
    27ca:	10 c0                	adc    %al,%al
    27cc:	35 00 00 00 01       	xor    $0x1000000,%eax
    27d1:	9c                   	pushf  
    27d2:	37                   	aaa    
    27d3:	01 00                	add    %eax,(%eax)
    27d5:	00 05 03 0a 00 00    	add    %al,0xa03
    27db:	2b 14 37             	sub    (%edi,%esi,1),%edx
    27de:	01 00                	add    %eax,(%eax)
    27e0:	00 93 0e 00 00 8d    	add    %dl,-0x72fffff2(%ebx)
    27e6:	0e                   	push   %cs
    27e7:	00 00                	add    %al,(%eax)
    27e9:	05 08 0a 00 00       	add    $0xa08,%eax
    27ee:	2b 26                	sub    (%esi),%esp
    27f0:	37                   	aaa    
    27f1:	01 00                	add    %eax,(%eax)
    27f3:	00 b1 0e 00 00 ab    	add    %dh,-0x54fffff2(%ecx)
    27f9:	0e                   	push   %cs
    27fa:	00 00                	add    %al,(%eax)
    27fc:	02 6e 75             	add    0x75(%esi),%ch
    27ff:	6d                   	insl   (%dx),%es:(%edi)
    2800:	00 2b                	add    %ch,(%ebx)
    2802:	33 7d 00             	xor    0x0(%ebp),%edi
    2805:	00 00                	add    %al,(%eax)
    2807:	cf                   	iret   
    2808:	0e                   	push   %cs
    2809:	00 00                	add    %al,(%eax)
    280b:	c9                   	leave  
    280c:	0e                   	push   %cs
    280d:	00 00                	add    %al,(%eax)
    280f:	03 70 31             	add    0x31(%eax),%esi
    2812:	00 2d 0e 3d 01 00    	add    %ch,0x13d0e
    2818:	00 ed                	add    %ch,%ch
    281a:	0e                   	push   %cs
    281b:	00 00                	add    %al,(%eax)
    281d:	e7 0e                	out    %eax,$0xe
    281f:	00 00                	add    %al,(%eax)
    2821:	03 70 32             	add    0x32(%eax),%esi
    2824:	00 2e                	add    %ch,(%esi)
    2826:	0e                   	push   %cs
    2827:	3d 01 00 00 0b       	cmp    $0xb000001,%eax
    282c:	0f 00 00             	sldt   (%eax)
    282f:	05 0f 00 00 06       	add    $0x600000f,%eax
    2834:	bf 70 10 c0 1c       	mov    $0x1cc01070,%edi
    2839:	00 00                	add    %al,(%eax)
    283b:	00 03                	add    %al,(%ebx)
    283d:	69 00 2f 11 7d 00    	imul   $0x7d112f,(%eax),%eax
    2843:	00 00                	add    %al,(%eax)
    2845:	27                   	daa    
    2846:	0f 00 00             	sldt   (%eax)
    2849:	23 0f                	and    (%edi),%ecx
    284b:	00 00                	add    %al,(%eax)
    284d:	06                   	push   %es
    284e:	cd 70                	int    $0x70
    2850:	10 c0                	adc    %al,%al
    2852:	0e                   	push   %cs
    2853:	00 00                	add    %al,(%eax)
    2855:	00 04 fe             	add    %al,(%esi,%edi,8)
    2858:	09 00                	or     %eax,(%eax)
    285a:	00 30                	add    %dh,(%eax)
    285c:	0d 6f 00 00 00       	or     $0x6f,%eax
    2861:	3d 0f 00 00 37       	cmp    $0x3700000f,%eax
    2866:	0f 00 00             	sldt   (%eax)
    2869:	00 00                	add    %al,(%eax)
    286b:	00 08                	add    %cl,(%eax)
    286d:	3c 01                	cmp    $0x1,%al
    286f:	00 00                	add    %al,(%eax)
    2871:	0d 08 42 00 00       	or     $0x4208,%eax
    2876:	00 07                	add    %al,(%edi)
    2878:	a5                   	movsl  %ds:(%esi),%es:(%edi)
    2879:	08 00                	or     %al,(%eax)
    287b:	00 21                	add    %ah,(%ecx)
    287d:	c2 01 00             	ret    $0x1
    2880:	00 8b 70 10 c0 25    	add    %cl,0x25c01070(%ebx)
    2886:	00 00                	add    %al,(%eax)
    2888:	00 01                	add    %al,(%ecx)
    288a:	9c                   	pushf  
    288b:	c2 01 00             	ret    $0x1
    288e:	00 02                	add    %al,(%edx)
    2890:	70 74                	jo     2906 <start_-0xfd706>
    2892:	72 00                	jb     2894 <start_-0xfd778>
    2894:	21 0e                	and    %ecx,(%esi)
    2896:	c2 01 00             	ret    $0x1
    2899:	00 5c 0f 00          	add    %bl,0x0(%edi,%ecx,1)
    289d:	00 58 0f             	add    %bl,0xf(%eax)
    28a0:	00 00                	add    %al,(%eax)
    28a2:	05 d3 09 00 00       	add    $0x9d3,%eax
    28a7:	21 17                	and    %edx,(%edi)
    28a9:	6f                   	outsl  %ds:(%esi),(%dx)
    28aa:	00 00                	add    %al,(%eax)
    28ac:	00 6f 0f             	add    %ch,0xf(%edi)
    28af:	00 00                	add    %al,(%eax)
    28b1:	6b 0f 00             	imul   $0x0,(%edi),%ecx
    28b4:	00 02                	add    %al,(%edx)
    28b6:	6e                   	outsb  %ds:(%esi),(%dx)
    28b7:	75 6d                	jne    2926 <start_-0xfd6e6>
    28b9:	00 21                	add    %ah,(%ecx)
    28bb:	25 7d 00 00 00       	and    $0x7d,%eax
    28c0:	83 0f 00             	orl    $0x0,(%edi)
    28c3:	00 7f 0f             	add    %bh,0xf(%edi)
    28c6:	00 00                	add    %al,(%eax)
    28c8:	04 f8                	add    $0xf8,%al
    28ca:	09 00                	or     %eax,(%eax)
    28cc:	00 23                	add    %ah,(%ebx)
    28ce:	0e                   	push   %cs
    28cf:	3d 01 00 00 94       	cmp    $0x94000001,%eax
    28d4:	0f 00 00             	sldt   (%eax)
    28d7:	90                   	nop
    28d8:	0f 00 00             	sldt   (%eax)
    28db:	06                   	push   %es
    28dc:	98                   	cwtl   
    28dd:	70 10                	jo     28ef <start_-0xfd71d>
    28df:	c0 11 00             	rclb   $0x0,(%ecx)
    28e2:	00 00                	add    %al,(%eax)
    28e4:	03 69 00             	add    0x0(%ecx),%ebp
    28e7:	24 11                	and    $0x11,%al
    28e9:	7d 00                	jge    28eb <start_-0xfd721>
    28eb:	00 00                	add    %al,(%eax)
    28ed:	a7                   	cmpsl  %es:(%edi),%ds:(%esi)
    28ee:	0f 00 00             	sldt   (%eax)
    28f1:	a3 0f 00 00 00       	mov    %eax,0xf
    28f6:	00 0e                	add    %cl,(%esi)
    28f8:	04 07                	add    $0x7,%al
    28fa:	d9 09                	(bad)  (%ecx)
    28fc:	00 00                	add    %al,(%eax)
    28fe:	10 c2                	adc    %al,%dl
    2900:	01 00                	add    %eax,(%eax)
    2902:	00 4e 70             	add    %cl,0x70(%esi)
    2905:	10 c0                	adc    %al,%al
    2907:	3d 00 00 00 01       	cmp    $0x1000000,%eax
    290c:	9c                   	pushf  
    290d:	76 02                	jbe    2911 <start_-0xfd6fb>
    290f:	00 00                	add    %al,(%eax)
    2911:	05 f1 09 00 00       	add    $0x9f1,%eax
    2916:	10 0f                	adc    %cl,(%edi)
    2918:	c2 01 00             	ret    $0x1
    291b:	00 b8 0f 00 00 b4    	add    %bh,-0x4bfffff1(%eax)
    2921:	0f 00 00             	sldt   (%eax)
    2924:	02 73 72             	add    0x72(%ebx),%dh
    2927:	63 00                	arpl   %ax,(%eax)
    2929:	10 21                	adc    %ah,(%ecx)
    292b:	37                   	aaa    
    292c:	01 00                	add    %eax,(%eax)
    292e:	00 cc                	add    %cl,%ah
    2930:	0f 00 00             	sldt   (%eax)
    2933:	c4 0f                	les    (%edi),%ecx
    2935:	00 00                	add    %al,(%eax)
    2937:	02 6e 75             	add    0x75(%esi),%ch
    293a:	6d                   	insl   (%dx),%es:(%edi)
    293b:	00 10                	add    %dl,(%eax)
    293d:	2d 7d 00 00 00       	sub    $0x7d,%eax
    2942:	e9 0f 00 00 e3       	jmp    e3002956 <__heap_start+0x22ed1956>
    2947:	0f 00 00             	sldt   (%eax)
    294a:	04 e8                	add    $0xe8,%al
    294c:	09 00                	or     %eax,(%eax)
    294e:	00 12                	add    %dl,(%edx)
    2950:	0e                   	push   %cs
    2951:	3d 01 00 00 ff       	cmp    $0xff000001,%eax
    2956:	0f 00 00             	sldt   (%eax)
    2959:	fb                   	sti    
    295a:	0f 00 00             	sldt   (%eax)
    295d:	04 f6                	add    $0xf6,%al
    295f:	09 00                	or     %eax,(%eax)
    2961:	00 13                	add    %dl,(%ebx)
    2963:	14 76                	adc    $0x76,%al
    2965:	02 00                	add    (%eax),%al
    2967:	00 13                	add    %dl,(%ebx)
    2969:	10 00                	adc    %al,(%eax)
    296b:	00 0b                	add    %cl,(%ebx)
    296d:	10 00                	adc    %al,(%eax)
    296f:	00 0f                	add    %cl,(%edi)
    2971:	60                   	pusha  
    2972:	70 10                	jo     2984 <start_-0xfd688>
    2974:	c0 15 00 00 00 5a 02 	rclb   $0x2,0x5a000000
    297b:	00 00                	add    %al,(%eax)
    297d:	03 69 00             	add    0x0(%ecx),%ebp
    2980:	15 15 7d 00 00       	adc    $0x7d15,%eax
    2985:	00 2c 10             	add    %ch,(%eax,%edx,1)
    2988:	00 00                	add    %al,(%eax)
    298a:	2a 10                	sub    (%eax),%dl
    298c:	00 00                	add    %al,(%eax)
    298e:	00 06                	add    %al,(%esi)
    2990:	7b 70                	jnp    2a02 <start_-0xfd60a>
    2992:	10 c0                	adc    %al,%al
    2994:	10 00                	adc    %al,(%eax)
    2996:	00 00                	add    %al,(%eax)
    2998:	03 69 00             	add    0x0(%ecx),%ebp
    299b:	19 15 7d 00 00 00    	sbb    %edx,0x7d
    29a1:	38 10                	cmp    %dl,(%eax)
    29a3:	00 00                	add    %al,(%eax)
    29a5:	32 10                	xor    (%eax),%dl
    29a7:	00 00                	add    %al,(%eax)
    29a9:	00 00                	add    %al,(%eax)
    29ab:	08 4e 00             	or     %cl,0x0(%esi)
    29ae:	00 00                	add    %al,(%eax)
    29b0:	10 35 09 00 00 01    	adc    %dh,0x1000009
    29b6:	05 01 c2 01 00       	add    $0x1c201,%eax
    29bb:	00 25 70 10 c0 29    	add    %ah,0x29c01070
    29c1:	00 00                	add    %al,(%eax)
    29c3:	00 01                	add    %al,(%ecx)
    29c5:	9c                   	pushf  
    29c6:	05 f1 09 00 00       	add    $0x9f1,%eax
    29cb:	05 0e c2 01 00       	add    $0x1c20e,%eax
    29d0:	00 4e 10             	add    %cl,0x10(%esi)
    29d3:	00 00                	add    %al,(%eax)
    29d5:	4a                   	dec    %edx
    29d6:	10 00                	adc    %al,(%eax)
    29d8:	00 02                	add    %al,(%edx)
    29da:	73 72                	jae    2a4e <start_-0xfd5be>
    29dc:	63 00                	arpl   %ax,(%eax)
    29de:	05 20 37 01 00       	add    $0x13720,%eax
    29e3:	00 60 10             	add    %ah,0x10(%eax)
    29e6:	00 00                	add    %al,(%eax)
    29e8:	5a                   	pop    %edx
    29e9:	10 00                	adc    %al,(%eax)
    29eb:	00 02                	add    %al,(%edx)
    29ed:	6e                   	outsb  %ds:(%esi),(%dx)
    29ee:	75 6d                	jne    2a5d <start_-0xfd5af>
    29f0:	00 05 2c 7d 00 00    	add    %al,0x7d2c
    29f6:	00 78 10             	add    %bh,0x10(%eax)
    29f9:	00 00                	add    %al,(%eax)
    29fb:	72 10                	jb     2a0d <start_-0xfd5ff>
    29fd:	00 00                	add    %al,(%eax)
    29ff:	04 e8                	add    $0xe8,%al
    2a01:	09 00                	or     %eax,(%eax)
    2a03:	00 07                	add    %al,(%edi)
    2a05:	0e                   	push   %cs
    2a06:	3d 01 00 00 8e       	cmp    $0x8e000001,%eax
    2a0b:	10 00                	adc    %al,(%eax)
    2a0d:	00 8a 10 00 00 04    	add    %cl,0x4000010(%edx)
    2a13:	f6 09 00             	testb  $0x0,(%ecx)
    2a16:	00 08                	add    %cl,(%eax)
    2a18:	14 76                	adc    $0x76,%al
    2a1a:	02 00                	add    (%eax),%al
    2a1c:	00 a0 10 00 00 9a    	add    %ah,-0x65fffff0(%eax)
    2a22:	10 00                	adc    %al,(%eax)
    2a24:	00 06                	add    %al,(%esi)
    2a26:	33 70 10             	xor    0x10(%eax),%esi
    2a29:	c0 15 00 00 00 03 69 	rclb   $0x69,0x3000000
    2a30:	00 09                	add    %cl,(%ecx)
    2a32:	11 7d 00             	adc    %edi,0x0(%ebp)
    2a35:	00 00                	add    %al,(%eax)
    2a37:	b6 10                	mov    $0x10,%dh
    2a39:	00 00                	add    %al,(%eax)
    2a3b:	b2 10                	mov    $0x10,%dl
    2a3d:	00 00                	add    %al,(%eax)
    2a3f:	00 00                	add    %al,(%eax)
    2a41:	00 ba 00 00 00 05    	add    %bh,0x5000000(%edx)
    2a47:	00 01                	add    %al,(%ecx)
    2a49:	04 e2                	add    $0xe2,%al
    2a4b:	10 00                	adc    %al,(%eax)
    2a4d:	00 04 5a             	add    %al,(%edx,%ebx,2)
    2a50:	02 00                	add    (%eax),%al
    2a52:	00 0c c8             	add    %cl,(%eax,%ecx,8)
    2a55:	02 00                	add    (%eax),%al
    2a57:	00 00                	add    %al,(%eax)
    2a59:	00 00                	add    %al,(%eax)
    2a5b:	00 e5                	add    %ah,%ch
    2a5d:	70 10                	jo     2a6f <start_-0xfd59d>
    2a5f:	c0 2a 00             	shrb   $0x0,(%edx)
    2a62:	00 00                	add    %al,(%eax)
    2a64:	40                   	inc    %eax
    2a65:	16                   	push   %ss
    2a66:	00 00                	add    %al,(%eax)
    2a68:	01 04 05 5e 01 00 00 	add    %eax,0x15e(,%eax,1)
    2a6f:	01 04 07             	add    %eax,(%edi,%eax,1)
    2a72:	36 02 00             	add    %ss:(%eax),%al
    2a75:	00 05 04 05 69 6e    	add    %al,0x6e690504
    2a7b:	74 00                	je     2a7d <start_-0xfd58f>
    2a7d:	06                   	push   %es
    2a7e:	9a 09 00 00 01 04 01 	lcall  $0x104,$0x1000009
    2a85:	a0 00 00 00 e5       	mov    0xe5000000,%al
    2a8a:	70 10                	jo     2a9c <start_-0xfd570>
    2a8c:	c0 2a 00             	shrb   $0x0,(%edx)
    2a8f:	00 00                	add    %al,(%eax)
    2a91:	01 9c a0 00 00 00 07 	add    %ebx,0x7000000(%eax,%eiz,4)
    2a98:	f1                   	icebp  
    2a99:	09 00                	or     %eax,(%eax)
    2a9b:	00 01                	add    %al,(%ecx)
    2a9d:	04 0e                	add    $0xe,%al
    2a9f:	a0 00 00 00 d2       	mov    0xd2000000,%al
    2aa4:	10 00                	adc    %al,(%eax)
    2aa6:	00 ce                	add    %cl,%dh
    2aa8:	10 00                	adc    %al,(%eax)
    2aaa:	00 08                	add    %cl,(%eax)
    2aac:	73 72                	jae    2b20 <start_-0xfd4ec>
    2aae:	63 00                	arpl   %ax,(%eax)
    2ab0:	01 04 20             	add    %eax,(%eax,%eiz,1)
    2ab3:	b1 00                	mov    $0x0,%cl
    2ab5:	00 00                	add    %al,(%eax)
    2ab7:	e6 10                	out    %al,$0x10
    2ab9:	00 00                	add    %al,(%eax)
    2abb:	de 10                	ficoms (%eax)
    2abd:	00 00                	add    %al,(%eax)
    2abf:	02 63 00             	add    0x0(%ebx),%ah
    2ac2:	05 0a a5 00 00       	add    $0xa50a,%eax
    2ac7:	00 02                	add    %al,(%edx)
    2ac9:	11 00                	adc    %eax,(%eax)
    2acb:	00 fe                	add    %bh,%dh
    2acd:	10 00                	adc    %al,(%eax)
    2acf:	00 02                	add    %al,(%edx)
    2ad1:	69 00 06 12 b6 00    	imul   $0xb61206,(%eax),%eax
    2ad7:	00 00                	add    %al,(%eax)
    2ad9:	11 11                	adc    %edx,(%ecx)
    2adb:	00 00                	add    %al,(%eax)
    2add:	0d 11 00 00 00       	or     $0x11,%eax
    2ae2:	03 a5 00 00 00 01    	add    0x1000000(%ebp),%esp
    2ae8:	01 06                	add    %eax,(%esi)
    2aea:	df 01                	filds  (%ecx)
    2aec:	00 00                	add    %al,(%eax)
    2aee:	09 a5 00 00 00 03    	or     %esp,0x3000000(%ebp)
    2af4:	ac                   	lods   %ds:(%esi),%al
    2af5:	00 00                	add    %al,(%eax)
    2af7:	00 01                	add    %al,(%ecx)
    2af9:	04 07                	add    $0x7,%al
    2afb:	3b 02                	cmp    (%edx),%eax
    2afd:	00 00                	add    %al,(%eax)
    2aff:	00 99 00 00 00 05    	add    %bl,0x5000000(%ecx)
    2b05:	00 01                	add    %al,(%ecx)
    2b07:	04 77                	add    $0x77,%al
    2b09:	11 00                	adc    %eax,(%eax)
    2b0b:	00 02                	add    %al,(%edx)
    2b0d:	5a                   	pop    %edx
    2b0e:	02 00                	add    (%eax),%al
    2b10:	00 0c e2             	add    %cl,(%edx,%eiz,8)
    2b13:	02 00                	add    (%eax),%al
    2b15:	00 00                	add    %al,(%eax)
    2b17:	00 00                	add    %al,(%eax)
    2b19:	00 0f                	add    %cl,(%edi)
    2b1b:	71 10                	jno    2b2d <start_-0xfd4df>
    2b1d:	c0 18 00             	rcrb   $0x0,(%eax)
    2b20:	00 00                	add    %al,(%eax)
    2b22:	c6                   	(bad)  
    2b23:	16                   	push   %ss
    2b24:	00 00                	add    %al,(%eax)
    2b26:	01 04 05 5e 01 00 00 	add    %eax,0x15e(,%eax,1)
    2b2d:	03 5e 06             	add    0x6(%esi),%ebx
    2b30:	00 00                	add    %al,(%eax)
    2b32:	02 d1                	add    %cl,%dl
    2b34:	17                   	pop    %ss
    2b35:	39 00                	cmp    %eax,(%eax)
    2b37:	00 00                	add    %al,(%eax)
    2b39:	01 04 07             	add    %eax,(%edi,%eax,1)
    2b3c:	36 02 00             	add    %ss:(%eax),%al
    2b3f:	00 04 04             	add    %al,(%esp,%eax,1)
    2b42:	05 69 6e 74 00       	add    $0x746e69,%eax
    2b47:	05 93 09 00 00       	add    $0x993,%eax
    2b4c:	01 04 01             	add    %eax,(%ecx,%eax,1)
    2b4f:	2d 00 00 00 0f       	sub    $0xf000000,%eax
    2b54:	71 10                	jno    2b66 <start_-0xfd4a6>
    2b56:	c0 18 00             	rcrb   $0x0,(%eax)
    2b59:	00 00                	add    %al,(%eax)
    2b5b:	01 9c 8a 00 00 00 06 	add    %ebx,0x6000000(%edx,%ecx,4)
    2b62:	73 74                	jae    2bd8 <start_-0xfd434>
    2b64:	72 00                	jb     2b66 <start_-0xfd4a6>
    2b66:	01 04 14             	add    %eax,(%esp,%edx,1)
    2b69:	8a 00                	mov    (%eax),%al
    2b6b:	00 00                	add    %al,(%eax)
    2b6d:	2d 11 00 00 29       	sub    $0x29000011,%eax
    2b72:	11 00                	adc    %eax,(%eax)
    2b74:	00 07                	add    %al,(%edi)
    2b76:	6c                   	insb   (%dx),%es:(%edi)
    2b77:	65 6e                	outsb  %gs:(%esi),(%dx)
    2b79:	00 01                	add    %al,(%ecx)
    2b7b:	06                   	push   %es
    2b7c:	0c 2d                	or     $0x2d,%al
    2b7e:	00 00                	add    %al,(%eax)
    2b80:	00 3d 11 00 00 39    	add    %bh,0x39000011
    2b86:	11 00                	adc    %eax,(%eax)
    2b88:	00 00                	add    %al,(%eax)
    2b8a:	08 04 97             	or     %al,(%edi,%edx,4)
    2b8d:	00 00                	add    %al,(%eax)
    2b8f:	00 01                	add    %al,(%ecx)
    2b91:	01 06                	add    %eax,(%esi)
    2b93:	df 01                	filds  (%ecx)
    2b95:	00 00                	add    %al,(%eax)
    2b97:	09 90 00 00 00 00    	or     %edx,0x0(%eax)

Disassembly of section .debug_abbrev:

00000000 <.debug_abbrev>:
       0:	01 0d 00 03 0e 3a    	add    %ecx,0x3a0e0300
       6:	21 02                	and    %eax,(%edx)
       8:	3b 0b                	cmp    (%ebx),%ecx
       a:	39 0b                	cmp    %ecx,(%ebx)
       c:	49                   	dec    %ecx
       d:	13 38                	adc    (%eax),%edi
       f:	0b 00                	or     (%eax),%eax
      11:	00 02                	add    %al,(%edx)
      13:	16                   	push   %ss
      14:	00 03                	add    %al,(%ebx)
      16:	0e                   	push   %cs
      17:	3a 0b                	cmp    (%ebx),%cl
      19:	3b 0b                	cmp    (%ebx),%ecx
      1b:	39 0b                	cmp    %ecx,(%ebx)
      1d:	49                   	dec    %ecx
      1e:	13 00                	adc    (%eax),%eax
      20:	00 03                	add    %al,(%ebx)
      22:	24 00                	and    $0x0,%al
      24:	0b 0b                	or     (%ebx),%ecx
      26:	3e 0b 03             	or     %ds:(%ebx),%eax
      29:	0e                   	push   %cs
      2a:	00 00                	add    %al,(%eax)
      2c:	04 34                	add    $0x34,%al
      2e:	00 03                	add    %al,(%ebx)
      30:	08 3a                	or     %bh,(%edx)
      32:	21 01                	and    %eax,(%ecx)
      34:	3b 0b                	cmp    (%ebx),%ecx
      36:	39 0b                	cmp    %ecx,(%ebx)
      38:	49                   	dec    %ecx
      39:	13 02                	adc    (%edx),%eax
      3b:	17                   	pop    %ss
      3c:	b7 42                	mov    $0x42,%bh
      3e:	17                   	pop    %ss
      3f:	00 00                	add    %al,(%eax)
      41:	05 05 00 03 0e       	add    $0xe030005,%eax
      46:	3a 21                	cmp    (%ecx),%ah
      48:	01 3b                	add    %edi,(%ebx)
      4a:	0b 39                	or     (%ecx),%edi
      4c:	0b 49 13             	or     0x13(%ecx),%ecx
      4f:	02 17                	add    (%edi),%dl
      51:	b7 42                	mov    $0x42,%bh
      53:	17                   	pop    %ss
      54:	00 00                	add    %al,(%eax)
      56:	06                   	push   %es
      57:	34 00                	xor    $0x0,%al
      59:	03 0e                	add    (%esi),%ecx
      5b:	3a 21                	cmp    (%ecx),%ah
      5d:	01 3b                	add    %edi,(%ebx)
      5f:	0b 39                	or     (%ecx),%edi
      61:	21 0e                	and    %ecx,(%esi)
      63:	49                   	dec    %ecx
      64:	13 02                	adc    (%edx),%eax
      66:	17                   	pop    %ss
      67:	b7 42                	mov    $0x42,%bh
      69:	17                   	pop    %ss
      6a:	00 00                	add    %al,(%eax)
      6c:	07                   	pop    %es
      6d:	0b 01                	or     (%ecx),%eax
      6f:	11 01                	adc    %eax,(%ecx)
      71:	12 06                	adc    (%esi),%al
      73:	01 13                	add    %edx,(%ebx)
      75:	00 00                	add    %al,(%eax)
      77:	08 13                	or     %dl,(%ebx)
      79:	01 03                	add    %eax,(%ebx)
      7b:	0e                   	push   %cs
      7c:	0b 0b                	or     (%ebx),%ecx
      7e:	3a 21                	cmp    (%ecx),%ah
      80:	02 3b                	add    (%ebx),%bh
      82:	0b 39                	or     (%ecx),%edi
      84:	21 08                	and    %ecx,(%eax)
      86:	01 13                	add    %edx,(%ebx)
      88:	00 00                	add    %al,(%eax)
      8a:	09 34 00             	or     %esi,(%eax,%eax,1)
      8d:	03 0e                	add    (%esi),%ecx
      8f:	3a 21                	cmp    (%ecx),%ah
      91:	01 3b                	add    %edi,(%ebx)
      93:	0b 39                	or     (%ecx),%edi
      95:	21 10                	and    %edx,(%eax)
      97:	49                   	dec    %ecx
      98:	13 3f                	adc    (%edi),%edi
      9a:	19 3c 19             	sbb    %edi,(%ecx,%ebx,1)
      9d:	00 00                	add    %al,(%eax)
      9f:	0a 48 00             	or     0x0(%eax),%cl
      a2:	7d 01                	jge    a5 <start_-0xfff67>
      a4:	7f 13                	jg     b9 <start_-0xfff53>
      a6:	00 00                	add    %al,(%eax)
      a8:	0b 0f                	or     (%edi),%ecx
      aa:	00 0b                	add    %cl,(%ebx)
      ac:	21 04 49             	and    %eax,(%ecx,%ecx,2)
      af:	13 00                	adc    (%eax),%eax
      b1:	00 0c 0d 00 03 08 3a 	add    %cl,0x3a080300(,%ecx,1)
      b8:	21 02                	and    %eax,(%edx)
      ba:	3b 0b                	cmp    (%ebx),%ecx
      bc:	39 0b                	cmp    %ecx,(%ebx)
      be:	49                   	dec    %ecx
      bf:	13 38                	adc    (%eax),%edi
      c1:	0b 00                	or     (%eax),%eax
      c3:	00 0d 17 01 0b 0b    	add    %cl,0xb0b0117
      c9:	3a 21                	cmp    (%ecx),%ah
      cb:	02 3b                	add    (%ebx),%bh
      cd:	0b 39                	or     (%ecx),%edi
      cf:	21 05 01 13 00 00    	and    %eax,0x1301
      d5:	0e                   	push   %cs
      d6:	0d 00 03 0e 3a       	or     $0x3a0e0300,%eax
      db:	21 02                	and    %eax,(%edx)
      dd:	3b 0b                	cmp    (%ebx),%ecx
      df:	39 0b                	cmp    %ecx,(%ebx)
      e1:	49                   	dec    %ecx
      e2:	13 00                	adc    (%eax),%eax
      e4:	00 0f                	add    %cl,(%edi)
      e6:	13 01                	adc    (%ecx),%eax
      e8:	0b 0b                	or     (%ebx),%ecx
      ea:	3a 21                	cmp    (%ecx),%ah
      ec:	02 3b                	add    (%ebx),%bh
      ee:	0b 39                	or     (%ecx),%edi
      f0:	21 09                	and    %ecx,(%ecx)
      f2:	01 13                	add    %edx,(%ebx)
      f4:	00 00                	add    %al,(%eax)
      f6:	10 0d 00 49 13 00    	adc    %cl,0x134900
      fc:	00 11                	add    %dl,(%ecx)
      fe:	2e 01 3f             	add    %edi,%cs:(%edi)
     101:	19 03                	sbb    %eax,(%ebx)
     103:	0e                   	push   %cs
     104:	3a 21                	cmp    (%ecx),%ah
     106:	01 3b                	add    %edi,(%ebx)
     108:	0b 39                	or     (%ecx),%edi
     10a:	21 01                	and    %eax,(%ecx)
     10c:	27                   	daa    
     10d:	19 11                	sbb    %edx,(%ecx)
     10f:	01 12                	add    %edx,(%edx)
     111:	06                   	push   %es
     112:	40                   	inc    %eax
     113:	18 7a 19             	sbb    %bh,0x19(%edx)
     116:	01 13                	add    %edx,(%ebx)
     118:	00 00                	add    %al,(%eax)
     11a:	12 11                	adc    (%ecx),%dl
     11c:	01 25 0e 13 0b 03    	add    %esp,0x30b130e
     122:	1f                   	pop    %ds
     123:	1b 1f                	sbb    (%edi),%ebx
     125:	11 01                	adc    %eax,(%ecx)
     127:	12 06                	adc    (%esi),%al
     129:	10 17                	adc    %dl,(%edi)
     12b:	00 00                	add    %al,(%eax)
     12d:	13 0d 00 49 13 38    	adc    0x38134900,%ecx
     133:	0b 00                	or     (%eax),%eax
     135:	00 14 24             	add    %dl,(%esp)
     138:	00 0b                	add    %cl,(%ebx)
     13a:	0b 3e                	or     (%esi),%edi
     13c:	0b 03                	or     (%ebx),%eax
     13e:	08 00                	or     %al,(%eax)
     140:	00 15 05 00 03 08    	add    %dl,0x8030005
     146:	3a 0b                	cmp    (%ebx),%cl
     148:	3b 0b                	cmp    (%ebx),%ecx
     14a:	39 0b                	cmp    %ecx,(%ebx)
     14c:	49                   	dec    %ecx
     14d:	13 02                	adc    (%edx),%eax
     14f:	17                   	pop    %ss
     150:	b7 42                	mov    $0x42,%bh
     152:	17                   	pop    %ss
     153:	00 00                	add    %al,(%eax)
     155:	16                   	push   %ss
     156:	05 00 03 0e 3a       	add    $0x3a0e0300,%eax
     15b:	0b 3b                	or     (%ebx),%edi
     15d:	0b 39                	or     (%ecx),%edi
     15f:	0b 49 13             	or     0x13(%ecx),%ecx
     162:	02 18                	add    (%eax),%bl
     164:	00 00                	add    %al,(%eax)
     166:	17                   	pop    %ss
     167:	2e 01 3f             	add    %edi,%cs:(%edi)
     16a:	19 03                	sbb    %eax,(%ebx)
     16c:	0e                   	push   %cs
     16d:	3a 0b                	cmp    (%ebx),%cl
     16f:	3b 0b                	cmp    (%ebx),%ecx
     171:	39 0b                	cmp    %ecx,(%ebx)
     173:	27                   	daa    
     174:	19 49 13             	sbb    %ecx,0x13(%ecx)
     177:	11 01                	adc    %eax,(%ecx)
     179:	12 06                	adc    (%esi),%al
     17b:	40                   	inc    %eax
     17c:	18 7a 19             	sbb    %bh,0x19(%edx)
     17f:	01 13                	add    %edx,(%ebx)
     181:	00 00                	add    %al,(%eax)
     183:	18 2e                	sbb    %ch,(%esi)
     185:	01 3f                	add    %edi,(%edi)
     187:	19 03                	sbb    %eax,(%ebx)
     189:	0e                   	push   %cs
     18a:	3a 0b                	cmp    (%ebx),%cl
     18c:	3b 0b                	cmp    (%ebx),%ecx
     18e:	39 0b                	cmp    %ecx,(%ebx)
     190:	27                   	daa    
     191:	19 11                	sbb    %edx,(%ecx)
     193:	01 12                	add    %edx,(%edx)
     195:	06                   	push   %es
     196:	40                   	inc    %eax
     197:	18 7a 19             	sbb    %bh,0x19(%edx)
     19a:	00 00                	add    %al,(%eax)
     19c:	19 05 00 03 08 3a    	sbb    %eax,0x3a080300
     1a2:	0b 3b                	or     (%ebx),%edi
     1a4:	0b 39                	or     (%ecx),%edi
     1a6:	0b 49 13             	or     0x13(%ecx),%ecx
     1a9:	02 18                	add    (%eax),%bl
     1ab:	00 00                	add    %al,(%eax)
     1ad:	1a 34 00             	sbb    (%eax,%eax,1),%dh
     1b0:	03 0e                	add    (%esi),%ecx
     1b2:	3a 0b                	cmp    (%ebx),%cl
     1b4:	3b 0b                	cmp    (%ebx),%ecx
     1b6:	39 0b                	cmp    %ecx,(%ebx)
     1b8:	49                   	dec    %ecx
     1b9:	13 00                	adc    (%eax),%eax
     1bb:	00 1b                	add    %bl,(%ebx)
     1bd:	0b 01                	or     (%ecx),%eax
     1bf:	11 01                	adc    %eax,(%ecx)
     1c1:	12 06                	adc    (%esi),%al
     1c3:	00 00                	add    %al,(%eax)
     1c5:	00 01                	add    %al,(%ecx)
     1c7:	05 00 31 13 02       	add    $0x2133100,%eax
     1cc:	17                   	pop    %ss
     1cd:	b7 42                	mov    $0x42,%bh
     1cf:	17                   	pop    %ss
     1d0:	00 00                	add    %al,(%eax)
     1d2:	02 34 00             	add    (%eax,%eax,1),%dh
     1d5:	03 08                	add    (%eax),%ecx
     1d7:	3a 21                	cmp    (%ecx),%ah
     1d9:	01 3b                	add    %edi,(%ebx)
     1db:	0b 39                	or     (%ecx),%edi
     1dd:	0b 49 13             	or     0x13(%ecx),%ecx
     1e0:	02 17                	add    (%edi),%dl
     1e2:	b7 42                	mov    $0x42,%bh
     1e4:	17                   	pop    %ss
     1e5:	00 00                	add    %al,(%eax)
     1e7:	03 24 00             	add    (%eax,%eax,1),%esp
     1ea:	0b 0b                	or     (%ebx),%ecx
     1ec:	3e 0b 03             	or     %ds:(%ebx),%eax
     1ef:	0e                   	push   %cs
     1f0:	00 00                	add    %al,(%eax)
     1f2:	04 34                	add    $0x34,%al
     1f4:	00 31                	add    %dh,(%ecx)
     1f6:	13 02                	adc    (%edx),%eax
     1f8:	17                   	pop    %ss
     1f9:	b7 42                	mov    $0x42,%bh
     1fb:	17                   	pop    %ss
     1fc:	00 00                	add    %al,(%eax)
     1fe:	05 34 00 31 13       	add    $0x13310034,%eax
     203:	00 00                	add    %al,(%eax)
     205:	06                   	push   %es
     206:	2e 01 3f             	add    %edi,%cs:(%edi)
     209:	19 03                	sbb    %eax,(%ebx)
     20b:	0e                   	push   %cs
     20c:	3a 21                	cmp    (%ecx),%ah
     20e:	01 3b                	add    %edi,(%ebx)
     210:	0b 39                	or     (%ecx),%edi
     212:	21 06                	and    %eax,(%esi)
     214:	27                   	daa    
     215:	19 11                	sbb    %edx,(%ecx)
     217:	01 12                	add    %edx,(%edx)
     219:	06                   	push   %es
     21a:	40                   	inc    %eax
     21b:	18 7a 19             	sbb    %bh,0x19(%edx)
     21e:	01 13                	add    %edx,(%ebx)
     220:	00 00                	add    %al,(%eax)
     222:	07                   	pop    %es
     223:	05 00 03 0e 3a       	add    $0x3a0e0300,%eax
     228:	21 02                	and    %eax,(%edx)
     22a:	3b 05 39 0b 49 13    	cmp    0x13490b39,%eax
     230:	00 00                	add    %al,(%eax)
     232:	08 34 00             	or     %dh,(%eax,%eax,1)
     235:	03 0e                	add    (%esi),%ecx
     237:	3a 21                	cmp    (%ecx),%ah
     239:	02 3b                	add    (%ebx),%bh
     23b:	21 f9                	and    %edi,%ecx
     23d:	01 39                	add    %edi,(%ecx)
     23f:	0b 49 13             	or     0x13(%ecx),%ecx
     242:	00 00                	add    %al,(%eax)
     244:	09 05 00 03 08 3a    	or     %eax,0x3a080300
     24a:	21 01                	and    %eax,(%ecx)
     24c:	3b 0b                	cmp    (%ebx),%ecx
     24e:	39 21                	cmp    %esp,(%ecx)
     250:	16                   	push   %ss
     251:	49                   	dec    %ecx
     252:	13 02                	adc    (%edx),%eax
     254:	18 00                	sbb    %al,(%eax)
     256:	00 0a                	add    %cl,(%edx)
     258:	2e 00 3f             	add    %bh,%cs:(%edi)
     25b:	19 03                	sbb    %eax,(%ebx)
     25d:	0e                   	push   %cs
     25e:	3a 21                	cmp    (%ecx),%ah
     260:	01 3b                	add    %edi,(%ebx)
     262:	0b 39                	or     (%ecx),%edi
     264:	21 07                	and    %eax,(%edi)
     266:	49                   	dec    %ecx
     267:	13 11                	adc    (%ecx),%edx
     269:	01 12                	add    %edx,(%edx)
     26b:	06                   	push   %es
     26c:	40                   	inc    %eax
     26d:	18 7a 19             	sbb    %bh,0x19(%edx)
     270:	00 00                	add    %al,(%eax)
     272:	0b 0f                	or     (%edi),%ecx
     274:	00 0b                	add    %cl,(%ebx)
     276:	21 04 49             	and    %eax,(%ecx,%ecx,2)
     279:	13 00                	adc    (%eax),%eax
     27b:	00 0c 16             	add    %cl,(%esi,%edx,1)
     27e:	00 03                	add    %al,(%ebx)
     280:	0e                   	push   %cs
     281:	3a 0b                	cmp    (%ebx),%cl
     283:	3b 0b                	cmp    (%ebx),%ecx
     285:	39 0b                	cmp    %ecx,(%ebx)
     287:	49                   	dec    %ecx
     288:	13 00                	adc    (%eax),%eax
     28a:	00 0d 05 00 03 0e    	add    %cl,0xe030005
     290:	3a 21                	cmp    (%ecx),%ah
     292:	01 3b                	add    %edi,(%ebx)
     294:	0b 39                	or     (%ecx),%edi
     296:	21 1a                	and    %ebx,(%edx)
     298:	49                   	dec    %ecx
     299:	13 02                	adc    (%edx),%eax
     29b:	18 00                	sbb    %al,(%eax)
     29d:	00 0e                	add    %cl,(%esi)
     29f:	1d 01 31 13 52       	sbb    $0x52133101,%eax
     2a4:	01 b8 42 0b 11 01    	add    %edi,0x1110b42(%eax)
     2aa:	12 06                	adc    (%esi),%al
     2ac:	58                   	pop    %eax
     2ad:	21 01                	and    %eax,(%ecx)
     2af:	59                   	pop    %ecx
     2b0:	0b 57 0b             	or     0xb(%edi),%edx
     2b3:	00 00                	add    %al,(%eax)
     2b5:	0f 1d 01             	nopl   (%ecx)
     2b8:	31 13                	xor    %edx,(%ebx)
     2ba:	52                   	push   %edx
     2bb:	01 b8 42 0b 11 01    	add    %edi,0x1110b42(%eax)
     2c1:	12 06                	adc    (%esi),%al
     2c3:	58                   	pop    %eax
     2c4:	21 02                	and    %eax,(%edx)
     2c6:	59                   	pop    %ecx
     2c7:	21 b3 02 57 21 1d    	and    %esi,0x1d215702(%ebx)
     2cd:	00 00                	add    %al,(%eax)
     2cf:	10 34 00             	adc    %dh,(%eax,%eax,1)
     2d2:	03 0e                	add    (%esi),%ecx
     2d4:	3a 21                	cmp    (%ecx),%ah
     2d6:	02 3b                	add    (%ebx),%bh
     2d8:	05 39 21 10 49       	add    $0x49102139,%eax
     2dd:	13 00                	adc    (%eax),%eax
     2df:	00 11                	add    %dl,(%ecx)
     2e1:	05 00 03 0e 3a       	add    $0x3a0e0300,%eax
     2e6:	21 02                	and    %eax,(%edx)
     2e8:	3b 0b                	cmp    (%ebx),%ecx
     2ea:	39 0b                	cmp    %ecx,(%ebx)
     2ec:	49                   	dec    %ecx
     2ed:	13 00                	adc    (%eax),%eax
     2ef:	00 12                	add    %dl,(%edx)
     2f1:	11 01                	adc    %eax,(%ecx)
     2f3:	25 0e 13 0b 03       	and    $0x30b130e,%eax
     2f8:	1f                   	pop    %ds
     2f9:	1b 1f                	sbb    (%edi),%ebx
     2fb:	11 01                	adc    %eax,(%ecx)
     2fd:	12 06                	adc    (%esi),%al
     2ff:	10 17                	adc    %dl,(%edi)
     301:	00 00                	add    %al,(%eax)
     303:	13 24 00             	adc    (%eax,%eax,1),%esp
     306:	0b 0b                	or     (%ebx),%ecx
     308:	3e 0b 03             	or     %ds:(%ebx),%eax
     30b:	08 00                	or     %al,(%eax)
     30d:	00 14 0b             	add    %dl,(%ebx,%ecx,1)
     310:	01 55 17             	add    %edx,0x17(%ebp)
     313:	01 13                	add    %edx,(%ebx)
     315:	00 00                	add    %al,(%eax)
     317:	15 48 00 7d 01       	adc    $0x17d0048,%eax
     31c:	7f 13                	jg     331 <start_-0xffcdb>
     31e:	00 00                	add    %al,(%eax)
     320:	16                   	push   %ss
     321:	2e 01 3f             	add    %edi,%cs:(%edi)
     324:	19 03                	sbb    %eax,(%ebx)
     326:	0e                   	push   %cs
     327:	3a 0b                	cmp    (%ebx),%cl
     329:	3b 0b                	cmp    (%ebx),%ecx
     32b:	39 0b                	cmp    %ecx,(%ebx)
     32d:	49                   	dec    %ecx
     32e:	13 11                	adc    (%ecx),%edx
     330:	01 12                	add    %edx,(%edx)
     332:	06                   	push   %es
     333:	40                   	inc    %eax
     334:	18 7a 19             	sbb    %bh,0x19(%edx)
     337:	01 13                	add    %edx,(%ebx)
     339:	00 00                	add    %al,(%eax)
     33b:	17                   	pop    %ss
     33c:	34 00                	xor    $0x0,%al
     33e:	03 0e                	add    (%esi),%ecx
     340:	3a 0b                	cmp    (%ebx),%cl
     342:	3b 0b                	cmp    (%ebx),%ecx
     344:	39 0b                	cmp    %ecx,(%ebx)
     346:	49                   	dec    %ecx
     347:	13 02                	adc    (%edx),%eax
     349:	17                   	pop    %ss
     34a:	b7 42                	mov    $0x42,%bh
     34c:	17                   	pop    %ss
     34d:	00 00                	add    %al,(%eax)
     34f:	18 1d 01 31 13 52    	sbb    %bl,0x52133101
     355:	01 b8 42 0b 55 17    	add    %edi,0x17550b42(%eax)
     35b:	58                   	pop    %eax
     35c:	0b 59 0b             	or     0xb(%ecx),%ebx
     35f:	57                   	push   %edi
     360:	0b 00                	or     (%eax),%eax
     362:	00 19                	add    %bl,(%ecx)
     364:	0b 01                	or     (%ecx),%eax
     366:	55                   	push   %ebp
     367:	17                   	pop    %ss
     368:	00 00                	add    %al,(%eax)
     36a:	1a 2e                	sbb    (%esi),%ch
     36c:	01 03                	add    %eax,(%ebx)
     36e:	0e                   	push   %cs
     36f:	3a 0b                	cmp    (%ebx),%cl
     371:	3b 05 39 0b 27 19    	cmp    0x19270b39,%eax
     377:	49                   	dec    %ecx
     378:	13 20                	adc    (%eax),%esp
     37a:	0b 01                	or     (%ecx),%eax
     37c:	13 00                	adc    (%eax),%eax
     37e:	00 1b                	add    %bl,(%ebx)
     380:	2e 01 03             	add    %eax,%cs:(%ebx)
     383:	0e                   	push   %cs
     384:	3a 0b                	cmp    (%ebx),%cl
     386:	3b 0b                	cmp    (%ebx),%ecx
     388:	39 0b                	cmp    %ecx,(%ebx)
     38a:	27                   	daa    
     38b:	19 49 13             	sbb    %ecx,0x13(%ecx)
     38e:	20 0b                	and    %cl,(%ebx)
     390:	00 00                	add    %al,(%eax)
     392:	00 01                	add    %al,(%ecx)
     394:	24 00                	and    $0x0,%al
     396:	0b 0b                	or     (%ebx),%ecx
     398:	3e 0b 03             	or     %ds:(%ebx),%eax
     39b:	0e                   	push   %cs
     39c:	00 00                	add    %al,(%eax)
     39e:	02 48 00             	add    0x0(%eax),%cl
     3a1:	7d 01                	jge    3a4 <start_-0xffc68>
     3a3:	7f 13                	jg     3b8 <start_-0xffc54>
     3a5:	00 00                	add    %al,(%eax)
     3a7:	03 05 00 03 0e 3a    	add    0x3a0e0300,%eax
     3ad:	21 01                	and    %eax,(%ecx)
     3af:	3b 21                	cmp    (%ecx),%esp
     3b1:	09 39                	or     %edi,(%ecx)
     3b3:	0b 49 13             	or     0x13(%ecx),%ecx
     3b6:	02 18                	add    (%eax),%bl
     3b8:	00 00                	add    %al,(%eax)
     3ba:	04 16                	add    $0x16,%al
     3bc:	00 03                	add    %al,(%ebx)
     3be:	0e                   	push   %cs
     3bf:	3a 21                	cmp    (%ecx),%ah
     3c1:	02 3b                	add    (%ebx),%bh
     3c3:	0b 39                	or     (%ecx),%edi
     3c5:	21 19                	and    %ebx,(%ecx)
     3c7:	49                   	dec    %ecx
     3c8:	13 00                	adc    (%eax),%eax
     3ca:	00 05 34 00 03 0e    	add    %al,0xe030034
     3d0:	3a 21                	cmp    (%ecx),%ah
     3d2:	01 3b                	add    %edi,(%ebx)
     3d4:	0b 39                	or     (%ecx),%edi
     3d6:	21 0a                	and    %ecx,(%edx)
     3d8:	49                   	dec    %ecx
     3d9:	13 3f                	adc    (%edi),%edi
     3db:	19 02                	sbb    %eax,(%edx)
     3dd:	18 00                	sbb    %al,(%eax)
     3df:	00 06                	add    %al,(%esi)
     3e1:	11 01                	adc    %eax,(%ecx)
     3e3:	25 0e 13 0b 03       	and    $0x30b130e,%eax
     3e8:	1f                   	pop    %ds
     3e9:	1b 1f                	sbb    (%edi),%ebx
     3eb:	11 01                	adc    %eax,(%ecx)
     3ed:	12 06                	adc    (%esi),%al
     3ef:	10 17                	adc    %dl,(%edi)
     3f1:	00 00                	add    %al,(%eax)
     3f3:	07                   	pop    %es
     3f4:	24 00                	and    $0x0,%al
     3f6:	0b 0b                	or     (%ebx),%ecx
     3f8:	3e 0b 03             	or     %ds:(%ebx),%eax
     3fb:	08 00                	or     %al,(%eax)
     3fd:	00 08                	add    %cl,(%eax)
     3ff:	01 01                	add    %eax,(%ecx)
     401:	49                   	dec    %ecx
     402:	13 01                	adc    (%ecx),%eax
     404:	13 00                	adc    (%eax),%eax
     406:	00 09                	add    %cl,(%ecx)
     408:	21 00                	and    %eax,(%eax)
     40a:	49                   	dec    %ecx
     40b:	13 2f                	adc    (%edi),%ebp
     40d:	0b 00                	or     (%eax),%eax
     40f:	00 0a                	add    %cl,(%edx)
     411:	2e 01 3f             	add    %edi,%cs:(%edi)
     414:	19 03                	sbb    %eax,(%ebx)
     416:	0e                   	push   %cs
     417:	3a 0b                	cmp    (%ebx),%cl
     419:	3b 0b                	cmp    (%ebx),%ecx
     41b:	39 0b                	cmp    %ecx,(%ebx)
     41d:	11 01                	adc    %eax,(%ecx)
     41f:	12 06                	adc    (%esi),%al
     421:	40                   	inc    %eax
     422:	18 7a 19             	sbb    %bh,0x19(%edx)
     425:	01 13                	add    %edx,(%ebx)
     427:	00 00                	add    %al,(%eax)
     429:	0b 2e                	or     (%esi),%ebp
     42b:	01 3f                	add    %edi,(%edi)
     42d:	19 03                	sbb    %eax,(%ebx)
     42f:	0e                   	push   %cs
     430:	3a 0b                	cmp    (%ebx),%cl
     432:	3b 0b                	cmp    (%ebx),%ecx
     434:	39 0b                	cmp    %ecx,(%ebx)
     436:	27                   	daa    
     437:	19 11                	sbb    %edx,(%ecx)
     439:	01 12                	add    %edx,(%edx)
     43b:	06                   	push   %es
     43c:	40                   	inc    %eax
     43d:	18 7a 19             	sbb    %bh,0x19(%edx)
     440:	00 00                	add    %al,(%eax)
     442:	00 01                	add    %al,(%ecx)
     444:	24 00                	and    $0x0,%al
     446:	0b 0b                	or     (%ebx),%ecx
     448:	3e 0b 03             	or     %ds:(%ebx),%eax
     44b:	0e                   	push   %cs
     44c:	00 00                	add    %al,(%eax)
     44e:	02 16                	add    (%esi),%dl
     450:	00 03                	add    %al,(%ebx)
     452:	0e                   	push   %cs
     453:	3a 21                	cmp    (%ecx),%ah
     455:	02 3b                	add    (%ebx),%bh
     457:	0b 39                	or     (%ecx),%edi
     459:	0b 49 13             	or     0x13(%ecx),%ecx
     45c:	00 00                	add    %al,(%eax)
     45e:	03 34 00             	add    (%eax,%eax,1),%esi
     461:	03 0e                	add    (%esi),%ecx
     463:	3a 21                	cmp    (%ecx),%ah
     465:	01 3b                	add    %edi,(%ebx)
     467:	0b 39                	or     (%ecx),%edi
     469:	21 0a                	and    %ecx,(%edx)
     46b:	49                   	dec    %ecx
     46c:	13 3f                	adc    (%edi),%edi
     46e:	19 02                	sbb    %eax,(%edx)
     470:	18 00                	sbb    %al,(%eax)
     472:	00 04 18             	add    %al,(%eax,%ebx,1)
     475:	00 00                	add    %al,(%eax)
     477:	00 05 05 00 03 08    	add    %al,0x8030005
     47d:	3a 21                	cmp    (%ecx),%ah
     47f:	01 3b                	add    %edi,(%ebx)
     481:	21 0b                	and    %ecx,(%ebx)
     483:	39 0b                	cmp    %ecx,(%ebx)
     485:	49                   	dec    %ecx
     486:	13 02                	adc    (%edx),%eax
     488:	17                   	pop    %ss
     489:	b7 42                	mov    $0x42,%bh
     48b:	17                   	pop    %ss
     48c:	00 00                	add    %al,(%eax)
     48e:	06                   	push   %es
     48f:	11 01                	adc    %eax,(%ecx)
     491:	25 0e 13 0b 03       	and    $0x30b130e,%eax
     496:	1f                   	pop    %ds
     497:	1b 1f                	sbb    (%edi),%ebx
     499:	11 01                	adc    %eax,(%ecx)
     49b:	12 06                	adc    (%esi),%al
     49d:	10 17                	adc    %dl,(%edi)
     49f:	00 00                	add    %al,(%eax)
     4a1:	07                   	pop    %es
     4a2:	24 00                	and    $0x0,%al
     4a4:	0b 0b                	or     (%ebx),%ecx
     4a6:	3e 0b 03             	or     %ds:(%ebx),%eax
     4a9:	08 00                	or     %al,(%eax)
     4ab:	00 08                	add    %cl,(%eax)
     4ad:	01 01                	add    %eax,(%ecx)
     4af:	49                   	dec    %ecx
     4b0:	13 01                	adc    (%ecx),%eax
     4b2:	13 00                	adc    (%eax),%eax
     4b4:	00 09                	add    %cl,(%ecx)
     4b6:	21 00                	and    %eax,(%eax)
     4b8:	49                   	dec    %ecx
     4b9:	13 2f                	adc    (%edi),%ebp
     4bb:	0b 00                	or     (%eax),%eax
     4bd:	00 0a                	add    %cl,(%edx)
     4bf:	2e 01 3f             	add    %edi,%cs:(%edi)
     4c2:	19 03                	sbb    %eax,(%ebx)
     4c4:	0e                   	push   %cs
     4c5:	3a 0b                	cmp    (%ebx),%cl
     4c7:	3b 0b                	cmp    (%ebx),%ecx
     4c9:	39 0b                	cmp    %ecx,(%ebx)
     4cb:	3c 19                	cmp    $0x19,%al
     4cd:	01 13                	add    %edx,(%ebx)
     4cf:	00 00                	add    %al,(%eax)
     4d1:	0b 2e                	or     (%esi),%ebp
     4d3:	01 3f                	add    %edi,(%edi)
     4d5:	19 03                	sbb    %eax,(%ebx)
     4d7:	0e                   	push   %cs
     4d8:	3a 0b                	cmp    (%ebx),%cl
     4da:	3b 0b                	cmp    (%ebx),%ecx
     4dc:	39 0b                	cmp    %ecx,(%ebx)
     4de:	11 01                	adc    %eax,(%ecx)
     4e0:	12 06                	adc    (%esi),%al
     4e2:	40                   	inc    %eax
     4e3:	18 7a 19             	sbb    %bh,0x19(%edx)
     4e6:	01 13                	add    %edx,(%ebx)
     4e8:	00 00                	add    %al,(%eax)
     4ea:	0c 48                	or     $0x48,%al
     4ec:	00 7d 01             	add    %bh,0x1(%ebp)
     4ef:	7f 13                	jg     504 <start_-0xffb08>
     4f1:	00 00                	add    %al,(%eax)
     4f3:	0d 2e 01 3f 19       	or     $0x193f012e,%eax
     4f8:	03 0e                	add    (%esi),%ecx
     4fa:	3a 0b                	cmp    (%ebx),%cl
     4fc:	3b 0b                	cmp    (%ebx),%ecx
     4fe:	39 0b                	cmp    %ecx,(%ebx)
     500:	27                   	daa    
     501:	19 11                	sbb    %edx,(%ecx)
     503:	01 12                	add    %edx,(%edx)
     505:	06                   	push   %es
     506:	40                   	inc    %eax
     507:	18 7a 19             	sbb    %bh,0x19(%edx)
     50a:	01 13                	add    %edx,(%ebx)
     50c:	00 00                	add    %al,(%eax)
     50e:	0e                   	push   %cs
     50f:	05 00 03 0e 3a       	add    $0x3a0e0300,%eax
     514:	0b 3b                	or     (%ebx),%edi
     516:	0b 39                	or     (%ecx),%edi
     518:	0b 49 13             	or     0x13(%ecx),%ecx
     51b:	02 18                	add    (%eax),%bl
     51d:	00 00                	add    %al,(%eax)
     51f:	0f 05                	syscall 
     521:	00 03                	add    %al,(%ebx)
     523:	0e                   	push   %cs
     524:	3a 0b                	cmp    (%ebx),%cl
     526:	3b 0b                	cmp    (%ebx),%ecx
     528:	39 0b                	cmp    %ecx,(%ebx)
     52a:	49                   	dec    %ecx
     52b:	13 02                	adc    (%edx),%eax
     52d:	17                   	pop    %ss
     52e:	b7 42                	mov    $0x42,%bh
     530:	17                   	pop    %ss
     531:	00 00                	add    %al,(%eax)
     533:	10 34 00             	adc    %dh,(%eax,%eax,1)
     536:	03 0e                	add    (%esi),%ecx
     538:	3a 0b                	cmp    (%ebx),%cl
     53a:	3b 0b                	cmp    (%ebx),%ecx
     53c:	39 0b                	cmp    %ecx,(%ebx)
     53e:	49                   	dec    %ecx
     53f:	13 02                	adc    (%edx),%eax
     541:	17                   	pop    %ss
     542:	b7 42                	mov    $0x42,%bh
     544:	17                   	pop    %ss
     545:	00 00                	add    %al,(%eax)
     547:	11 15 01 01 13 00    	adc    %edx,0x130101
     54d:	00 12                	add    %dl,(%edx)
     54f:	0f 00 0b             	str    (%ebx)
     552:	0b 49 13             	or     0x13(%ecx),%ecx
     555:	00 00                	add    %al,(%eax)
     557:	00 01                	add    %al,(%ecx)
     559:	0d 00 03 0e 3a       	or     $0x3a0e0300,%eax
     55e:	21 02                	and    %eax,(%edx)
     560:	3b 0b                	cmp    (%ebx),%ecx
     562:	39 21                	cmp    %esp,(%ecx)
     564:	12 49 13             	adc    0x13(%ecx),%cl
     567:	38 0b                	cmp    %cl,(%ebx)
     569:	00 00                	add    %al,(%eax)
     56b:	02 0d 00 03 08 3a    	add    0x3a080300,%cl
     571:	21 02                	and    %eax,(%edx)
     573:	3b 0b                	cmp    (%ebx),%ecx
     575:	39 21                	cmp    %esp,(%ecx)
     577:	12 49 13             	adc    0x13(%ecx),%cl
     57a:	38 0b                	cmp    %cl,(%ebx)
     57c:	00 00                	add    %al,(%eax)
     57e:	03 24 00             	add    (%eax,%eax,1),%esp
     581:	0b 0b                	or     (%ebx),%ecx
     583:	3e 0b 03             	or     %ds:(%ebx),%eax
     586:	0e                   	push   %cs
     587:	00 00                	add    %al,(%eax)
     589:	04 0f                	add    $0xf,%al
     58b:	00 0b                	add    %cl,(%ebx)
     58d:	21 04 49             	and    %eax,(%ecx,%ecx,2)
     590:	13 00                	adc    (%eax),%eax
     592:	00 05 05 00 03 0e    	add    %al,0xe030005
     598:	3a 21                	cmp    (%ecx),%ah
     59a:	01 3b                	add    %edi,(%ebx)
     59c:	0b 39                	or     (%ecx),%edi
     59e:	0b 49 13             	or     0x13(%ecx),%ecx
     5a1:	02 18                	add    (%eax),%bl
     5a3:	00 00                	add    %al,(%eax)
     5a5:	06                   	push   %es
     5a6:	48                   	dec    %eax
     5a7:	00 7d 01             	add    %bh,0x1(%ebp)
     5aa:	7f 13                	jg     5bf <start_-0xffa4d>
     5ac:	00 00                	add    %al,(%eax)
     5ae:	07                   	pop    %es
     5af:	11 01                	adc    %eax,(%ecx)
     5b1:	25 0e 13 0b 03       	and    $0x30b130e,%eax
     5b6:	1f                   	pop    %ds
     5b7:	1b 1f                	sbb    (%edi),%ebx
     5b9:	11 01                	adc    %eax,(%ecx)
     5bb:	12 06                	adc    (%esi),%al
     5bd:	10 17                	adc    %dl,(%edi)
     5bf:	00 00                	add    %al,(%eax)
     5c1:	08 13                	or     %dl,(%ebx)
     5c3:	01 0b                	add    %ecx,(%ebx)
     5c5:	0b 3a                	or     (%edx),%edi
     5c7:	0b 3b                	or     (%ebx),%edi
     5c9:	0b 39                	or     (%ecx),%edi
     5cb:	0b 01                	or     (%ecx),%eax
     5cd:	13 00                	adc    (%eax),%eax
     5cf:	00 09                	add    %cl,(%ecx)
     5d1:	16                   	push   %ss
     5d2:	00 03                	add    %al,(%ebx)
     5d4:	0e                   	push   %cs
     5d5:	3a 0b                	cmp    (%ebx),%cl
     5d7:	3b 0b                	cmp    (%ebx),%ecx
     5d9:	39 0b                	cmp    %ecx,(%ebx)
     5db:	49                   	dec    %ecx
     5dc:	13 00                	adc    (%eax),%eax
     5de:	00 0a                	add    %cl,(%edx)
     5e0:	2e 01 3f             	add    %edi,%cs:(%edi)
     5e3:	19 03                	sbb    %eax,(%ebx)
     5e5:	0e                   	push   %cs
     5e6:	3a 0b                	cmp    (%ebx),%cl
     5e8:	3b 0b                	cmp    (%ebx),%ecx
     5ea:	39 0b                	cmp    %ecx,(%ebx)
     5ec:	27                   	daa    
     5ed:	19 3c 19             	sbb    %edi,(%ecx,%ebx,1)
     5f0:	01 13                	add    %edx,(%ebx)
     5f2:	00 00                	add    %al,(%eax)
     5f4:	0b 05 00 49 13 00    	or     0x134900,%eax
     5fa:	00 0c 18             	add    %cl,(%eax,%ebx,1)
     5fd:	00 00                	add    %al,(%eax)
     5ff:	00 0d 2e 01 3f 19    	add    %cl,0x193f012e
     605:	03 0e                	add    (%esi),%ecx
     607:	3a 0b                	cmp    (%ebx),%cl
     609:	3b 0b                	cmp    (%ebx),%ecx
     60b:	39 0b                	cmp    %ecx,(%ebx)
     60d:	27                   	daa    
     60e:	19 11                	sbb    %edx,(%ecx)
     610:	01 12                	add    %edx,(%edx)
     612:	06                   	push   %es
     613:	40                   	inc    %eax
     614:	18 7a 19             	sbb    %bh,0x19(%edx)
     617:	01 13                	add    %edx,(%ebx)
     619:	00 00                	add    %al,(%eax)
     61b:	0e                   	push   %cs
     61c:	2e 01 3f             	add    %edi,%cs:(%edi)
     61f:	19 03                	sbb    %eax,(%ebx)
     621:	0e                   	push   %cs
     622:	3a 0b                	cmp    (%ebx),%cl
     624:	3b 0b                	cmp    (%ebx),%ecx
     626:	39 0b                	cmp    %ecx,(%ebx)
     628:	27                   	daa    
     629:	19 11                	sbb    %edx,(%ecx)
     62b:	01 12                	add    %edx,(%edx)
     62d:	06                   	push   %es
     62e:	40                   	inc    %eax
     62f:	18 7a 19             	sbb    %bh,0x19(%edx)
     632:	00 00                	add    %al,(%eax)
     634:	00 01                	add    %al,(%ecx)
     636:	0d 00 03 0e 3a       	or     $0x3a0e0300,%eax
     63b:	21 06                	and    %eax,(%esi)
     63d:	3b 0b                	cmp    (%ebx),%ecx
     63f:	39 0b                	cmp    %ecx,(%ebx)
     641:	49                   	dec    %ecx
     642:	13 38                	adc    (%eax),%edi
     644:	0b 00                	or     (%eax),%eax
     646:	00 02                	add    %al,(%edx)
     648:	48                   	dec    %eax
     649:	00 7d 01             	add    %bh,0x1(%ebp)
     64c:	7f 13                	jg     661 <start_-0xff9ab>
     64e:	00 00                	add    %al,(%eax)
     650:	03 05 00 49 13 00    	add    0x134900,%eax
     656:	00 04 16             	add    %al,(%esi,%edx,1)
     659:	00 03                	add    %al,(%ebx)
     65b:	0e                   	push   %cs
     65c:	3a 0b                	cmp    (%ebx),%cl
     65e:	3b 0b                	cmp    (%ebx),%ecx
     660:	39 0b                	cmp    %ecx,(%ebx)
     662:	49                   	dec    %ecx
     663:	13 00                	adc    (%eax),%eax
     665:	00 05 24 00 0b 0b    	add    %al,0xb0b0024
     66b:	3e 0b 03             	or     %ds:(%ebx),%eax
     66e:	0e                   	push   %cs
     66f:	00 00                	add    %al,(%eax)
     671:	06                   	push   %es
     672:	2e 01 3f             	add    %edi,%cs:(%edi)
     675:	19 03                	sbb    %eax,(%ebx)
     677:	0e                   	push   %cs
     678:	3a 0b                	cmp    (%ebx),%cl
     67a:	3b 0b                	cmp    (%ebx),%ecx
     67c:	39 0b                	cmp    %ecx,(%ebx)
     67e:	27                   	daa    
     67f:	19 3c 19             	sbb    %edi,(%ecx,%ebx,1)
     682:	01 13                	add    %edx,(%ebx)
     684:	00 00                	add    %al,(%eax)
     686:	07                   	pop    %es
     687:	34 00                	xor    $0x0,%al
     689:	03 08                	add    (%eax),%ecx
     68b:	3a 21                	cmp    (%ecx),%ah
     68d:	01 3b                	add    %edi,(%ebx)
     68f:	0b 39                	or     (%ecx),%edi
     691:	0b 49 13             	or     0x13(%ecx),%ecx
     694:	02 17                	add    (%edi),%dl
     696:	b7 42                	mov    $0x42,%bh
     698:	17                   	pop    %ss
     699:	00 00                	add    %al,(%eax)
     69b:	08 13                	or     %dl,(%ebx)
     69d:	01 03                	add    %eax,(%ebx)
     69f:	0e                   	push   %cs
     6a0:	0b 0b                	or     (%ebx),%ecx
     6a2:	3a 21                	cmp    (%ecx),%ah
     6a4:	06                   	push   %es
     6a5:	3b 0b                	cmp    (%ebx),%ecx
     6a7:	39 21                	cmp    %esp,(%ecx)
     6a9:	08 01                	or     %al,(%ecx)
     6ab:	13 00                	adc    (%eax),%eax
     6ad:	00 09                	add    %cl,(%ecx)
     6af:	34 00                	xor    $0x0,%al
     6b1:	03 0e                	add    (%esi),%ecx
     6b3:	3a 21                	cmp    (%ecx),%ah
     6b5:	01 3b                	add    %edi,(%ebx)
     6b7:	0b 39                	or     (%ecx),%edi
     6b9:	0b 49 13             	or     0x13(%ecx),%ecx
     6bc:	02 17                	add    (%edi),%dl
     6be:	b7 42                	mov    $0x42,%bh
     6c0:	17                   	pop    %ss
     6c1:	00 00                	add    %al,(%eax)
     6c3:	0a 34 00             	or     (%eax,%eax,1),%dh
     6c6:	03 0e                	add    (%esi),%ecx
     6c8:	3a 21                	cmp    (%ecx),%ah
     6ca:	01 3b                	add    %edi,(%ebx)
     6cc:	0b 39                	or     (%ecx),%edi
     6ce:	21 10                	and    %edx,(%eax)
     6d0:	49                   	dec    %ecx
     6d1:	13 3f                	adc    (%edi),%edi
     6d3:	19 3c 19             	sbb    %edi,(%ecx,%ebx,1)
     6d6:	00 00                	add    %al,(%eax)
     6d8:	0b 2e                	or     (%esi),%ebp
     6da:	01 3f                	add    %edi,(%edi)
     6dc:	19 03                	sbb    %eax,(%ebx)
     6de:	0e                   	push   %cs
     6df:	3a 21                	cmp    (%ecx),%ah
     6e1:	08 3b                	or     %bh,(%ebx)
     6e3:	0b 39                	or     (%ecx),%edi
     6e5:	21 07                	and    %eax,(%edi)
     6e7:	27                   	daa    
     6e8:	19 49 13             	sbb    %ecx,0x13(%ecx)
     6eb:	3c 19                	cmp    $0x19,%al
     6ed:	01 13                	add    %edx,(%ebx)
     6ef:	00 00                	add    %al,(%eax)
     6f1:	0c 0f                	or     $0xf,%al
     6f3:	00 0b                	add    %cl,(%ebx)
     6f5:	21 04 49             	and    %eax,(%ecx,%ecx,2)
     6f8:	13 00                	adc    (%eax),%eax
     6fa:	00 0d 18 00 00 00    	add    %cl,0x18
     700:	0e                   	push   %cs
     701:	0b 01                	or     (%ecx),%eax
     703:	11 01                	adc    %eax,(%ecx)
     705:	12 06                	adc    (%esi),%al
     707:	01 13                	add    %edx,(%ebx)
     709:	00 00                	add    %al,(%eax)
     70b:	0f 0d 00             	prefetch (%eax)
     70e:	03 08                	add    (%eax),%ecx
     710:	3a 21                	cmp    (%ecx),%ah
     712:	06                   	push   %es
     713:	3b 0b                	cmp    (%ebx),%ecx
     715:	39 0b                	cmp    %ecx,(%ebx)
     717:	49                   	dec    %ecx
     718:	13 38                	adc    (%eax),%edi
     71a:	0b 00                	or     (%eax),%eax
     71c:	00 10                	add    %dl,(%eax)
     71e:	17                   	pop    %ss
     71f:	01 0b                	add    %ecx,(%ebx)
     721:	0b 3a                	or     (%edx),%edi
     723:	21 06                	and    %eax,(%esi)
     725:	3b 0b                	cmp    (%ebx),%ecx
     727:	39 21                	cmp    %esp,(%ecx)
     729:	05 01 13 00 00       	add    $0x1301,%eax
     72e:	11 0d 00 03 0e 3a    	adc    %ecx,0x3a0e0300
     734:	21 06                	and    %eax,(%esi)
     736:	3b 0b                	cmp    (%ebx),%ecx
     738:	39 0b                	cmp    %ecx,(%ebx)
     73a:	49                   	dec    %ecx
     73b:	13 00                	adc    (%eax),%eax
     73d:	00 12                	add    %dl,(%edx)
     73f:	13 01                	adc    (%ecx),%eax
     741:	0b 0b                	or     (%ebx),%ecx
     743:	3a 21                	cmp    (%ecx),%ah
     745:	06                   	push   %es
     746:	3b 0b                	cmp    (%ebx),%ecx
     748:	39 21                	cmp    %esp,(%ecx)
     74a:	09 01                	or     %eax,(%ecx)
     74c:	13 00                	adc    (%eax),%eax
     74e:	00 13                	add    %dl,(%ebx)
     750:	0d 00 49 13 00       	or     $0x134900,%eax
     755:	00 14 2e             	add    %dl,(%esi,%ebp,1)
     758:	01 3f                	add    %edi,(%edi)
     75a:	19 03                	sbb    %eax,(%ebx)
     75c:	0e                   	push   %cs
     75d:	3a 0b                	cmp    (%ebx),%cl
     75f:	3b 0b                	cmp    (%ebx),%ecx
     761:	39 0b                	cmp    %ecx,(%ebx)
     763:	3c 19                	cmp    $0x19,%al
     765:	01 13                	add    %edx,(%ebx)
     767:	00 00                	add    %al,(%eax)
     769:	15 2e 01 3f 19       	adc    $0x193f012e,%eax
     76e:	03 0e                	add    (%esi),%ecx
     770:	3a 21                	cmp    (%ecx),%ah
     772:	01 3b                	add    %edi,(%ebx)
     774:	0b 39                	or     (%ecx),%edi
     776:	21 01                	and    %eax,(%ecx)
     778:	11 01                	adc    %eax,(%ecx)
     77a:	12 06                	adc    (%esi),%al
     77c:	40                   	inc    %eax
     77d:	18 7a 19             	sbb    %bh,0x19(%edx)
     780:	01 13                	add    %edx,(%ebx)
     782:	00 00                	add    %al,(%eax)
     784:	16                   	push   %ss
     785:	0b 01                	or     (%ecx),%eax
     787:	55                   	push   %ebp
     788:	17                   	pop    %ss
     789:	01 13                	add    %edx,(%ebx)
     78b:	00 00                	add    %al,(%eax)
     78d:	17                   	pop    %ss
     78e:	11 01                	adc    %eax,(%ecx)
     790:	25 0e 13 0b 03       	and    $0x30b130e,%eax
     795:	1f                   	pop    %ds
     796:	1b 1f                	sbb    (%edi),%ebx
     798:	11 01                	adc    %eax,(%ecx)
     79a:	12 06                	adc    (%esi),%al
     79c:	10 17                	adc    %dl,(%edi)
     79e:	00 00                	add    %al,(%eax)
     7a0:	18 24 00             	sbb    %ah,(%eax,%eax,1)
     7a3:	0b 0b                	or     (%ebx),%ecx
     7a5:	3e 0b 03             	or     %ds:(%ebx),%eax
     7a8:	08 00                	or     %al,(%eax)
     7aa:	00 19                	add    %bl,(%ecx)
     7ac:	0d 00 49 13 38       	or     $0x38134900,%eax
     7b1:	0b 00                	or     (%eax),%eax
     7b3:	00 1a                	add    %bl,(%edx)
     7b5:	0f 00 0b             	str    (%ebx)
     7b8:	0b 00                	or     (%eax),%eax
     7ba:	00 1b                	add    %bl,(%ebx)
     7bc:	34 00                	xor    $0x0,%al
     7be:	03 08                	add    (%eax),%ecx
     7c0:	3a 0b                	cmp    (%ebx),%cl
     7c2:	3b 0b                	cmp    (%ebx),%ecx
     7c4:	39 0b                	cmp    %ecx,(%ebx)
     7c6:	49                   	dec    %ecx
     7c7:	13 02                	adc    (%edx),%eax
     7c9:	18 00                	sbb    %al,(%eax)
     7cb:	00 1c 01             	add    %bl,(%ecx,%eax,1)
     7ce:	01 49 13             	add    %ecx,0x13(%ecx)
     7d1:	01 13                	add    %edx,(%ebx)
     7d3:	00 00                	add    %al,(%eax)
     7d5:	1d 21 00 49 13       	sbb    $0x13490021,%eax
     7da:	2f                   	das    
     7db:	0b 00                	or     (%eax),%eax
     7dd:	00 1e                	add    %bl,(%esi)
     7df:	2e 01 3f             	add    %edi,%cs:(%edi)
     7e2:	19 03                	sbb    %eax,(%ebx)
     7e4:	0e                   	push   %cs
     7e5:	3a 0b                	cmp    (%ebx),%cl
     7e7:	3b 0b                	cmp    (%ebx),%ecx
     7e9:	39 0b                	cmp    %ecx,(%ebx)
     7eb:	27                   	daa    
     7ec:	19 11                	sbb    %edx,(%ecx)
     7ee:	01 12                	add    %edx,(%edx)
     7f0:	06                   	push   %es
     7f1:	40                   	inc    %eax
     7f2:	18 7a 19             	sbb    %bh,0x19(%edx)
     7f5:	01 13                	add    %edx,(%ebx)
     7f7:	00 00                	add    %al,(%eax)
     7f9:	1f                   	pop    %ds
     7fa:	05 00 03 0e 3a       	add    $0x3a0e0300,%eax
     7ff:	0b 3b                	or     (%ebx),%edi
     801:	0b 39                	or     (%ecx),%edi
     803:	0b 49 13             	or     0x13(%ecx),%ecx
     806:	02 18                	add    (%eax),%bl
     808:	00 00                	add    %al,(%eax)
     80a:	20 34 00             	and    %dh,(%eax,%eax,1)
     80d:	03 0e                	add    (%esi),%ecx
     80f:	3a 0b                	cmp    (%ebx),%cl
     811:	3b 0b                	cmp    (%ebx),%ecx
     813:	39 0b                	cmp    %ecx,(%ebx)
     815:	49                   	dec    %ecx
     816:	13 1c 0b             	adc    (%ebx,%ecx,1),%ebx
     819:	00 00                	add    %al,(%eax)
     81b:	21 0b                	and    %ecx,(%ebx)
     81d:	01 11                	add    %edx,(%ecx)
     81f:	01 12                	add    %edx,(%edx)
     821:	06                   	push   %es
     822:	00 00                	add    %al,(%eax)
     824:	22 34 00             	and    (%eax,%eax,1),%dh
     827:	03 0e                	add    (%esi),%ecx
     829:	3a 0b                	cmp    (%ebx),%cl
     82b:	3b 0b                	cmp    (%ebx),%ecx
     82d:	39 0b                	cmp    %ecx,(%ebx)
     82f:	49                   	dec    %ecx
     830:	13 02                	adc    (%edx),%eax
     832:	18 00                	sbb    %al,(%eax)
     834:	00 00                	add    %al,(%eax)
     836:	01 34 00             	add    %esi,(%eax,%eax,1)
     839:	03 0e                	add    (%esi),%ecx
     83b:	3a 21                	cmp    (%ecx),%ah
     83d:	01 3b                	add    %edi,(%ebx)
     83f:	0b 39                	or     (%ecx),%edi
     841:	0b 49 13             	or     0x13(%ecx),%ecx
     844:	02 17                	add    (%edi),%dl
     846:	b7 42                	mov    $0x42,%bh
     848:	17                   	pop    %ss
     849:	00 00                	add    %al,(%eax)
     84b:	02 24 00             	add    (%eax,%eax,1),%ah
     84e:	0b 0b                	or     (%ebx),%ecx
     850:	3e 0b 03             	or     %ds:(%ebx),%eax
     853:	0e                   	push   %cs
     854:	00 00                	add    %al,(%eax)
     856:	03 34 00             	add    (%eax,%eax,1),%esi
     859:	03 08                	add    (%eax),%ecx
     85b:	3a 21                	cmp    (%ecx),%ah
     85d:	01 3b                	add    %edi,(%ebx)
     85f:	0b 39                	or     (%ecx),%edi
     861:	0b 49 13             	or     0x13(%ecx),%ecx
     864:	02 17                	add    (%edi),%dl
     866:	b7 42                	mov    $0x42,%bh
     868:	17                   	pop    %ss
     869:	00 00                	add    %al,(%eax)
     86b:	04 05                	add    $0x5,%al
     86d:	00 03                	add    %al,(%ebx)
     86f:	0e                   	push   %cs
     870:	3a 21                	cmp    (%ecx),%ah
     872:	01 3b                	add    %edi,(%ebx)
     874:	0b 39                	or     (%ecx),%edi
     876:	0b 49 13             	or     0x13(%ecx),%ecx
     879:	02 18                	add    (%eax),%bl
     87b:	00 00                	add    %al,(%eax)
     87d:	05 16 00 03 0e       	add    $0xe030016,%eax
     882:	3a 0b                	cmp    (%ebx),%cl
     884:	3b 0b                	cmp    (%ebx),%ecx
     886:	39 0b                	cmp    %ecx,(%ebx)
     888:	49                   	dec    %ecx
     889:	13 00                	adc    (%eax),%eax
     88b:	00 06                	add    %al,(%esi)
     88d:	2e 01 3f             	add    %edi,%cs:(%edi)
     890:	19 03                	sbb    %eax,(%ebx)
     892:	0e                   	push   %cs
     893:	3a 21                	cmp    (%ecx),%ah
     895:	01 3b                	add    %edi,(%ebx)
     897:	0b 39                	or     (%ecx),%edi
     899:	21 01                	and    %eax,(%ecx)
     89b:	27                   	daa    
     89c:	19 11                	sbb    %edx,(%ecx)
     89e:	01 12                	add    %edx,(%edx)
     8a0:	06                   	push   %es
     8a1:	40                   	inc    %eax
     8a2:	18 7a 19             	sbb    %bh,0x19(%edx)
     8a5:	01 13                	add    %edx,(%ebx)
     8a7:	00 00                	add    %al,(%eax)
     8a9:	07                   	pop    %es
     8aa:	34 00                	xor    $0x0,%al
     8ac:	03 0e                	add    (%esi),%ecx
     8ae:	3a 21                	cmp    (%ecx),%ah
     8b0:	01 3b                	add    %edi,(%ebx)
     8b2:	0b 39                	or     (%ecx),%edi
     8b4:	0b 49 13             	or     0x13(%ecx),%ecx
     8b7:	3f                   	aas    
     8b8:	19 02                	sbb    %eax,(%edx)
     8ba:	18 00                	sbb    %al,(%eax)
     8bc:	00 08                	add    %cl,(%eax)
     8be:	48                   	dec    %eax
     8bf:	00 7d 01             	add    %bh,0x1(%ebp)
     8c2:	7f 13                	jg     8d7 <start_-0xff735>
     8c4:	00 00                	add    %al,(%eax)
     8c6:	09 0b                	or     %ecx,(%ebx)
     8c8:	01 11                	add    %edx,(%ecx)
     8ca:	01 12                	add    %edx,(%edx)
     8cc:	06                   	push   %es
     8cd:	00 00                	add    %al,(%eax)
     8cf:	0a 0b                	or     (%ebx),%cl
     8d1:	01 55 17             	add    %edx,0x17(%ebp)
     8d4:	00 00                	add    %al,(%eax)
     8d6:	0b 05 00 03 08 3a    	or     0x3a080300,%eax
     8dc:	21 01                	and    %eax,(%ecx)
     8de:	3b 0b                	cmp    (%ebx),%ecx
     8e0:	39 0b                	cmp    %ecx,(%ebx)
     8e2:	49                   	dec    %ecx
     8e3:	13 02                	adc    (%edx),%eax
     8e5:	18 00                	sbb    %al,(%eax)
     8e7:	00 0c 11             	add    %cl,(%ecx,%edx,1)
     8ea:	01 25 0e 13 0b 03    	add    %esp,0x30b130e
     8f0:	1f                   	pop    %ds
     8f1:	1b 1f                	sbb    (%edi),%ebx
     8f3:	11 01                	adc    %eax,(%ecx)
     8f5:	12 06                	adc    (%esi),%al
     8f7:	10 17                	adc    %dl,(%edi)
     8f9:	00 00                	add    %al,(%eax)
     8fb:	0d 24 00 0b 0b       	or     $0xb0b0024,%eax
     900:	3e 0b 03             	or     %ds:(%ebx),%eax
     903:	08 00                	or     %al,(%eax)
     905:	00 0e                	add    %cl,(%esi)
     907:	01 01                	add    %eax,(%ecx)
     909:	49                   	dec    %ecx
     90a:	13 01                	adc    (%ecx),%eax
     90c:	13 00                	adc    (%eax),%eax
     90e:	00 0f                	add    %cl,(%edi)
     910:	21 00                	and    %eax,(%eax)
     912:	49                   	dec    %ecx
     913:	13 2f                	adc    (%edi),%ebp
     915:	06                   	push   %es
     916:	00 00                	add    %al,(%eax)
     918:	10 2e                	adc    %ch,(%esi)
     91a:	01 3f                	add    %edi,(%edi)
     91c:	19 03                	sbb    %eax,(%ebx)
     91e:	0e                   	push   %cs
     91f:	3a 0b                	cmp    (%ebx),%cl
     921:	3b 0b                	cmp    (%ebx),%ecx
     923:	39 0b                	cmp    %ecx,(%ebx)
     925:	27                   	daa    
     926:	19 49 13             	sbb    %ecx,0x13(%ecx)
     929:	11 01                	adc    %eax,(%ecx)
     92b:	12 06                	adc    (%esi),%al
     92d:	40                   	inc    %eax
     92e:	18 7a 19             	sbb    %bh,0x19(%edx)
     931:	01 13                	add    %edx,(%ebx)
     933:	00 00                	add    %al,(%eax)
     935:	11 0f                	adc    %ecx,(%edi)
     937:	00 0b                	add    %cl,(%ebx)
     939:	0b 00                	or     (%eax),%eax
     93b:	00 12                	add    %dl,(%edx)
     93d:	2e 01 3f             	add    %edi,%cs:(%edi)
     940:	19 03                	sbb    %eax,(%ebx)
     942:	0e                   	push   %cs
     943:	3a 0b                	cmp    (%ebx),%cl
     945:	3b 0b                	cmp    (%ebx),%ecx
     947:	39 0b                	cmp    %ecx,(%ebx)
     949:	49                   	dec    %ecx
     94a:	13 11                	adc    (%ecx),%edx
     94c:	01 12                	add    %edx,(%edx)
     94e:	06                   	push   %es
     94f:	40                   	inc    %eax
     950:	18 7a 19             	sbb    %bh,0x19(%edx)
     953:	01 13                	add    %edx,(%ebx)
     955:	00 00                	add    %al,(%eax)
     957:	13 2e                	adc    (%esi),%ebp
     959:	01 3f                	add    %edi,(%edi)
     95b:	19 03                	sbb    %eax,(%ebx)
     95d:	0e                   	push   %cs
     95e:	3a 0b                	cmp    (%ebx),%cl
     960:	3b 0b                	cmp    (%ebx),%ecx
     962:	39 0b                	cmp    %ecx,(%ebx)
     964:	27                   	daa    
     965:	19 11                	sbb    %edx,(%ecx)
     967:	01 12                	add    %edx,(%edx)
     969:	06                   	push   %es
     96a:	40                   	inc    %eax
     96b:	18 7a 19             	sbb    %bh,0x19(%edx)
     96e:	00 00                	add    %al,(%eax)
     970:	00 01                	add    %al,(%ecx)
     972:	34 00                	xor    $0x0,%al
     974:	03 08                	add    (%eax),%ecx
     976:	3a 21                	cmp    (%ecx),%ah
     978:	01 3b                	add    %edi,(%ebx)
     97a:	0b 39                	or     (%ecx),%edi
     97c:	0b 49 13             	or     0x13(%ecx),%ecx
     97f:	02 17                	add    (%edi),%dl
     981:	b7 42                	mov    $0x42,%bh
     983:	17                   	pop    %ss
     984:	00 00                	add    %al,(%eax)
     986:	02 24 00             	add    (%eax,%eax,1),%ah
     989:	0b 0b                	or     (%ebx),%ecx
     98b:	3e 0b 03             	or     %ds:(%ebx),%eax
     98e:	0e                   	push   %cs
     98f:	00 00                	add    %al,(%eax)
     991:	03 34 00             	add    (%eax,%eax,1),%esi
     994:	03 0e                	add    (%esi),%ecx
     996:	3a 21                	cmp    (%ecx),%ah
     998:	01 3b                	add    %edi,(%ebx)
     99a:	0b 39                	or     (%ecx),%edi
     99c:	0b 49 13             	or     0x13(%ecx),%ecx
     99f:	02 17                	add    (%edi),%dl
     9a1:	b7 42                	mov    $0x42,%bh
     9a3:	17                   	pop    %ss
     9a4:	00 00                	add    %al,(%eax)
     9a6:	04 16                	add    $0x16,%al
     9a8:	00 03                	add    %al,(%ebx)
     9aa:	0e                   	push   %cs
     9ab:	3a 0b                	cmp    (%ebx),%cl
     9ad:	3b 0b                	cmp    (%ebx),%ecx
     9af:	39 0b                	cmp    %ecx,(%ebx)
     9b1:	49                   	dec    %ecx
     9b2:	13 00                	adc    (%eax),%eax
     9b4:	00 05 48 00 7d 01    	add    %al,0x17d0048
     9ba:	7f 13                	jg     9cf <start_-0xff63d>
     9bc:	00 00                	add    %al,(%eax)
     9be:	06                   	push   %es
     9bf:	05 00 49 13 00       	add    $0x134900,%eax
     9c4:	00 07                	add    %al,(%edi)
     9c6:	05 00 03 08 3a       	add    $0x3a080300,%eax
     9cb:	21 01                	and    %eax,(%ecx)
     9cd:	3b 0b                	cmp    (%ebx),%ecx
     9cf:	39 0b                	cmp    %ecx,(%ebx)
     9d1:	49                   	dec    %ecx
     9d2:	13 02                	adc    (%edx),%eax
     9d4:	18 00                	sbb    %al,(%eax)
     9d6:	00 08                	add    %cl,(%eax)
     9d8:	05 00 03 0e 3a       	add    $0x3a0e0300,%eax
     9dd:	21 01                	and    %eax,(%ecx)
     9df:	3b 0b                	cmp    (%ebx),%ecx
     9e1:	39 0b                	cmp    %ecx,(%ebx)
     9e3:	49                   	dec    %ecx
     9e4:	13 02                	adc    (%edx),%eax
     9e6:	17                   	pop    %ss
     9e7:	b7 42                	mov    $0x42,%bh
     9e9:	17                   	pop    %ss
     9ea:	00 00                	add    %al,(%eax)
     9ec:	09 2e                	or     %ebp,(%esi)
     9ee:	01 3f                	add    %edi,(%edi)
     9f0:	19 03                	sbb    %eax,(%ebx)
     9f2:	0e                   	push   %cs
     9f3:	3a 21                	cmp    (%ecx),%ah
     9f5:	01 3b                	add    %edi,(%ebx)
     9f7:	0b 39                	or     (%ecx),%edi
     9f9:	21 01                	and    %eax,(%ecx)
     9fb:	27                   	daa    
     9fc:	19 49 13             	sbb    %ecx,0x13(%ecx)
     9ff:	11 01                	adc    %eax,(%ecx)
     a01:	12 06                	adc    (%esi),%al
     a03:	40                   	inc    %eax
     a04:	18 7a 19             	sbb    %bh,0x19(%edx)
     a07:	01 13                	add    %edx,(%ebx)
     a09:	00 00                	add    %al,(%eax)
     a0b:	0a 0f                	or     (%edi),%cl
     a0d:	00 0b                	add    %cl,(%ebx)
     a0f:	21 04 49             	and    %eax,(%ecx,%ecx,2)
     a12:	13 00                	adc    (%eax),%eax
     a14:	00 0b                	add    %cl,(%ebx)
     a16:	2e 01 3f             	add    %edi,%cs:(%edi)
     a19:	19 03                	sbb    %eax,(%ebx)
     a1b:	0e                   	push   %cs
     a1c:	3a 0b                	cmp    (%ebx),%cl
     a1e:	3b 0b                	cmp    (%ebx),%ecx
     a20:	39 0b                	cmp    %ecx,(%ebx)
     a22:	27                   	daa    
     a23:	19 49 13             	sbb    %ecx,0x13(%ecx)
     a26:	3c 19                	cmp    $0x19,%al
     a28:	01 13                	add    %edx,(%ebx)
     a2a:	00 00                	add    %al,(%eax)
     a2c:	0c 34                	or     $0x34,%al
     a2e:	00 03                	add    %al,(%ebx)
     a30:	0e                   	push   %cs
     a31:	3a 21                	cmp    (%ecx),%ah
     a33:	01 3b                	add    %edi,(%ebx)
     a35:	0b 39                	or     (%ecx),%edi
     a37:	21 0c 49             	and    %ecx,(%ecx,%ecx,2)
     a3a:	13 1c 21             	adc    (%ecx,%eiz,1),%ebx
     a3d:	80 60 00 00          	andb   $0x0,0x0(%eax)
     a41:	0d 0b 01 11 01       	or     $0x111010b,%eax
     a46:	12 06                	adc    (%esi),%al
     a48:	00 00                	add    %al,(%eax)
     a4a:	0e                   	push   %cs
     a4b:	2e 01 3f             	add    %edi,%cs:(%edi)
     a4e:	19 03                	sbb    %eax,(%ebx)
     a50:	0e                   	push   %cs
     a51:	3a 21                	cmp    (%ecx),%ah
     a53:	01 3b                	add    %edi,(%ebx)
     a55:	0b 39                	or     (%ecx),%edi
     a57:	21 01                	and    %eax,(%ecx)
     a59:	27                   	daa    
     a5a:	19 11                	sbb    %edx,(%ecx)
     a5c:	01 12                	add    %edx,(%edx)
     a5e:	06                   	push   %es
     a5f:	40                   	inc    %eax
     a60:	18 7a 19             	sbb    %bh,0x19(%edx)
     a63:	01 13                	add    %edx,(%ebx)
     a65:	00 00                	add    %al,(%eax)
     a67:	0f 05                	syscall 
     a69:	00 03                	add    %al,(%ebx)
     a6b:	08 3a                	or     %bh,(%edx)
     a6d:	21 01                	and    %eax,(%ecx)
     a6f:	3b 0b                	cmp    (%ebx),%ecx
     a71:	39 0b                	cmp    %ecx,(%ebx)
     a73:	49                   	dec    %ecx
     a74:	13 02                	adc    (%edx),%eax
     a76:	17                   	pop    %ss
     a77:	b7 42                	mov    $0x42,%bh
     a79:	17                   	pop    %ss
     a7a:	00 00                	add    %al,(%eax)
     a7c:	10 11                	adc    %dl,(%ecx)
     a7e:	01 25 0e 13 0b 03    	add    %esp,0x30b130e
     a84:	1f                   	pop    %ds
     a85:	1b 1f                	sbb    (%edi),%ebx
     a87:	11 01                	adc    %eax,(%ecx)
     a89:	12 06                	adc    (%esi),%al
     a8b:	10 17                	adc    %dl,(%edi)
     a8d:	00 00                	add    %al,(%eax)
     a8f:	11 24 00             	adc    %esp,(%eax,%eax,1)
     a92:	0b 0b                	or     (%ebx),%ecx
     a94:	3e 0b 03             	or     %ds:(%ebx),%eax
     a97:	08 00                	or     %al,(%eax)
     a99:	00 12                	add    %dl,(%edx)
     a9b:	0f 00 0b             	str    (%ebx)
     a9e:	0b 00                	or     (%eax),%eax
     aa0:	00 13                	add    %dl,(%ebx)
     aa2:	2e 01 3f             	add    %edi,%cs:(%edi)
     aa5:	19 03                	sbb    %eax,(%ebx)
     aa7:	0e                   	push   %cs
     aa8:	3a 0b                	cmp    (%ebx),%cl
     aaa:	3b 0b                	cmp    (%ebx),%ecx
     aac:	39 0b                	cmp    %ecx,(%ebx)
     aae:	49                   	dec    %ecx
     aaf:	13 3c 19             	adc    (%ecx,%ebx,1),%edi
     ab2:	01 13                	add    %edx,(%ebx)
     ab4:	00 00                	add    %al,(%eax)
     ab6:	14 18                	adc    $0x18,%al
     ab8:	00 00                	add    %al,(%eax)
     aba:	00 15 0b 01 55 17    	add    %dl,0x1755010b
     ac0:	00 00                	add    %al,(%eax)
     ac2:	16                   	push   %ss
     ac3:	2e 01 3f             	add    %edi,%cs:(%edi)
     ac6:	19 03                	sbb    %eax,(%ebx)
     ac8:	0e                   	push   %cs
     ac9:	3a 0b                	cmp    (%ebx),%cl
     acb:	3b 0b                	cmp    (%ebx),%ecx
     acd:	39 0b                	cmp    %ecx,(%ebx)
     acf:	49                   	dec    %ecx
     ad0:	13 11                	adc    (%ecx),%edx
     ad2:	01 12                	add    %edx,(%edx)
     ad4:	06                   	push   %es
     ad5:	40                   	inc    %eax
     ad6:	18 7a 19             	sbb    %bh,0x19(%edx)
     ad9:	01 13                	add    %edx,(%ebx)
     adb:	00 00                	add    %al,(%eax)
     add:	17                   	pop    %ss
     ade:	0b 01                	or     (%ecx),%eax
     ae0:	11 01                	adc    %eax,(%ecx)
     ae2:	12 06                	adc    (%esi),%al
     ae4:	01 13                	add    %edx,(%ebx)
     ae6:	00 00                	add    %al,(%eax)
     ae8:	18 2e                	sbb    %ch,(%esi)
     aea:	00 3f                	add    %bh,(%edi)
     aec:	19 03                	sbb    %eax,(%ebx)
     aee:	0e                   	push   %cs
     aef:	3a 0b                	cmp    (%ebx),%cl
     af1:	3b 0b                	cmp    (%ebx),%ecx
     af3:	39 0b                	cmp    %ecx,(%ebx)
     af5:	11 01                	adc    %eax,(%ecx)
     af7:	12 06                	adc    (%esi),%al
     af9:	40                   	inc    %eax
     afa:	18 7a 19             	sbb    %bh,0x19(%edx)
     afd:	00 00                	add    %al,(%eax)
     aff:	19 2e                	sbb    %ebp,(%esi)
     b01:	01 3f                	add    %edi,(%edi)
     b03:	19 03                	sbb    %eax,(%ebx)
     b05:	0e                   	push   %cs
     b06:	3a 0b                	cmp    (%ebx),%cl
     b08:	3b 0b                	cmp    (%ebx),%ecx
     b0a:	39 0b                	cmp    %ecx,(%ebx)
     b0c:	49                   	dec    %ecx
     b0d:	13 11                	adc    (%ecx),%edx
     b0f:	01 12                	add    %edx,(%edx)
     b11:	06                   	push   %es
     b12:	40                   	inc    %eax
     b13:	18 7a 19             	sbb    %bh,0x19(%edx)
     b16:	00 00                	add    %al,(%eax)
     b18:	00 01                	add    %al,(%ecx)
     b1a:	24 00                	and    $0x0,%al
     b1c:	0b 0b                	or     (%ebx),%ecx
     b1e:	3e 0b 03             	or     %ds:(%ebx),%eax
     b21:	0e                   	push   %cs
     b22:	00 00                	add    %al,(%eax)
     b24:	02 16                	add    (%esi),%dl
     b26:	00 03                	add    %al,(%ebx)
     b28:	0e                   	push   %cs
     b29:	3a 0b                	cmp    (%ebx),%cl
     b2b:	3b 0b                	cmp    (%ebx),%ecx
     b2d:	39 0b                	cmp    %ecx,(%ebx)
     b2f:	49                   	dec    %ecx
     b30:	13 00                	adc    (%eax),%eax
     b32:	00 03                	add    %al,(%ebx)
     b34:	34 00                	xor    $0x0,%al
     b36:	03 0e                	add    (%esi),%ecx
     b38:	3a 21                	cmp    (%ecx),%ah
     b3a:	01 3b                	add    %edi,(%ebx)
     b3c:	0b 39                	or     (%ecx),%edi
     b3e:	0b 49 13             	or     0x13(%ecx),%ecx
     b41:	3f                   	aas    
     b42:	19 02                	sbb    %eax,(%edx)
     b44:	18 00                	sbb    %al,(%eax)
     b46:	00 04 48             	add    %al,(%eax,%ecx,2)
     b49:	00 7d 01             	add    %bh,0x1(%ebp)
     b4c:	7f 13                	jg     b61 <start_-0xff4ab>
     b4e:	00 00                	add    %al,(%eax)
     b50:	05 2e 01 3f 19       	add    $0x193f012e,%eax
     b55:	03 0e                	add    (%esi),%ecx
     b57:	3a 21                	cmp    (%ecx),%ah
     b59:	01 3b                	add    %edi,(%ebx)
     b5b:	0b 39                	or     (%ecx),%edi
     b5d:	0b 27                	or     (%edi),%esp
     b5f:	19 11                	sbb    %edx,(%ecx)
     b61:	01 12                	add    %edx,(%edx)
     b63:	06                   	push   %es
     b64:	40                   	inc    %eax
     b65:	18 7a 19             	sbb    %bh,0x19(%edx)
     b68:	01 13                	add    %edx,(%ebx)
     b6a:	00 00                	add    %al,(%eax)
     b6c:	06                   	push   %es
     b6d:	0f 00 0b             	str    (%ebx)
     b70:	21 04 49             	and    %eax,(%ecx,%ecx,2)
     b73:	13 00                	adc    (%eax),%eax
     b75:	00 07                	add    %al,(%edi)
     b77:	05 00 49 13 00       	add    $0x134900,%eax
     b7c:	00 08                	add    %cl,(%eax)
     b7e:	05 00 03 08 3a       	add    $0x3a080300,%eax
     b83:	21 01                	and    %eax,(%ecx)
     b85:	3b 0b                	cmp    (%ebx),%ecx
     b87:	39 0b                	cmp    %ecx,(%ebx)
     b89:	49                   	dec    %ecx
     b8a:	13 02                	adc    (%edx),%eax
     b8c:	18 00                	sbb    %al,(%eax)
     b8e:	00 09                	add    %cl,(%ecx)
     b90:	37                   	aaa    
     b91:	00 49 13             	add    %cl,0x13(%ecx)
     b94:	00 00                	add    %al,(%eax)
     b96:	0a 2e                	or     (%esi),%ch
     b98:	01 3f                	add    %edi,(%edi)
     b9a:	19 03                	sbb    %eax,(%ebx)
     b9c:	0e                   	push   %cs
     b9d:	3a 21                	cmp    (%ecx),%ah
     b9f:	01 3b                	add    %edi,(%ebx)
     ba1:	0b 39                	or     (%ecx),%edi
     ba3:	21 01                	and    %eax,(%ecx)
     ba5:	11 01                	adc    %eax,(%ecx)
     ba7:	12 06                	adc    (%esi),%al
     ba9:	40                   	inc    %eax
     baa:	18 7a 19             	sbb    %bh,0x19(%edx)
     bad:	01 13                	add    %edx,(%ebx)
     baf:	00 00                	add    %al,(%eax)
     bb1:	0b 34 00             	or     (%eax,%eax,1),%esi
     bb4:	03 08                	add    (%eax),%ecx
     bb6:	3a 21                	cmp    (%ecx),%ah
     bb8:	01 3b                	add    %edi,(%ebx)
     bba:	0b 39                	or     (%ecx),%edi
     bbc:	0b 49 13             	or     0x13(%ecx),%ecx
     bbf:	02 17                	add    (%edi),%dl
     bc1:	b7 42                	mov    $0x42,%bh
     bc3:	17                   	pop    %ss
     bc4:	00 00                	add    %al,(%eax)
     bc6:	0c 05                	or     $0x5,%al
     bc8:	00 03                	add    %al,(%ebx)
     bca:	0e                   	push   %cs
     bcb:	3a 21                	cmp    (%ecx),%ah
     bcd:	01 3b                	add    %edi,(%ebx)
     bcf:	0b 39                	or     (%ecx),%edi
     bd1:	0b 49 13             	or     0x13(%ecx),%ecx
     bd4:	02 18                	add    (%eax),%bl
     bd6:	00 00                	add    %al,(%eax)
     bd8:	0d 11 01 25 0e       	or     $0xe250111,%eax
     bdd:	13 0b                	adc    (%ebx),%ecx
     bdf:	03 1f                	add    (%edi),%ebx
     be1:	1b 1f                	sbb    (%edi),%ebx
     be3:	11 01                	adc    %eax,(%ecx)
     be5:	12 06                	adc    (%esi),%al
     be7:	10 17                	adc    %dl,(%edi)
     be9:	00 00                	add    %al,(%eax)
     beb:	0e                   	push   %cs
     bec:	24 00                	and    $0x0,%al
     bee:	0b 0b                	or     (%ebx),%ecx
     bf0:	3e 0b 03             	or     %ds:(%ebx),%eax
     bf3:	08 00                	or     %al,(%eax)
     bf5:	00 0f                	add    %cl,(%edi)
     bf7:	2e 01 3f             	add    %edi,%cs:(%edi)
     bfa:	19 03                	sbb    %eax,(%ebx)
     bfc:	0e                   	push   %cs
     bfd:	3a 0b                	cmp    (%ebx),%cl
     bff:	3b 0b                	cmp    (%ebx),%ecx
     c01:	39 0b                	cmp    %ecx,(%ebx)
     c03:	27                   	daa    
     c04:	19 49 13             	sbb    %ecx,0x13(%ecx)
     c07:	3c 19                	cmp    $0x19,%al
     c09:	01 13                	add    %edx,(%ebx)
     c0b:	00 00                	add    %al,(%eax)
     c0d:	10 0f                	adc    %cl,(%edi)
     c0f:	00 0b                	add    %cl,(%ebx)
     c11:	0b 00                	or     (%eax),%eax
     c13:	00 11                	add    %dl,(%ecx)
     c15:	26 00 00             	add    %al,%es:(%eax)
     c18:	00 12                	add    %dl,(%edx)
     c1a:	0b 01                	or     (%ecx),%eax
     c1c:	11 01                	adc    %eax,(%ecx)
     c1e:	12 06                	adc    (%esi),%al
     c20:	00 00                	add    %al,(%eax)
     c22:	13 34 00             	adc    (%eax,%eax,1),%esi
     c25:	03 0e                	add    (%esi),%ecx
     c27:	3a 0b                	cmp    (%ebx),%cl
     c29:	3b 0b                	cmp    (%ebx),%ecx
     c2b:	39 0b                	cmp    %ecx,(%ebx)
     c2d:	49                   	dec    %ecx
     c2e:	13 1c 05 00 00 14 0b 	adc    0xb140000(,%eax,1),%ebx
     c35:	01 11                	add    %edx,(%ecx)
     c37:	01 12                	add    %edx,(%edx)
     c39:	06                   	push   %es
     c3a:	01 13                	add    %edx,(%ebx)
     c3c:	00 00                	add    %al,(%eax)
     c3e:	15 05 00 03 08       	adc    $0x8030005,%eax
     c43:	3a 0b                	cmp    (%ebx),%cl
     c45:	3b 0b                	cmp    (%ebx),%ecx
     c47:	39 0b                	cmp    %ecx,(%ebx)
     c49:	49                   	dec    %ecx
     c4a:	13 02                	adc    (%edx),%eax
     c4c:	17                   	pop    %ss
     c4d:	b7 42                	mov    $0x42,%bh
     c4f:	17                   	pop    %ss
     c50:	00 00                	add    %al,(%eax)
     c52:	16                   	push   %ss
     c53:	2e 01 3f             	add    %edi,%cs:(%edi)
     c56:	19 03                	sbb    %eax,(%ebx)
     c58:	0e                   	push   %cs
     c59:	3a 0b                	cmp    (%ebx),%cl
     c5b:	3b 0b                	cmp    (%ebx),%ecx
     c5d:	39 0b                	cmp    %ecx,(%ebx)
     c5f:	27                   	daa    
     c60:	19 11                	sbb    %edx,(%ecx)
     c62:	01 12                	add    %edx,(%edx)
     c64:	06                   	push   %es
     c65:	40                   	inc    %eax
     c66:	18 7a 19             	sbb    %bh,0x19(%edx)
     c69:	00 00                	add    %al,(%eax)
     c6b:	00 01                	add    %al,(%ecx)
     c6d:	24 00                	and    $0x0,%al
     c6f:	0b 0b                	or     (%ebx),%ecx
     c71:	3e 0b 03             	or     %ds:(%ebx),%eax
     c74:	0e                   	push   %cs
     c75:	00 00                	add    %al,(%eax)
     c77:	02 18                	add    (%eax),%bl
     c79:	00 00                	add    %al,(%eax)
     c7b:	00 03                	add    %al,(%ebx)
     c7d:	16                   	push   %ss
     c7e:	00 03                	add    %al,(%ebx)
     c80:	0e                   	push   %cs
     c81:	3a 21                	cmp    (%ecx),%ah
     c83:	02 3b                	add    (%ebx),%bh
     c85:	0b 39                	or     (%ecx),%edi
     c87:	0b 49 13             	or     0x13(%ecx),%ecx
     c8a:	00 00                	add    %al,(%eax)
     c8c:	04 2e                	add    $0x2e,%al
     c8e:	01 3f                	add    %edi,(%edi)
     c90:	19 03                	sbb    %eax,(%ebx)
     c92:	0e                   	push   %cs
     c93:	3a 21                	cmp    (%ecx),%ah
     c95:	01 3b                	add    %edi,(%ebx)
     c97:	21 0d 39 21 05 49    	and    %ecx,0x49052139
     c9d:	13 3c 19             	adc    (%ecx,%ebx,1),%edi
     ca0:	01 13                	add    %edx,(%ebx)
     ca2:	00 00                	add    %al,(%eax)
     ca4:	05 48 00 7d 01       	add    $0x17d0048,%eax
     ca9:	7f 13                	jg     cbe <start_-0xff34e>
     cab:	00 00                	add    %al,(%eax)
     cad:	06                   	push   %es
     cae:	11 01                	adc    %eax,(%ecx)
     cb0:	25 0e 13 0b 03       	and    $0x30b130e,%eax
     cb5:	1f                   	pop    %ds
     cb6:	1b 1f                	sbb    (%edi),%ebx
     cb8:	11 01                	adc    %eax,(%ecx)
     cba:	12 06                	adc    (%esi),%al
     cbc:	10 17                	adc    %dl,(%edi)
     cbe:	00 00                	add    %al,(%eax)
     cc0:	07                   	pop    %es
     cc1:	0f 00 0b             	str    (%ebx)
     cc4:	0b 03                	or     (%ebx),%eax
     cc6:	0e                   	push   %cs
     cc7:	49                   	dec    %ecx
     cc8:	13 00                	adc    (%eax),%eax
     cca:	00 08                	add    %cl,(%eax)
     ccc:	2e 01 3f             	add    %edi,%cs:(%edi)
     ccf:	19 03                	sbb    %eax,(%ebx)
     cd1:	0e                   	push   %cs
     cd2:	3a 0b                	cmp    (%ebx),%cl
     cd4:	3b 0b                	cmp    (%ebx),%ecx
     cd6:	39 0b                	cmp    %ecx,(%ebx)
     cd8:	27                   	daa    
     cd9:	19 3c 19             	sbb    %edi,(%ecx,%ebx,1)
     cdc:	01 13                	add    %edx,(%ebx)
     cde:	00 00                	add    %al,(%eax)
     ce0:	09 05 00 49 13 00    	or     %eax,0x134900
     ce6:	00 0a                	add    %cl,(%edx)
     ce8:	0f 00 0b             	str    (%ebx)
     ceb:	0b 49 13             	or     0x13(%ecx),%ecx
     cee:	00 00                	add    %al,(%eax)
     cf0:	0b 24 00             	or     (%eax,%eax,1),%esp
     cf3:	0b 0b                	or     (%ebx),%ecx
     cf5:	3e 0b 03             	or     %ds:(%ebx),%eax
     cf8:	08 00                	or     %al,(%eax)
     cfa:	00 0c 2e             	add    %cl,(%esi,%ebp,1)
     cfd:	01 3f                	add    %edi,(%edi)
     cff:	19 03                	sbb    %eax,(%ebx)
     d01:	0e                   	push   %cs
     d02:	3a 0b                	cmp    (%ebx),%cl
     d04:	3b 0b                	cmp    (%ebx),%ecx
     d06:	39 0b                	cmp    %ecx,(%ebx)
     d08:	27                   	daa    
     d09:	19 11                	sbb    %edx,(%ecx)
     d0b:	01 12                	add    %edx,(%edx)
     d0d:	06                   	push   %es
     d0e:	40                   	inc    %eax
     d0f:	18 7a 19             	sbb    %bh,0x19(%edx)
     d12:	01 13                	add    %edx,(%ebx)
     d14:	00 00                	add    %al,(%eax)
     d16:	0d 05 00 03 08       	or     $0x8030005,%eax
     d1b:	3a 0b                	cmp    (%ebx),%cl
     d1d:	3b 0b                	cmp    (%ebx),%ecx
     d1f:	39 0b                	cmp    %ecx,(%ebx)
     d21:	49                   	dec    %ecx
     d22:	13 02                	adc    (%edx),%eax
     d24:	18 00                	sbb    %al,(%eax)
     d26:	00 0e                	add    %cl,(%esi)
     d28:	34 00                	xor    $0x0,%al
     d2a:	03 0e                	add    (%esi),%ecx
     d2c:	3a 0b                	cmp    (%ebx),%cl
     d2e:	3b 0b                	cmp    (%ebx),%ecx
     d30:	39 0b                	cmp    %ecx,(%ebx)
     d32:	49                   	dec    %ecx
     d33:	13 02                	adc    (%edx),%eax
     d35:	18 00                	sbb    %al,(%eax)
     d37:	00 0f                	add    %cl,(%edi)
     d39:	34 00                	xor    $0x0,%al
     d3b:	03 0e                	add    (%esi),%ecx
     d3d:	3a 0b                	cmp    (%ebx),%cl
     d3f:	3b 0b                	cmp    (%ebx),%ecx
     d41:	39 0b                	cmp    %ecx,(%ebx)
     d43:	49                   	dec    %ecx
     d44:	13 02                	adc    (%edx),%eax
     d46:	17                   	pop    %ss
     d47:	b7 42                	mov    $0x42,%bh
     d49:	17                   	pop    %ss
     d4a:	00 00                	add    %al,(%eax)
     d4c:	10 01                	adc    %al,(%ecx)
     d4e:	01 49 13             	add    %ecx,0x13(%ecx)
     d51:	01 13                	add    %edx,(%ebx)
     d53:	00 00                	add    %al,(%eax)
     d55:	11 21                	adc    %esp,(%ecx)
     d57:	00 49 13             	add    %cl,0x13(%ecx)
     d5a:	2f                   	das    
     d5b:	05 00 00 00 01       	add    $0x1000000,%eax
     d60:	24 00                	and    $0x0,%al
     d62:	0b 0b                	or     (%ebx),%ecx
     d64:	3e 0b 03             	or     %ds:(%ebx),%eax
     d67:	0e                   	push   %cs
     d68:	00 00                	add    %al,(%eax)
     d6a:	02 18                	add    (%eax),%bl
     d6c:	00 00                	add    %al,(%eax)
     d6e:	00 03                	add    %al,(%ebx)
     d70:	48                   	dec    %eax
     d71:	00 7d 01             	add    %bh,0x1(%ebp)
     d74:	7f 13                	jg     d89 <start_-0xff283>
     d76:	00 00                	add    %al,(%eax)
     d78:	04 2e                	add    $0x2e,%al
     d7a:	01 3f                	add    %edi,(%edi)
     d7c:	19 03                	sbb    %eax,(%ebx)
     d7e:	0e                   	push   %cs
     d7f:	3a 21                	cmp    (%ecx),%ah
     d81:	01 3b                	add    %edi,(%ebx)
     d83:	0b 39                	or     (%ecx),%edi
     d85:	21 15 49 13 3c 19    	and    %edx,0x193c1349
     d8b:	01 13                	add    %edx,(%ebx)
     d8d:	00 00                	add    %al,(%eax)
     d8f:	05 0b 01 11 01       	add    $0x111010b,%eax
     d94:	12 06                	adc    (%esi),%al
     d96:	01 13                	add    %edx,(%ebx)
     d98:	00 00                	add    %al,(%eax)
     d9a:	06                   	push   %es
     d9b:	16                   	push   %ss
     d9c:	00 03                	add    %al,(%ebx)
     d9e:	0e                   	push   %cs
     d9f:	3a 0b                	cmp    (%ebx),%cl
     da1:	3b 0b                	cmp    (%ebx),%ecx
     da3:	39 0b                	cmp    %ecx,(%ebx)
     da5:	49                   	dec    %ecx
     da6:	13 00                	adc    (%eax),%eax
     da8:	00 07                	add    %al,(%edi)
     daa:	34 00                	xor    $0x0,%al
     dac:	03 08                	add    (%eax),%ecx
     dae:	3a 21                	cmp    (%ecx),%ah
     db0:	01 3b                	add    %edi,(%ebx)
     db2:	0b 39                	or     (%ecx),%edi
     db4:	0b 49 13             	or     0x13(%ecx),%ecx
     db7:	02 17                	add    (%edi),%dl
     db9:	b7 42                	mov    $0x42,%bh
     dbb:	17                   	pop    %ss
     dbc:	00 00                	add    %al,(%eax)
     dbe:	08 05 00 49 13 00    	or     %al,0x134900
     dc4:	00 09                	add    %cl,(%ecx)
     dc6:	2e 01 3f             	add    %edi,%cs:(%edi)
     dc9:	19 03                	sbb    %eax,(%ebx)
     dcb:	0e                   	push   %cs
     dcc:	3a 21                	cmp    (%ecx),%ah
     dce:	05 3b 0b 39 21       	add    $0x21390b3b,%eax
     dd3:	01 27                	add    %esp,(%edi)
     dd5:	19 49 13             	sbb    %ecx,0x13(%ecx)
     dd8:	3c 19                	cmp    $0x19,%al
     dda:	01 13                	add    %edx,(%ebx)
     ddc:	00 00                	add    %al,(%eax)
     dde:	0a 0f                	or     (%edi),%cl
     de0:	00 0b                	add    %cl,(%ebx)
     de2:	21 04 49             	and    %eax,(%ecx,%ecx,2)
     de5:	13 00                	adc    (%eax),%eax
     de7:	00 0b                	add    %cl,(%ebx)
     de9:	05 00 03 0e 3a       	add    $0x3a0e0300,%eax
     dee:	21 01                	and    %eax,(%ecx)
     df0:	3b 0b                	cmp    (%ebx),%ecx
     df2:	39 0b                	cmp    %ecx,(%ebx)
     df4:	49                   	dec    %ecx
     df5:	13 02                	adc    (%edx),%eax
     df7:	18 00                	sbb    %al,(%eax)
     df9:	00 0c 05 00 03 08 3a 	add    %cl,0x3a080300(,%eax,1)
     e00:	21 01                	and    %eax,(%ecx)
     e02:	3b 0b                	cmp    (%ebx),%ecx
     e04:	39 0b                	cmp    %ecx,(%ebx)
     e06:	49                   	dec    %ecx
     e07:	13 02                	adc    (%edx),%eax
     e09:	17                   	pop    %ss
     e0a:	b7 42                	mov    $0x42,%bh
     e0c:	17                   	pop    %ss
     e0d:	00 00                	add    %al,(%eax)
     e0f:	0d 34 00 03 08       	or     $0x8030034,%eax
     e14:	3a 21                	cmp    (%ecx),%ah
     e16:	01 3b                	add    %edi,(%ebx)
     e18:	0b 39                	or     (%ecx),%edi
     e1a:	0b 49 13             	or     0x13(%ecx),%ecx
     e1d:	02 18                	add    (%eax),%bl
     e1f:	00 00                	add    %al,(%eax)
     e21:	0e                   	push   %cs
     e22:	34 00                	xor    $0x0,%al
     e24:	03 0e                	add    (%esi),%ecx
     e26:	3a 21                	cmp    (%ecx),%ah
     e28:	01 3b                	add    %edi,(%ebx)
     e2a:	0b 39                	or     (%ecx),%edi
     e2c:	0b 49 13             	or     0x13(%ecx),%ecx
     e2f:	02 18                	add    (%eax),%bl
     e31:	00 00                	add    %al,(%eax)
     e33:	0f 11 01             	movups %xmm0,(%ecx)
     e36:	25 0e 13 0b 03       	and    $0x30b130e,%eax
     e3b:	1f                   	pop    %ds
     e3c:	1b 1f                	sbb    (%edi),%ebx
     e3e:	11 01                	adc    %eax,(%ecx)
     e40:	12 06                	adc    (%esi),%al
     e42:	10 17                	adc    %dl,(%edi)
     e44:	00 00                	add    %al,(%eax)
     e46:	10 0f                	adc    %cl,(%edi)
     e48:	00 0b                	add    %cl,(%ebx)
     e4a:	0b 03                	or     (%ebx),%eax
     e4c:	0e                   	push   %cs
     e4d:	49                   	dec    %ecx
     e4e:	13 00                	adc    (%eax),%eax
     e50:	00 11                	add    %dl,(%ecx)
     e52:	26 00 49 13          	add    %cl,%es:0x13(%ecx)
     e56:	00 00                	add    %al,(%eax)
     e58:	12 24 00             	adc    (%eax,%eax,1),%ah
     e5b:	0b 0b                	or     (%ebx),%ecx
     e5d:	3e 0b 03             	or     %ds:(%ebx),%eax
     e60:	08 00                	or     %al,(%eax)
     e62:	00 13                	add    %dl,(%ebx)
     e64:	2e 01 3f             	add    %edi,%cs:(%edi)
     e67:	19 03                	sbb    %eax,(%ebx)
     e69:	0e                   	push   %cs
     e6a:	3a 0b                	cmp    (%ebx),%cl
     e6c:	3b 0b                	cmp    (%ebx),%ecx
     e6e:	39 0b                	cmp    %ecx,(%ebx)
     e70:	27                   	daa    
     e71:	19 11                	sbb    %edx,(%ecx)
     e73:	01 12                	add    %edx,(%edx)
     e75:	06                   	push   %es
     e76:	40                   	inc    %eax
     e77:	18 7a 19             	sbb    %bh,0x19(%edx)
     e7a:	01 13                	add    %edx,(%ebx)
     e7c:	00 00                	add    %al,(%eax)
     e7e:	14 34                	adc    $0x34,%al
     e80:	00 03                	add    %al,(%ebx)
     e82:	0e                   	push   %cs
     e83:	3a 0b                	cmp    (%ebx),%cl
     e85:	3b 0b                	cmp    (%ebx),%ecx
     e87:	39 0b                	cmp    %ecx,(%ebx)
     e89:	49                   	dec    %ecx
     e8a:	13 02                	adc    (%edx),%eax
     e8c:	17                   	pop    %ss
     e8d:	b7 42                	mov    $0x42,%bh
     e8f:	17                   	pop    %ss
     e90:	00 00                	add    %al,(%eax)
     e92:	15 2e 01 3f 19       	adc    $0x193f012e,%eax
     e97:	03 0e                	add    (%esi),%ecx
     e99:	3a 0b                	cmp    (%ebx),%cl
     e9b:	3b 0b                	cmp    (%ebx),%ecx
     e9d:	39 0b                	cmp    %ecx,(%ebx)
     e9f:	27                   	daa    
     ea0:	19 11                	sbb    %edx,(%ecx)
     ea2:	01 12                	add    %edx,(%edx)
     ea4:	06                   	push   %es
     ea5:	40                   	inc    %eax
     ea6:	18 7a 19             	sbb    %bh,0x19(%edx)
     ea9:	00 00                	add    %al,(%eax)
     eab:	16                   	push   %ss
     eac:	05 00 03 0e 3a       	add    $0x3a0e0300,%eax
     eb1:	0b 3b                	or     (%ebx),%edi
     eb3:	0b 39                	or     (%ecx),%edi
     eb5:	0b 49 13             	or     0x13(%ecx),%ecx
     eb8:	02 17                	add    (%edi),%dl
     eba:	b7 42                	mov    $0x42,%bh
     ebc:	17                   	pop    %ss
     ebd:	00 00                	add    %al,(%eax)
     ebf:	17                   	pop    %ss
     ec0:	34 00                	xor    $0x0,%al
     ec2:	03 08                	add    (%eax),%ecx
     ec4:	3a 0b                	cmp    (%ebx),%cl
     ec6:	3b 0b                	cmp    (%ebx),%ecx
     ec8:	39 0b                	cmp    %ecx,(%ebx)
     eca:	49                   	dec    %ecx
     ecb:	13 00                	adc    (%eax),%eax
     ecd:	00 18                	add    %bl,(%eax)
     ecf:	0b 01                	or     (%ecx),%eax
     ed1:	11 01                	adc    %eax,(%ecx)
     ed3:	12 06                	adc    (%esi),%al
     ed5:	00 00                	add    %al,(%eax)
     ed7:	00 01                	add    %al,(%ecx)
     ed9:	24 00                	and    $0x0,%al
     edb:	0b 0b                	or     (%ebx),%ecx
     edd:	3e 0b 03             	or     %ds:(%ebx),%eax
     ee0:	0e                   	push   %cs
     ee1:	00 00                	add    %al,(%eax)
     ee3:	02 05 00 03 0e 3a    	add    0x3a0e0300,%al
     ee9:	21 01                	and    %eax,(%ecx)
     eeb:	3b 0b                	cmp    (%ebx),%ecx
     eed:	39 0b                	cmp    %ecx,(%ebx)
     eef:	49                   	dec    %ecx
     ef0:	13 02                	adc    (%edx),%eax
     ef2:	18 00                	sbb    %al,(%eax)
     ef4:	00 03                	add    %al,(%ebx)
     ef6:	05 00 03 0e 3a       	add    $0x3a0e0300,%eax
     efb:	21 01                	and    %eax,(%ecx)
     efd:	3b 0b                	cmp    (%ebx),%ecx
     eff:	39 0b                	cmp    %ecx,(%ebx)
     f01:	49                   	dec    %ecx
     f02:	13 02                	adc    (%edx),%eax
     f04:	17                   	pop    %ss
     f05:	b7 42                	mov    $0x42,%bh
     f07:	17                   	pop    %ss
     f08:	00 00                	add    %al,(%eax)
     f0a:	04 34                	add    $0x34,%al
     f0c:	00 03                	add    %al,(%ebx)
     f0e:	08 3a                	or     %bh,(%edx)
     f10:	21 01                	and    %eax,(%ecx)
     f12:	3b 0b                	cmp    (%ebx),%ecx
     f14:	39 0b                	cmp    %ecx,(%ebx)
     f16:	49                   	dec    %ecx
     f17:	13 02                	adc    (%edx),%eax
     f19:	17                   	pop    %ss
     f1a:	b7 42                	mov    $0x42,%bh
     f1c:	17                   	pop    %ss
     f1d:	00 00                	add    %al,(%eax)
     f1f:	05 48 00 7d 01       	add    $0x17d0048,%eax
     f24:	7f 13                	jg     f39 <start_-0xff0d3>
     f26:	00 00                	add    %al,(%eax)
     f28:	06                   	push   %es
     f29:	2e 01 3f             	add    %edi,%cs:(%edi)
     f2c:	19 03                	sbb    %eax,(%ebx)
     f2e:	0e                   	push   %cs
     f2f:	3a 21                	cmp    (%ecx),%ah
     f31:	01 3b                	add    %edi,(%ebx)
     f33:	0b 39                	or     (%ecx),%edi
     f35:	21 01                	and    %eax,(%ecx)
     f37:	27                   	daa    
     f38:	19 49 13             	sbb    %ecx,0x13(%ecx)
     f3b:	11 01                	adc    %eax,(%ecx)
     f3d:	12 06                	adc    (%esi),%al
     f3f:	40                   	inc    %eax
     f40:	18 7a 19             	sbb    %bh,0x19(%edx)
     f43:	01 13                	add    %edx,(%ebx)
     f45:	00 00                	add    %al,(%eax)
     f47:	07                   	pop    %es
     f48:	05 00 03 08 3a       	add    $0x3a080300,%eax
     f4d:	21 01                	and    %eax,(%ecx)
     f4f:	3b 0b                	cmp    (%ebx),%ecx
     f51:	39 0b                	cmp    %ecx,(%ebx)
     f53:	49                   	dec    %ecx
     f54:	13 02                	adc    (%edx),%eax
     f56:	17                   	pop    %ss
     f57:	b7 42                	mov    $0x42,%bh
     f59:	17                   	pop    %ss
     f5a:	00 00                	add    %al,(%eax)
     f5c:	08 0f                	or     %cl,(%edi)
     f5e:	00 0b                	add    %cl,(%ebx)
     f60:	21 04 49             	and    %eax,(%ecx,%ecx,2)
     f63:	13 00                	adc    (%eax),%eax
     f65:	00 09                	add    %cl,(%ecx)
     f67:	0b 01                	or     (%ecx),%eax
     f69:	11 01                	adc    %eax,(%ecx)
     f6b:	12 06                	adc    (%esi),%al
     f6d:	00 00                	add    %al,(%eax)
     f6f:	0a 11                	or     (%ecx),%dl
     f71:	01 25 0e 13 0b 03    	add    %esp,0x30b130e
     f77:	1f                   	pop    %ds
     f78:	1b 1f                	sbb    (%edi),%ebx
     f7a:	11 01                	adc    %eax,(%ecx)
     f7c:	12 06                	adc    (%esi),%al
     f7e:	10 17                	adc    %dl,(%edi)
     f80:	00 00                	add    %al,(%eax)
     f82:	0b 24 00             	or     (%eax,%eax,1),%esp
     f85:	0b 0b                	or     (%ebx),%ecx
     f87:	3e 0b 03             	or     %ds:(%ebx),%eax
     f8a:	08 00                	or     %al,(%eax)
     f8c:	00 0c 01             	add    %cl,(%ecx,%eax,1)
     f8f:	01 49 13             	add    %ecx,0x13(%ecx)
     f92:	01 13                	add    %edx,(%ebx)
     f94:	00 00                	add    %al,(%eax)
     f96:	0d 21 00 49 13       	or     $0x13490021,%eax
     f9b:	2f                   	das    
     f9c:	0b 00                	or     (%eax),%eax
     f9e:	00 0e                	add    %cl,(%esi)
     fa0:	34 00                	xor    $0x0,%al
     fa2:	03 0e                	add    (%esi),%ecx
     fa4:	3a 0b                	cmp    (%ebx),%cl
     fa6:	3b 0b                	cmp    (%ebx),%ecx
     fa8:	39 0b                	cmp    %ecx,(%ebx)
     faa:	49                   	dec    %ecx
     fab:	13 3f                	adc    (%edi),%edi
     fad:	19 02                	sbb    %eax,(%edx)
     faf:	18 00                	sbb    %al,(%eax)
     fb1:	00 0f                	add    %cl,(%edi)
     fb3:	0b 01                	or     (%ecx),%eax
     fb5:	11 01                	adc    %eax,(%ecx)
     fb7:	12 06                	adc    (%esi),%al
     fb9:	01 13                	add    %edx,(%ebx)
     fbb:	00 00                	add    %al,(%eax)
     fbd:	10 2e                	adc    %ch,(%esi)
     fbf:	01 3f                	add    %edi,(%edi)
     fc1:	19 03                	sbb    %eax,(%ebx)
     fc3:	0e                   	push   %cs
     fc4:	3a 0b                	cmp    (%ebx),%cl
     fc6:	3b 0b                	cmp    (%ebx),%ecx
     fc8:	39 0b                	cmp    %ecx,(%ebx)
     fca:	27                   	daa    
     fcb:	19 49 13             	sbb    %ecx,0x13(%ecx)
     fce:	11 01                	adc    %eax,(%ecx)
     fd0:	12 06                	adc    (%esi),%al
     fd2:	40                   	inc    %eax
     fd3:	18 7a 19             	sbb    %bh,0x19(%edx)
     fd6:	00 00                	add    %al,(%eax)
     fd8:	11 05 00 03 08 3a    	adc    %eax,0x3a080300
     fde:	0b 3b                	or     (%ebx),%edi
     fe0:	0b 39                	or     (%ecx),%edi
     fe2:	0b 49 13             	or     0x13(%ecx),%ecx
     fe5:	02 18                	add    (%eax),%bl
     fe7:	00 00                	add    %al,(%eax)
     fe9:	00 01                	add    %al,(%ecx)
     feb:	24 00                	and    $0x0,%al
     fed:	0b 0b                	or     (%ebx),%ecx
     fef:	3e 0b 03             	or     %ds:(%ebx),%eax
     ff2:	0e                   	push   %cs
     ff3:	00 00                	add    %al,(%eax)
     ff5:	02 05 00 03 08 3a    	add    0x3a080300,%al
     ffb:	21 01                	and    %eax,(%ecx)
     ffd:	3b 0b                	cmp    (%ebx),%ecx
     fff:	39 0b                	cmp    %ecx,(%ebx)
    1001:	49                   	dec    %ecx
    1002:	13 02                	adc    (%edx),%eax
    1004:	17                   	pop    %ss
    1005:	b7 42                	mov    $0x42,%bh
    1007:	17                   	pop    %ss
    1008:	00 00                	add    %al,(%eax)
    100a:	03 34 00             	add    (%eax,%eax,1),%esi
    100d:	03 08                	add    (%eax),%ecx
    100f:	3a 21                	cmp    (%ecx),%ah
    1011:	01 3b                	add    %edi,(%ebx)
    1013:	0b 39                	or     (%ecx),%edi
    1015:	0b 49 13             	or     0x13(%ecx),%ecx
    1018:	02 17                	add    (%edi),%dl
    101a:	b7 42                	mov    $0x42,%bh
    101c:	17                   	pop    %ss
    101d:	00 00                	add    %al,(%eax)
    101f:	04 34                	add    $0x34,%al
    1021:	00 03                	add    %al,(%ebx)
    1023:	0e                   	push   %cs
    1024:	3a 21                	cmp    (%ecx),%ah
    1026:	01 3b                	add    %edi,(%ebx)
    1028:	0b 39                	or     (%ecx),%edi
    102a:	0b 49 13             	or     0x13(%ecx),%ecx
    102d:	02 17                	add    (%edi),%dl
    102f:	b7 42                	mov    $0x42,%bh
    1031:	17                   	pop    %ss
    1032:	00 00                	add    %al,(%eax)
    1034:	05 05 00 03 0e       	add    $0xe030005,%eax
    1039:	3a 21                	cmp    (%ecx),%ah
    103b:	01 3b                	add    %edi,(%ebx)
    103d:	0b 39                	or     (%ecx),%edi
    103f:	0b 49 13             	or     0x13(%ecx),%ecx
    1042:	02 17                	add    (%edi),%dl
    1044:	b7 42                	mov    $0x42,%bh
    1046:	17                   	pop    %ss
    1047:	00 00                	add    %al,(%eax)
    1049:	06                   	push   %es
    104a:	0b 01                	or     (%ecx),%eax
    104c:	11 01                	adc    %eax,(%ecx)
    104e:	12 06                	adc    (%esi),%al
    1050:	00 00                	add    %al,(%eax)
    1052:	07                   	pop    %es
    1053:	2e 01 3f             	add    %edi,%cs:(%edi)
    1056:	19 03                	sbb    %eax,(%ebx)
    1058:	0e                   	push   %cs
    1059:	3a 21                	cmp    (%ecx),%ah
    105b:	01 3b                	add    %edi,(%ebx)
    105d:	0b 39                	or     (%ecx),%edi
    105f:	21 01                	and    %eax,(%ecx)
    1061:	27                   	daa    
    1062:	19 49 13             	sbb    %ecx,0x13(%ecx)
    1065:	11 01                	adc    %eax,(%ecx)
    1067:	12 06                	adc    (%esi),%al
    1069:	40                   	inc    %eax
    106a:	18 7a 19             	sbb    %bh,0x19(%edx)
    106d:	01 13                	add    %edx,(%ebx)
    106f:	00 00                	add    %al,(%eax)
    1071:	08 0f                	or     %cl,(%edi)
    1073:	00 0b                	add    %cl,(%ebx)
    1075:	21 04 49             	and    %eax,(%ecx,%ecx,2)
    1078:	13 00                	adc    (%eax),%eax
    107a:	00 09                	add    %cl,(%ecx)
    107c:	16                   	push   %ss
    107d:	00 03                	add    %al,(%ebx)
    107f:	0e                   	push   %cs
    1080:	3a 0b                	cmp    (%ebx),%cl
    1082:	3b 0b                	cmp    (%ebx),%ecx
    1084:	39 0b                	cmp    %ecx,(%ebx)
    1086:	49                   	dec    %ecx
    1087:	13 00                	adc    (%eax),%eax
    1089:	00 0a                	add    %cl,(%edx)
    108b:	11 01                	adc    %eax,(%ecx)
    108d:	25 0e 13 0b 03       	and    $0x30b130e,%eax
    1092:	1f                   	pop    %ds
    1093:	1b 1f                	sbb    (%edi),%ebx
    1095:	11 01                	adc    %eax,(%ecx)
    1097:	12 06                	adc    (%esi),%al
    1099:	10 17                	adc    %dl,(%edi)
    109b:	00 00                	add    %al,(%eax)
    109d:	0b 26                	or     (%esi),%esp
    109f:	00 49 13             	add    %cl,0x13(%ecx)
    10a2:	00 00                	add    %al,(%eax)
    10a4:	0c 24                	or     $0x24,%al
    10a6:	00 0b                	add    %cl,(%ebx)
    10a8:	0b 3e                	or     (%esi),%edi
    10aa:	0b 03                	or     (%ebx),%eax
    10ac:	08 00                	or     %al,(%eax)
    10ae:	00 0d 26 00 00 00    	add    %cl,0x26
    10b4:	0e                   	push   %cs
    10b5:	0f 00 0b             	str    (%ebx)
    10b8:	0b 00                	or     (%eax),%eax
    10ba:	00 0f                	add    %cl,(%edi)
    10bc:	0b 01                	or     (%ecx),%eax
    10be:	11 01                	adc    %eax,(%ecx)
    10c0:	12 06                	adc    (%esi),%al
    10c2:	01 13                	add    %edx,(%ebx)
    10c4:	00 00                	add    %al,(%eax)
    10c6:	10 2e                	adc    %ch,(%esi)
    10c8:	01 3f                	add    %edi,(%edi)
    10ca:	19 03                	sbb    %eax,(%ebx)
    10cc:	0e                   	push   %cs
    10cd:	3a 0b                	cmp    (%ebx),%cl
    10cf:	3b 0b                	cmp    (%ebx),%ecx
    10d1:	39 0b                	cmp    %ecx,(%ebx)
    10d3:	27                   	daa    
    10d4:	19 49 13             	sbb    %ecx,0x13(%ecx)
    10d7:	11 01                	adc    %eax,(%ecx)
    10d9:	12 06                	adc    (%esi),%al
    10db:	40                   	inc    %eax
    10dc:	18 7a 19             	sbb    %bh,0x19(%edx)
    10df:	00 00                	add    %al,(%eax)
    10e1:	00 01                	add    %al,(%ecx)
    10e3:	24 00                	and    $0x0,%al
    10e5:	0b 0b                	or     (%ebx),%ecx
    10e7:	3e 0b 03             	or     %ds:(%ebx),%eax
    10ea:	0e                   	push   %cs
    10eb:	00 00                	add    %al,(%eax)
    10ed:	02 34 00             	add    (%eax,%eax,1),%dh
    10f0:	03 08                	add    (%eax),%ecx
    10f2:	3a 21                	cmp    (%ecx),%ah
    10f4:	01 3b                	add    %edi,(%ebx)
    10f6:	0b 39                	or     (%ecx),%edi
    10f8:	0b 49 13             	or     0x13(%ecx),%ecx
    10fb:	02 17                	add    (%edi),%dl
    10fd:	b7 42                	mov    $0x42,%bh
    10ff:	17                   	pop    %ss
    1100:	00 00                	add    %al,(%eax)
    1102:	03 0f                	add    (%edi),%ecx
    1104:	00 0b                	add    %cl,(%ebx)
    1106:	21 04 49             	and    %eax,(%ecx,%ecx,2)
    1109:	13 00                	adc    (%eax),%eax
    110b:	00 04 11             	add    %al,(%ecx,%edx,1)
    110e:	01 25 0e 13 0b 03    	add    %esp,0x30b130e
    1114:	1f                   	pop    %ds
    1115:	1b 1f                	sbb    (%edi),%ebx
    1117:	11 01                	adc    %eax,(%ecx)
    1119:	12 06                	adc    (%esi),%al
    111b:	10 17                	adc    %dl,(%edi)
    111d:	00 00                	add    %al,(%eax)
    111f:	05 24 00 0b 0b       	add    $0xb0b0024,%eax
    1124:	3e 0b 03             	or     %ds:(%ebx),%eax
    1127:	08 00                	or     %al,(%eax)
    1129:	00 06                	add    %al,(%esi)
    112b:	2e 01 3f             	add    %edi,%cs:(%edi)
    112e:	19 03                	sbb    %eax,(%ebx)
    1130:	0e                   	push   %cs
    1131:	3a 0b                	cmp    (%ebx),%cl
    1133:	3b 0b                	cmp    (%ebx),%ecx
    1135:	39 0b                	cmp    %ecx,(%ebx)
    1137:	27                   	daa    
    1138:	19 49 13             	sbb    %ecx,0x13(%ecx)
    113b:	11 01                	adc    %eax,(%ecx)
    113d:	12 06                	adc    (%esi),%al
    113f:	40                   	inc    %eax
    1140:	18 7a 19             	sbb    %bh,0x19(%edx)
    1143:	01 13                	add    %edx,(%ebx)
    1145:	00 00                	add    %al,(%eax)
    1147:	07                   	pop    %es
    1148:	05 00 03 0e 3a       	add    $0x3a0e0300,%eax
    114d:	0b 3b                	or     (%ebx),%edi
    114f:	0b 39                	or     (%ecx),%edi
    1151:	0b 49 13             	or     0x13(%ecx),%ecx
    1154:	02 17                	add    (%edi),%dl
    1156:	b7 42                	mov    $0x42,%bh
    1158:	17                   	pop    %ss
    1159:	00 00                	add    %al,(%eax)
    115b:	08 05 00 03 08 3a    	or     %al,0x3a080300
    1161:	0b 3b                	or     (%ebx),%edi
    1163:	0b 39                	or     (%ecx),%edi
    1165:	0b 49 13             	or     0x13(%ecx),%ecx
    1168:	02 17                	add    (%edi),%dl
    116a:	b7 42                	mov    $0x42,%bh
    116c:	17                   	pop    %ss
    116d:	00 00                	add    %al,(%eax)
    116f:	09 26                	or     %esp,(%esi)
    1171:	00 49 13             	add    %cl,0x13(%ecx)
    1174:	00 00                	add    %al,(%eax)
    1176:	00 01                	add    %al,(%ecx)
    1178:	24 00                	and    $0x0,%al
    117a:	0b 0b                	or     (%ebx),%ecx
    117c:	3e 0b 03             	or     %ds:(%ebx),%eax
    117f:	0e                   	push   %cs
    1180:	00 00                	add    %al,(%eax)
    1182:	02 11                	add    (%ecx),%dl
    1184:	01 25 0e 13 0b 03    	add    %esp,0x30b130e
    118a:	1f                   	pop    %ds
    118b:	1b 1f                	sbb    (%edi),%ebx
    118d:	11 01                	adc    %eax,(%ecx)
    118f:	12 06                	adc    (%esi),%al
    1191:	10 17                	adc    %dl,(%edi)
    1193:	00 00                	add    %al,(%eax)
    1195:	03 16                	add    (%esi),%edx
    1197:	00 03                	add    %al,(%ebx)
    1199:	0e                   	push   %cs
    119a:	3a 0b                	cmp    (%ebx),%cl
    119c:	3b 0b                	cmp    (%ebx),%ecx
    119e:	39 0b                	cmp    %ecx,(%ebx)
    11a0:	49                   	dec    %ecx
    11a1:	13 00                	adc    (%eax),%eax
    11a3:	00 04 24             	add    %al,(%esp)
    11a6:	00 0b                	add    %cl,(%ebx)
    11a8:	0b 3e                	or     (%esi),%edi
    11aa:	0b 03                	or     (%ebx),%eax
    11ac:	08 00                	or     %al,(%eax)
    11ae:	00 05 2e 01 3f 19    	add    %al,0x193f012e
    11b4:	03 0e                	add    (%esi),%ecx
    11b6:	3a 0b                	cmp    (%ebx),%cl
    11b8:	3b 0b                	cmp    (%ebx),%ecx
    11ba:	39 0b                	cmp    %ecx,(%ebx)
    11bc:	27                   	daa    
    11bd:	19 49 13             	sbb    %ecx,0x13(%ecx)
    11c0:	11 01                	adc    %eax,(%ecx)
    11c2:	12 06                	adc    (%esi),%al
    11c4:	40                   	inc    %eax
    11c5:	18 7a 19             	sbb    %bh,0x19(%edx)
    11c8:	01 13                	add    %edx,(%ebx)
    11ca:	00 00                	add    %al,(%eax)
    11cc:	06                   	push   %es
    11cd:	05 00 03 08 3a       	add    $0x3a080300,%eax
    11d2:	0b 3b                	or     (%ebx),%edi
    11d4:	0b 39                	or     (%ecx),%edi
    11d6:	0b 49 13             	or     0x13(%ecx),%ecx
    11d9:	02 17                	add    (%edi),%dl
    11db:	b7 42                	mov    $0x42,%bh
    11dd:	17                   	pop    %ss
    11de:	00 00                	add    %al,(%eax)
    11e0:	07                   	pop    %es
    11e1:	34 00                	xor    $0x0,%al
    11e3:	03 08                	add    (%eax),%ecx
    11e5:	3a 0b                	cmp    (%ebx),%cl
    11e7:	3b 0b                	cmp    (%ebx),%ecx
    11e9:	39 0b                	cmp    %ecx,(%ebx)
    11eb:	49                   	dec    %ecx
    11ec:	13 02                	adc    (%edx),%eax
    11ee:	17                   	pop    %ss
    11ef:	b7 42                	mov    $0x42,%bh
    11f1:	17                   	pop    %ss
    11f2:	00 00                	add    %al,(%eax)
    11f4:	08 0f                	or     %cl,(%edi)
    11f6:	00 0b                	add    %cl,(%ebx)
    11f8:	0b 49 13             	or     0x13(%ecx),%ecx
    11fb:	00 00                	add    %al,(%eax)
    11fd:	09 26                	or     %esp,(%esi)
    11ff:	00 49 13             	add    %cl,0x13(%ecx)
    1202:	00 00                	add    %al,(%eax)
	...

Disassembly of section .debug_loclists:

00000000 <.debug_loclists>:
       0:	a4                   	movsb  %ds:(%esi),%es:(%edi)
       1:	01 00                	add    %eax,(%eax)
       3:	00 05 00 04 00 00    	add    %al,0x400
	...
      11:	00 04 91             	add    %al,(%ecx,%edx,4)
      14:	03 a8 03 02 91 00    	add    0x910203(%eax),%ebp
      1a:	04 a8                	add    $0xa8,%al
      1c:	03 b1 03 01 52 04    	add    0x4520103(%ecx),%esi
      22:	b1 03                	mov    $0x3,%cl
      24:	b7 03                	mov    $0x3,%bh
      26:	02 91 00 00 00 00    	add    0x0(%ecx),%dl
      2c:	00 00                	add    %al,(%eax)
      2e:	00 00                	add    %al,(%eax)
      30:	00 00                	add    %al,(%eax)
      32:	04 91                	add    $0x91,%al
      34:	03 a1 03 02 91 04    	add    0x4910203(%ecx),%esp
      3a:	04 a1                	add    $0xa1,%al
      3c:	03 b1 03 01 51 04    	add    0x4510103(%ecx),%esi
      42:	b1 03                	mov    $0x3,%cl
      44:	b6 03                	mov    $0x3,%dh
      46:	02 91 04 04 b6 03    	add    0x3b60404(%ecx),%dl
      4c:	b7 03                	mov    $0x3,%bh
      4e:	02 74 08 00          	add    0x0(%eax,%ecx,1),%dh
      52:	01 00                	add    %eax,(%eax)
      54:	00 00                	add    %al,(%eax)
      56:	00 00                	add    %al,(%eax)
      58:	04 9a                	add    $0x9a,%al
      5a:	03 a8 03 02 91 00    	add    0x910203(%eax),%ebp
      60:	04 a8                	add    $0xa8,%al
      62:	03 b1 03 01 52 04    	add    0x4520103(%ecx),%esi
      68:	b1 03                	mov    $0x3,%cl
      6a:	b7 03                	mov    $0x3,%bh
      6c:	02 91 00 00 03 00    	add    0x30000(%ecx),%dl
      72:	00 00                	add    %al,(%eax)
      74:	04 9a                	add    $0x9a,%al
      76:	03 a1 03 02 30 9f    	add    -0x60cffdfd(%ecx),%esp
      7c:	04 a1                	add    $0xa1,%al
      7e:	03 b1 03 01 50 00    	add    0x500103(%ecx),%esi
      84:	00 00                	add    %al,(%eax)
      86:	00 00                	add    %al,(%eax)
      88:	00 00                	add    %al,(%eax)
      8a:	04 ab                	add    $0xab,%al
      8c:	02 f6                	add    %dh,%dh
      8e:	02 02                	add    (%edx),%al
      90:	91                   	xchg   %eax,%ecx
      91:	04 04                	add    $0x4,%al
      93:	f6 02 f7             	testb  $0xf7,(%edx)
      96:	02 02                	add    (%edx),%al
      98:	74 08                	je     a2 <start_-0xfff6a>
      9a:	04 f7                	add    $0xf7,%al
      9c:	02 91 03 02 91 04    	add    0x4910203(%ecx),%dl
      a2:	00 01                	add    %al,(%ecx)
      a4:	00 00                	add    %al,(%eax)
      a6:	00 00                	add    %al,(%eax)
      a8:	00 04 ba             	add    %al,(%edx,%edi,4)
      ab:	02 c1                	add    %cl,%al
      ad:	02 02                	add    (%edx),%al
      af:	30 9f 04 c1 02 ef    	xor    %bl,-0x10fd3efc(%edi)
      b5:	02 01                	add    (%ecx),%al
      b7:	53                   	push   %ebx
      b8:	04 f7                	add    $0xf7,%al
      ba:	02 8c 03 01 53 00 02 	add    0x2005301(%ebx,%eax,1),%cl
      c1:	00 00                	add    %al,(%eax)
      c3:	00 00                	add    %al,(%eax)
      c5:	00 04 ba             	add    %al,(%edx,%edi,4)
      c8:	02 f4                	add    %ah,%dh
      ca:	02 01                	add    (%ecx),%al
      cc:	56                   	push   %esi
      cd:	04 f4                	add    $0xf4,%al
      cf:	02 f7                	add    %bh,%dh
      d1:	02 02                	add    (%edx),%al
      d3:	91                   	xchg   %eax,%ecx
      d4:	00 04 f7             	add    %al,(%edi,%esi,8)
      d7:	02 91 03 01 56 00    	add    0x560103(%ecx),%dl
      dd:	00 00                	add    %al,(%eax)
      df:	00 00                	add    %al,(%eax)
      e1:	00 00                	add    %al,(%eax)
      e3:	04 84                	add    $0x84,%al
      e5:	02 a3 02 02 91 00    	add    0x910202(%ebx),%ah
      eb:	04 a3                	add    $0xa3,%al
      ed:	02 a9 02 01 56 04    	add    0x4560102(%ecx),%ch
      f3:	a9 02 ab 02 02       	test   $0x202ab02,%eax
      f8:	91                   	xchg   %eax,%ecx
	...
     101:	04 84                	add    $0x84,%al
     103:	02 a3 02 02 91 04    	add    0x4910202(%ebx),%ah
     109:	04 a3                	add    $0xa3,%al
     10b:	02 a8 02 01 53 04    	add    0x4530102(%eax),%ch
     111:	a8 02                	test   $0x2,%al
     113:	ab                   	stos   %eax,%es:(%edi)
     114:	02 02                	add    (%edx),%al
     116:	91                   	xchg   %eax,%ecx
     117:	04 00                	add    $0x0,%al
     119:	00 00                	add    %al,(%eax)
     11b:	00 00                	add    %al,(%eax)
     11d:	04 84                	add    $0x84,%al
     11f:	02 99 02 02 91 08    	add    0x8910202(%ecx),%bl
     125:	04 99                	add    $0x99,%al
     127:	02 ab 02 01 51 00    	add    0x510102(%ebx),%ch
     12d:	01 00                	add    %eax,(%eax)
     12f:	00 00                	add    %al,(%eax)
     131:	04 92                	add    $0x92,%al
     133:	02 99 02 02 30 9f    	add    -0x60cffdfe(%ecx),%bl
     139:	04 99                	add    $0x99,%al
     13b:	02 ab 02 01 50 00    	add    0x500102(%ebx),%ch
     141:	00 00                	add    %al,(%eax)
     143:	00 00                	add    %al,(%eax)
     145:	04 76                	add    $0x76,%al
     147:	84 01                	test   %al,(%ecx)
     149:	01 53 04             	add    %edx,0x4(%ebx)
     14c:	84 01                	test   %al,(%ecx)
     14e:	84 02                	test   %al,(%edx)
     150:	02 91 68 00 00 00    	add    0x68(%ecx),%dl
     156:	04 7f                	add    $0x7f,%al
     158:	81 02 01 56 00 00    	addl   $0x5601,(%edx)
     15e:	00 04 8d 01 80 02 01 	add    %al,0x1028001(,%ecx,4)
     165:	53                   	push   %ebx
     166:	00 02                	add    %al,(%edx)
     168:	00 00                	add    %al,(%eax)
     16a:	00 04 1d 24 02 30 9f 	add    %al,-0x60cffddc(,%ebx,1)
     171:	04 24                	add    $0x24,%al
     173:	45                   	inc    %ebp
     174:	01 52 00             	add    %edx,0x0(%edx)
     177:	00 00                	add    %al,(%eax)
     179:	04 45                	add    $0x45,%al
     17b:	92                   	xchg   %eax,%edx
     17c:	01 01                	add    %eax,(%ecx)
     17e:	51                   	push   %ecx
     17f:	00 03                	add    %al,(%ebx)
     181:	00 00                	add    %al,(%eax)
     183:	00 04 8d 01 94 01 02 	add    %al,0x2019401(,%ecx,4)
     18a:	30 9f 04 94 01 c4    	xor    %bl,-0x3bfe6bfc(%edi)
     190:	01 01                	add    %eax,(%ecx)
     192:	51                   	push   %ecx
     193:	00 03                	add    %al,(%ebx)
     195:	00 00                	add    %al,(%eax)
     197:	00 04 bf             	add    %al,(%edi,%edi,4)
     19a:	01 c6                	add    %eax,%esi
     19c:	01 02                	add    %eax,(%edx)
     19e:	30 9f 04 c6 01 84    	xor    %bl,-0x7bfe39fc(%edi)
     1a4:	02 01                	add    (%ecx),%al
     1a6:	51                   	push   %ecx
     1a7:	00 ce                	add    %cl,%dh
     1a9:	02 00                	add    (%eax),%al
     1ab:	00 05 00 04 00 00    	add    %al,0x400
     1b1:	00 00                	add    %al,(%eax)
     1b3:	00 01                	add    %al,(%ecx)
     1b5:	00 00                	add    %al,(%eax)
     1b7:	00 04 ae             	add    %al,(%esi,%ebp,4)
     1ba:	01 ec                	add    %ebp,%esp
     1bc:	02 01                	add    (%ecx),%al
     1be:	56                   	push   %esi
     1bf:	04 ec                	add    $0xec,%al
     1c1:	02 ef                	add    %bh,%ch
     1c3:	02 02                	add    (%edx),%al
     1c5:	91                   	xchg   %eax,%ecx
     1c6:	00 00                	add    %al,(%eax)
     1c8:	02 00                	add    (%eax),%al
     1ca:	00 00                	add    %al,(%eax)
     1cc:	00 00                	add    %al,(%eax)
     1ce:	00 00                	add    %al,(%eax)
     1d0:	04 ae                	add    $0xae,%al
     1d2:	01 d8                	add    %ebx,%eax
     1d4:	01 02                	add    %eax,(%edx)
     1d6:	30 9f 04 d8 01 d2    	xor    %bl,-0x2dfe27fc(%edi)
     1dc:	02 02                	add    (%edx),%al
     1de:	91                   	xchg   %eax,%ecx
     1df:	54                   	push   %esp
     1e0:	04 db                	add    $0xdb,%al
     1e2:	02 e3                	add    %bl,%ah
     1e4:	02 01                	add    (%ecx),%al
     1e6:	50                   	push   %eax
     1e7:	04 e3                	add    $0xe3,%al
     1e9:	02 e7                	add    %bh,%ah
     1eb:	02 02                	add    (%edx),%al
     1ed:	91                   	xchg   %eax,%ecx
     1ee:	54                   	push   %esp
     1ef:	00 02                	add    %al,(%edx)
     1f1:	00 00                	add    %al,(%eax)
     1f3:	00 00                	add    %al,(%eax)
     1f5:	00 00                	add    %al,(%eax)
     1f7:	00 04 ae             	add    %al,(%esi,%ebp,4)
     1fa:	01 d8                	add    %ebx,%eax
     1fc:	01 02                	add    %eax,(%edx)
     1fe:	30 9f 04 d8 01 d2    	xor    %bl,-0x2dfe27fc(%edi)
     204:	02 02                	add    (%edx),%al
     206:	91                   	xchg   %eax,%ecx
     207:	50                   	push   %eax
     208:	04 db                	add    $0xdb,%al
     20a:	02 e3                	add    %bl,%ah
     20c:	02 01                	add    (%ecx),%al
     20e:	53                   	push   %ebx
     20f:	04 e3                	add    $0xe3,%al
     211:	02 e7                	add    %bh,%ah
     213:	02 02                	add    (%edx),%al
     215:	91                   	xchg   %eax,%ecx
     216:	50                   	push   %eax
     217:	00 02                	add    %al,(%edx)
     219:	00 00                	add    %al,(%eax)
     21b:	00 00                	add    %al,(%eax)
     21d:	00 00                	add    %al,(%eax)
     21f:	00 04 ae             	add    %al,(%esi,%ebp,4)
     222:	01 d8                	add    %ebx,%eax
     224:	01 02                	add    %eax,(%edx)
     226:	30 9f 04 d8 01 d2    	xor    %bl,-0x2dfe27fc(%edi)
     22c:	02 02                	add    (%edx),%al
     22e:	91                   	xchg   %eax,%ecx
     22f:	4c                   	dec    %esp
     230:	04 db                	add    $0xdb,%al
     232:	02 e3                	add    %bl,%ah
     234:	02 01                	add    (%ecx),%al
     236:	52                   	push   %edx
     237:	04 e3                	add    $0xe3,%al
     239:	02 e7                	add    %bh,%ah
     23b:	02 02                	add    (%edx),%al
     23d:	91                   	xchg   %eax,%ecx
     23e:	4c                   	dec    %esp
     23f:	00 02                	add    %al,(%edx)
     241:	00 00                	add    %al,(%eax)
     243:	00 00                	add    %al,(%eax)
     245:	00 00                	add    %al,(%eax)
     247:	00 04 ae             	add    %al,(%esi,%ebp,4)
     24a:	01 d8                	add    %ebx,%eax
     24c:	01 02                	add    %eax,(%edx)
     24e:	30 9f 04 d8 01 d2    	xor    %bl,-0x2dfe27fc(%edi)
     254:	02 02                	add    (%edx),%al
     256:	91                   	xchg   %eax,%ecx
     257:	48                   	dec    %eax
     258:	04 db                	add    $0xdb,%al
     25a:	02 e3                	add    %bl,%ah
     25c:	02 01                	add    (%ecx),%al
     25e:	51                   	push   %ecx
     25f:	04 e3                	add    $0xe3,%al
     261:	02 e7                	add    %bh,%ah
     263:	02 02                	add    (%edx),%al
     265:	91                   	xchg   %eax,%ecx
     266:	48                   	dec    %eax
     267:	00 04 00             	add    %al,(%eax,%eax,1)
     26a:	00 00                	add    %al,(%eax)
     26c:	04 ae                	add    $0xae,%al
     26e:	01 d8                	add    %ebx,%eax
     270:	01 02                	add    %eax,(%edx)
     272:	32 9f 04 d8 01 ef    	xor    -0x10fe27fc(%edi),%bl
     278:	02 02                	add    (%edx),%al
     27a:	91                   	xchg   %eax,%ecx
     27b:	5c                   	pop    %esp
     27c:	00 04 00             	add    %al,(%eax,%eax,1)
     27f:	00 00                	add    %al,(%eax)
     281:	04 ae                	add    $0xae,%al
     283:	01 d8                	add    %ebx,%eax
     285:	01 02                	add    %eax,(%edx)
     287:	30 9f 04 d8 01 ed    	xor    %bl,-0x12fe27fc(%edi)
     28d:	02 01                	add    (%ecx),%al
     28f:	57                   	push   %edi
     290:	00 00                	add    %al,(%eax)
     292:	00 04 8b             	add    %al,(%ebx,%ecx,4)
     295:	02 e3                	add    %bl,%ah
     297:	02 06                	add    (%esi),%al
     299:	a0 29 07 00 00       	mov    0x729,%al
     29e:	00 00                	add    %al,(%eax)
     2a0:	00 00                	add    %al,(%eax)
     2a2:	04 8b                	add    $0x8b,%al
     2a4:	02 e3                	add    %bl,%ah
     2a6:	02 06                	add    (%esi),%al
     2a8:	a0 3c 07 00 00       	mov    0x73c,%al
     2ad:	00 00                	add    %al,(%eax)
     2af:	00 00                	add    %al,(%eax)
     2b1:	04 8b                	add    $0x8b,%al
     2b3:	02 e3                	add    %bl,%ah
     2b5:	02 06                	add    (%esi),%al
     2b7:	a0 16 07 00 00       	mov    0x716,%al
     2bc:	00 00                	add    %al,(%eax)
     2be:	00 00                	add    %al,(%eax)
     2c0:	04 8b                	add    $0x8b,%al
     2c2:	02 e3                	add    %bl,%ah
     2c4:	02 06                	add    (%esi),%al
     2c6:	a0 03 07 00 00       	mov    0x703,%al
     2cb:	00 00                	add    %al,(%eax)
     2cd:	00 00                	add    %al,(%eax)
     2cf:	00 00                	add    %al,(%eax)
     2d1:	04 8b                	add    $0x8b,%al
     2d3:	02 a2 02 01 50 04    	add    0x4500102(%edx),%ah
     2d9:	a2 02 e3 02 02       	mov    %al,0x202e302
     2de:	91                   	xchg   %eax,%ecx
     2df:	58                   	pop    %eax
     2e0:	00 00                	add    %al,(%eax)
     2e2:	00 00                	add    %al,(%eax)
     2e4:	02 04 93             	add    (%ebx,%edx,4),%al
     2e7:	02 b6 02 01 52 04    	add    0x4520102(%esi),%dh
     2ed:	b6 02                	mov    $0x2,%dh
     2ef:	b6 02                	mov    $0x2,%dh
     2f1:	09 91 58 06 40 4b    	or     %edx,0x4b400658(%ecx)
     2f7:	24 1f                	and    $0x1f,%al
     2f9:	1a 9f 00 02 00 04    	sbb    0x4000200(%edi),%bl
     2ff:	b6 02                	mov    $0x2,%dh
     301:	c3                   	ret    
     302:	02 01                	add    (%ecx),%al
     304:	50                   	push   %eax
     305:	00 01                	add    %al,(%ecx)
     307:	02 04 93             	add    (%ebx,%edx,4),%al
     30a:	02 b6 02 02 30 9f    	add    -0x60cffdfe(%esi),%dh
     310:	00 01                	add    %al,(%ecx)
     312:	00 00                	add    %al,(%eax)
     314:	02 04 93             	add    (%ebx,%edx,4),%al
     317:	02 b6 02 01 52 04    	add    0x4520102(%esi),%dh
     31d:	b6 02                	mov    $0x2,%dh
     31f:	b6 02                	mov    $0x2,%dh
     321:	09 91 58 06 40 4b    	or     %edx,0x4b400658(%ecx)
     327:	24 1f                	and    $0x1f,%al
     329:	1a 9f 00 00 00 00    	sbb    0x0(%edi),%bl
     32f:	02 04 a2             	add    (%edx,%eiz,4),%al
     332:	02 a4 02 01 50 04 b6 	add    -0x49fbafff(%edx,%eax,1),%ah
     339:	02 b6 02 09 91 58    	add    0x58910902(%esi),%dh
     33f:	06                   	push   %es
     340:	40                   	inc    %eax
     341:	4b                   	dec    %ebx
     342:	24 1f                	and    $0x1f,%al
     344:	1a 9f 00 00 00 04    	sbb    0x4000000(%edi),%bl
     34a:	a2 02 b4 02 01       	mov    %al,0x102b402
     34f:	51                   	push   %ecx
     350:	00 02                	add    %al,(%edx)
     352:	00 00                	add    %al,(%eax)
     354:	00 04 76             	add    %al,(%esi,%esi,2)
     357:	7e 01                	jle    35a <start_-0xffcb2>
     359:	50                   	push   %eax
     35a:	04 86                	add    $0x86,%al
     35c:	01 8e 01 01 50 00    	add    %ecx,0x500101(%esi)
     362:	02 02                	add    (%edx),%al
     364:	04 53                	add    $0x53,%al
     366:	76 02                	jbe    36a <start_-0xffca2>
     368:	30 9f 00 02 02 04    	xor    %bl,0x4020200(%edi)
     36e:	53                   	push   %ebx
     36f:	76 05                	jbe    376 <start_-0xffc96>
     371:	40                   	inc    %eax
     372:	4b                   	dec    %ebx
     373:	24 1f                	and    $0x1f,%al
     375:	9f                   	lahf   
     376:	00 00                	add    %al,(%eax)
     378:	00 00                	add    %al,(%eax)
     37a:	02 04 62             	add    (%edx,%eiz,2),%al
     37d:	64 01 50 04          	add    %edx,%fs:0x4(%eax)
     381:	76 76                	jbe    3f9 <start_-0xffc13>
     383:	01 50 00             	add    %edx,0x0(%eax)
     386:	00 00                	add    %al,(%eax)
     388:	04 62                	add    $0x62,%al
     38a:	76 01                	jbe    38d <start_-0xffc7f>
     38c:	52                   	push   %edx
     38d:	00 01                	add    %al,(%ecx)
     38f:	00 04 08             	add    %al,(%eax,%ecx,1)
     392:	53                   	push   %ebx
     393:	02 91 00 00 02 00    	add    0x20000(%ecx),%dl
     399:	00 00                	add    %al,(%eax)
     39b:	04 08                	add    $0x8,%al
     39d:	32 02                	xor    (%edx),%al
     39f:	30 9f 04 34 43 02    	xor    %bl,0x2433404(%edi)
     3a5:	30 9f 00 02 00 00    	xor    %bl,0x200(%edi)
     3ab:	00 00                	add    %al,(%eax)
     3ad:	00 00                	add    %al,(%eax)
     3af:	00 04 08             	add    %al,(%eax,%ecx,1)
     3b2:	32 02                	xor    (%edx),%al
     3b4:	30 9f 04 32 34 01    	xor    %bl,0x1343204(%edi)
     3ba:	53                   	push   %ebx
     3bb:	04 34                	add    $0x34,%al
     3bd:	43                   	inc    %ebx
     3be:	02 30                	add    (%eax),%dh
     3c0:	9f                   	lahf   
     3c1:	04 43                	add    $0x43,%al
     3c3:	4f                   	dec    %edi
     3c4:	01 53 00             	add    %edx,0x0(%ebx)
     3c7:	02 00                	add    (%eax),%al
     3c9:	00 00                	add    %al,(%eax)
     3cb:	00 00                	add    %al,(%eax)
     3cd:	00 00                	add    %al,(%eax)
     3cf:	04 08                	add    $0x8,%al
     3d1:	32 02                	xor    (%edx),%al
     3d3:	30 9f 04 32 34 01    	xor    %bl,0x1343204(%edi)
     3d9:	52                   	push   %edx
     3da:	04 34                	add    $0x34,%al
     3dc:	43                   	inc    %ebx
     3dd:	02 30                	add    (%eax),%dh
     3df:	9f                   	lahf   
     3e0:	04 43                	add    $0x43,%al
     3e2:	4f                   	dec    %edi
     3e3:	01 52 00             	add    %edx,0x0(%edx)
     3e6:	02 00                	add    (%eax),%al
     3e8:	00 00                	add    %al,(%eax)
     3ea:	00 00                	add    %al,(%eax)
     3ec:	00 00                	add    %al,(%eax)
     3ee:	04 08                	add    $0x8,%al
     3f0:	32 02                	xor    (%edx),%al
     3f2:	30 9f 04 32 34 01    	xor    %bl,0x1343204(%edi)
     3f8:	51                   	push   %ecx
     3f9:	04 34                	add    $0x34,%al
     3fb:	43                   	inc    %ebx
     3fc:	02 30                	add    (%eax),%dh
     3fe:	9f                   	lahf   
     3ff:	04 43                	add    $0x43,%al
     401:	4f                   	dec    %edi
     402:	01 51 00             	add    %edx,0x0(%ecx)
     405:	03 00                	add    (%eax),%eax
     407:	04 08                	add    $0x8,%al
     409:	43                   	inc    %ebx
     40a:	06                   	push   %es
     40b:	a0 36 09 00 00       	mov    0x936,%al
     410:	00 00                	add    %al,(%eax)
     412:	03 00                	add    (%eax),%eax
     414:	04 08                	add    $0x8,%al
     416:	43                   	inc    %ebx
     417:	06                   	push   %es
     418:	a0 49 09 00 00       	mov    0x949,%al
     41d:	00 00                	add    %al,(%eax)
     41f:	03 00                	add    (%eax),%eax
     421:	04 08                	add    $0x8,%al
     423:	43                   	inc    %ebx
     424:	06                   	push   %es
     425:	a0 23 09 00 00       	mov    0x923,%al
     42a:	00 00                	add    %al,(%eax)
     42c:	03 00                	add    (%eax),%eax
     42e:	04 08                	add    $0x8,%al
     430:	43                   	inc    %ebx
     431:	06                   	push   %es
     432:	a0 10 09 00 00       	mov    0x910,%al
     437:	00 00                	add    %al,(%eax)
     439:	03 00                	add    (%eax),%eax
     43b:	04 08                	add    $0x8,%al
     43d:	43                   	inc    %ebx
     43e:	02 30                	add    (%eax),%dh
     440:	9f                   	lahf   
     441:	00 05 00 04 08 43    	add    %al,0x43080400
     447:	02 30                	add    (%eax),%dh
     449:	9f                   	lahf   
     44a:	00 02                	add    %al,(%edx)
     44c:	00 00                	add    %al,(%eax)
     44e:	00 04 27             	add    %al,(%edi,%eiz,1)
     451:	30 01                	xor    %al,(%ecx)
     453:	50                   	push   %eax
     454:	04 34                	add    $0x34,%al
     456:	43                   	inc    %ebx
     457:	01 50 00             	add    %edx,0x0(%eax)
     45a:	06                   	push   %es
     45b:	02 04 08             	add    (%eax,%ecx,1),%al
     45e:	27                   	daa    
     45f:	02 30                	add    (%eax),%dh
     461:	9f                   	lahf   
     462:	00 00                	add    %al,(%eax)
     464:	00 00                	add    %al,(%eax)
     466:	02 04 17             	add    (%edi,%edx,1),%al
     469:	19 01                	sbb    %eax,(%ecx)
     46b:	50                   	push   %eax
     46c:	04 27                	add    $0x27,%al
     46e:	27                   	daa    
     46f:	01 50 00             	add    %edx,0x0(%eax)
     472:	00 00                	add    %al,(%eax)
     474:	04 17                	add    $0x17,%al
     476:	27                   	daa    
     477:	01 52 00             	add    %edx,0x0(%edx)
     47a:	4c                   	dec    %esp
     47b:	00 00                	add    %al,(%eax)
     47d:	00 05 00 04 00 00    	add    %al,0x400
     483:	00 00                	add    %al,(%eax)
     485:	00 00                	add    %al,(%eax)
     487:	00 00                	add    %al,(%eax)
     489:	00 04 00             	add    %al,(%eax,%eax,1)
     48c:	63 02                	arpl   %ax,(%edx)
     48e:	91                   	xchg   %eax,%ecx
     48f:	04 04                	add    $0x4,%al
     491:	63 64 02 74          	arpl   %sp,0x74(%edx,%eax,1)
     495:	08 00                	or     %al,(%eax)
     497:	00 00                	add    %al,(%eax)
     499:	00 00                	add    %al,(%eax)
     49b:	04 00                	add    $0x0,%al
     49d:	63 02                	arpl   %ax,(%edx)
     49f:	91                   	xchg   %eax,%ecx
     4a0:	08 04 63             	or     %al,(%ebx,%eiz,2)
     4a3:	64 02 74 0c 00       	add    %fs:0x0(%esp,%ecx,1),%dh
     4a8:	00 00                	add    %al,(%eax)
     4aa:	00 00                	add    %al,(%eax)
     4ac:	04 00                	add    $0x0,%al
     4ae:	63 02                	arpl   %ax,(%edx)
     4b0:	91                   	xchg   %eax,%ecx
     4b1:	0c 04                	or     $0x4,%al
     4b3:	63 64 02 74          	arpl   %sp,0x74(%edx,%eax,1)
     4b7:	10 00                	adc    %al,(%eax)
     4b9:	01 00                	add    %eax,(%eax)
     4bb:	00 00                	add    %al,(%eax)
     4bd:	04 0a                	add    $0xa,%al
     4bf:	63 02                	arpl   %ax,(%edx)
     4c1:	91                   	xchg   %eax,%ecx
     4c2:	08 04 63             	or     %al,(%ebx,%eiz,2)
     4c5:	64 02 74 0c 00       	add    %fs:0x0(%esp,%ecx,1),%dh
     4ca:	c9                   	leave  
     4cb:	00 00                	add    %al,(%eax)
     4cd:	00 05 00 04 00 00    	add    %al,0x400
     4d3:	00 00                	add    %al,(%eax)
     4d5:	00 00                	add    %al,(%eax)
     4d7:	00 04 97             	add    %al,(%edi,%edx,4)
     4da:	05 a9 05 01 50       	add    $0x500105a9,%eax
     4df:	00 00                	add    %al,(%eax)
     4e1:	00 04 9a             	add    %al,(%edx,%ebx,4)
     4e4:	04 df                	add    $0xdf,%al
     4e6:	04 01                	add    $0x1,%al
     4e8:	56                   	push   %esi
     4e9:	00 02                	add    %al,(%edx)
     4eb:	00 00                	add    %al,(%eax)
     4ed:	00 04 a8             	add    %al,(%eax,%ebp,4)
     4f0:	04 b2                	add    $0xb2,%al
     4f2:	04 02                	add    $0x2,%al
     4f4:	30 9f 04 b2 04 de    	xor    %bl,-0x21fb4dfc(%edi)
     4fa:	04 01                	add    $0x1,%al
     4fc:	53                   	push   %ebx
	...
     505:	00 04 17             	add    %al,(%edi,%edx,1)
     508:	1a 01                	sbb    (%ecx),%al
     50a:	50                   	push   %eax
     50b:	04 1a                	add    $0x1a,%al
     50d:	26 02 73 30          	add    %es:0x30(%ebx),%dh
     511:	04 26                	add    $0x26,%al
     513:	ff 03                	incl   (%ebx)
     515:	03 91 b8 7f 04 ff    	add    -0xfb8048(%ecx),%edx
     51b:	03 80 04 03 74 bc    	add    -0x438bfcfc(%eax),%eax
     521:	7f 00                	jg     523 <start_-0xffae9>
     523:	00 00                	add    %al,(%eax)
     525:	00 00                	add    %al,(%eax)
     527:	00 00                	add    %al,(%eax)
     529:	04 64                	add    $0x64,%al
     52b:	76 01                	jbe    52e <start_-0xffade>
     52d:	52                   	push   %edx
     52e:	04 76                	add    $0x76,%al
     530:	ff 03                	incl   (%ebx)
     532:	03 91 bc 7f 04 ff    	add    -0xfb8044(%ecx),%edx
     538:	03 80 04 02 74 40    	add    0x40740204(%eax),%eax
     53e:	00 00                	add    %al,(%eax)
     540:	00 04 a6             	add    %al,(%esi,%eiz,4)
     543:	02 dd                	add    %ch,%bl
     545:	02 01                	add    (%ecx),%al
     547:	53                   	push   %ebx
     548:	00 02                	add    %al,(%edx)
     54a:	00 00                	add    %al,(%eax)
     54c:	00 04 77             	add    %al,(%edi,%esi,2)
     54f:	81 01 02 30 9f 04    	addl   $0x49f3002,(%ecx)
     555:	81 01 fd 03 01 56    	addl   $0x560103fd,(%ecx)
     55b:	00 00                	add    %al,(%eax)
     55d:	00 04 e0             	add    %al,(%eax,%eiz,8)
     560:	01 81 02 01 57 00    	add    %eax,0x570102(%ecx)
     566:	02 00                	add    (%eax),%al
     568:	00 00                	add    %al,(%eax)
     56a:	00 00                	add    %al,(%eax)
     56c:	04 d5                	add    $0xd5,%al
     56e:	02 dd                	add    %ch,%bl
     570:	02 02                	add    (%edx),%al
     572:	30 9f 04 dd 02 88    	xor    %bl,-0x77fd22fc(%edi)
     578:	03 01                	add    (%ecx),%eax
     57a:	53                   	push   %ebx
     57b:	04 8a                	add    $0x8a,%al
     57d:	03 ad 03 01 53 00    	add    0x530103(%ebp),%ebp
     583:	02 00                	add    (%eax),%al
     585:	00 00                	add    %al,(%eax)
     587:	04 80                	add    $0x80,%al
     589:	03 8a 03 02 30 9f    	add    -0x60cffdfd(%edx),%ecx
     58f:	04 ad                	add    $0xad,%al
     591:	03 fc                	add    %esp,%edi
     593:	03 01                	add    (%ecx),%eax
     595:	53                   	push   %ebx
     596:	00 d1                	add    %dl,%cl
     598:	02 00                	add    (%eax),%al
     59a:	00 05 00 04 00 00    	add    %al,0x400
     5a0:	00 00                	add    %al,(%eax)
     5a2:	00 01                	add    %al,(%ecx)
	...
     5b0:	00 04 88             	add    %al,(%eax,%ecx,4)
     5b3:	05 8e 05 06 91       	add    $0x9106058e,%eax
     5b8:	00 06                	add    %al,(%esi)
     5ba:	3c 25                	cmp    $0x25,%al
     5bc:	9f                   	lahf   
     5bd:	04 8e                	add    $0x8e,%al
     5bf:	05 9d 05 01 50       	add    $0x5001059d,%eax
     5c4:	04 9d                	add    $0x9d,%al
     5c6:	05 9f 05 06 91       	add    $0x9106059f,%eax
     5cb:	00 06                	add    %al,(%esi)
     5cd:	3c 25                	cmp    $0x25,%al
     5cf:	9f                   	lahf   
     5d0:	04 9f                	add    $0x9f,%al
     5d2:	05 a7 05 01 50       	add    $0x500105a7,%eax
     5d7:	04 a7                	add    $0xa7,%al
     5d9:	05 b2 05 06 91       	add    $0x910605b2,%eax
     5de:	00 06                	add    %al,(%esi)
     5e0:	3c 25                	cmp    $0x25,%al
     5e2:	9f                   	lahf   
     5e3:	04 b2                	add    $0xb2,%al
     5e5:	05 b7 05 01 50       	add    $0x500105b7,%eax
     5ea:	04 b7                	add    $0xb7,%al
     5ec:	05 b9 05 06 91       	add    $0x910605b9,%eax
     5f1:	00 06                	add    %al,(%esi)
     5f3:	3c 25                	cmp    $0x25,%al
     5f5:	9f                   	lahf   
     5f6:	00 01                	add    %al,(%ecx)
     5f8:	00 00                	add    %al,(%eax)
     5fa:	00 00                	add    %al,(%eax)
     5fc:	00 00                	add    %al,(%eax)
     5fe:	00 04 df             	add    %al,(%edi,%ebx,8)
     601:	03 f4                	add    %esp,%esi
     603:	03 02                	add    (%edx),%eax
     605:	30 9f 04 f4 03 aa    	xor    %bl,-0x55fc0bfc(%edi)
     60b:	04 01                	add    $0x1,%al
     60d:	56                   	push   %esi
     60e:	04 ad                	add    $0xad,%al
     610:	04 ff                	add    $0xff,%al
     612:	04 01                	add    $0x1,%al
     614:	56                   	push   %esi
     615:	04 ff                	add    $0xff,%al
     617:	04 82                	add    $0x82,%al
     619:	05 01 50 00 00       	add    $0x5001,%eax
     61e:	00 00                	add    %al,(%eax)
     620:	01 01                	add    %eax,(%ecx)
     622:	00 00                	add    %al,(%eax)
     624:	00 00                	add    %al,(%eax)
     626:	00 04 e7             	add    %al,(%edi,%eiz,8)
     629:	03 f4                	add    %esp,%esi
     62b:	03 01                	add    (%ecx),%eax
     62d:	50                   	push   %eax
     62e:	04 f4                	add    $0xf4,%al
     630:	03 ed                	add    %ebp,%ebp
     632:	04 02                	add    $0x2,%al
     634:	91                   	xchg   %eax,%ecx
     635:	5c                   	pop    %esp
     636:	04 ed                	add    $0xed,%al
     638:	04 f8                	add    $0xf8,%al
     63a:	04 02                	add    $0x2,%al
     63c:	31 9f 04 f8 04 81    	xor    %ebx,-0x7efb07fc(%edi)
     642:	05 02 91 5c 04       	add    $0x45c9102,%eax
     647:	81 05 82 05 02 74 60 	addl   $0x1000060,0x74020582
     64e:	00 00 01 
     651:	01 00                	add    %eax,(%eax)
     653:	00 00                	add    %al,(%eax)
     655:	00 00                	add    %al,(%eax)
     657:	04 ed                	add    $0xed,%al
     659:	03 e3                	add    %ebx,%esp
     65b:	04 01                	add    $0x1,%al
     65d:	53                   	push   %ebx
     65e:	04 e3                	add    $0xe3,%al
     660:	04 f6                	add    $0xf6,%al
     662:	04 02                	add    $0x2,%al
     664:	91                   	xchg   %eax,%ecx
     665:	5c                   	pop    %esp
     666:	04 f6                	add    $0xf6,%al
     668:	04 f8                	add    $0xf8,%al
     66a:	04 01                	add    $0x1,%al
     66c:	50                   	push   %eax
     66d:	04 f8                	add    $0xf8,%al
     66f:	04 fe                	add    $0xfe,%al
     671:	04 01                	add    $0x1,%al
     673:	53                   	push   %ebx
     674:	00 01                	add    %al,(%ecx)
	...
     67e:	00 04 ed 03 f4 03 02 	add    %al,0x203f403(,%ebp,8)
     685:	30 9f 04 f4 03 a3    	xor    %bl,-0x5cfc0bfc(%edi)
     68b:	04 01                	add    $0x1,%al
     68d:	50                   	push   %eax
     68e:	04 a3                	add    $0xa3,%al
     690:	04 b0                	add    $0xb0,%al
     692:	04 01                	add    $0x1,%al
     694:	57                   	push   %edi
     695:	04 ca                	add    $0xca,%al
     697:	04 de                	add    $0xde,%al
     699:	04 01                	add    $0x1,%al
     69b:	50                   	push   %eax
     69c:	04 de                	add    $0xde,%al
     69e:	04 f8                	add    $0xf8,%al
     6a0:	04 0a                	add    $0xa,%al
     6a2:	71 78                	jno    71c <start_-0xff8f0>
     6a4:	33 25 03 60 81 10    	xor    0x10816003,%esp
     6aa:	c0 22 00             	shlb   $0x0,(%edx)
     6ad:	00 00                	add    %al,(%eax)
     6af:	04 f7                	add    $0xf7,%al
     6b1:	03 a3 04 01 51 00    	add    0x510104(%ebx),%esp
     6b7:	02 00                	add    (%eax),%al
     6b9:	00 00                	add    %al,(%eax)
     6bb:	04 bc                	add    $0xbc,%al
     6bd:	03 c3                	add    %ebx,%eax
     6bf:	03 02                	add    (%edx),%eax
     6c1:	30 9f 04 c3 03 d6    	xor    %bl,-0x29fc3cfc(%edi)
     6c7:	03 01                	add    (%ecx),%eax
     6c9:	50                   	push   %eax
     6ca:	00 00                	add    %al,(%eax)
     6cc:	00 04 82             	add    %al,(%edx,%eax,4)
     6cf:	02 a4 03 01 50 00 00 	add    0x5001(%ebx,%eax,1),%ah
     6d6:	00 00                	add    %al,(%eax)
     6d8:	00 00                	add    %al,(%eax)
     6da:	00 00                	add    %al,(%eax)
     6dc:	00 04 85 02 af 02 01 	add    %al,0x102af02(,%eax,4)
     6e3:	57                   	push   %edi
     6e4:	04 af                	add    $0xaf,%al
     6e6:	02 ca                	add    %dl,%cl
     6e8:	02 06                	add    (%esi),%al
     6ea:	91                   	xchg   %eax,%ecx
     6eb:	00 06                	add    %al,(%esi)
     6ed:	37                   	aaa    
     6ee:	1a 9f 04 ca 02 cf    	sbb    -0x30fd35fc(%edi),%bl
     6f4:	02 01                	add    (%ecx),%al
     6f6:	57                   	push   %edi
     6f7:	04 cf                	add    $0xcf,%al
     6f9:	02 a4 03 06 91 00 06 	add    0x6009106(%ebx,%eax,1),%ah
     700:	37                   	aaa    
     701:	1a 9f 00 00 00 00    	sbb    0x0(%edi),%bl
     707:	00 00                	add    %al,(%eax)
     709:	00 00                	add    %al,(%eax)
     70b:	00 00                	add    %al,(%eax)
     70d:	00 04 8f             	add    %al,(%edi,%ecx,4)
     710:	02 ef                	add    %bh,%ch
     712:	02 01                	add    (%ecx),%al
     714:	53                   	push   %ebx
     715:	04 ef                	add    $0xef,%al
     717:	02 fa                	add    %dl,%bh
     719:	02 05 72 00 33 25    	add    0x25330072,%al
     71f:	9f                   	lahf   
     720:	04 fa                	add    $0xfa,%al
     722:	02 9d 03 0c 91 00    	add    0x910c03(%ebp),%bl
     728:	06                   	push   %es
     729:	37                   	aaa    
     72a:	1a 91 04 06 22 33    	sbb    0x33220604(%ecx),%dl
     730:	25 9f 04 9d 03       	and    $0x39d049f,%eax
     735:	a2 03 05 72 00       	mov    %al,0x720503
     73a:	33 25 9f 04 a2 03    	xor    0x3a2049f,%esp
     740:	a4                   	movsb  %ds:(%esi),%es:(%edi)
     741:	03 0c 91             	add    (%ecx,%edx,4),%ecx
     744:	00 06                	add    %al,(%esi)
     746:	37                   	aaa    
     747:	1a 91 04 06 22 33    	sbb    0x33220604(%ecx),%dl
     74d:	25 9f 00 00 00       	and    $0x9f,%eax
     752:	00 00                	add    %al,(%eax)
     754:	00 00                	add    %al,(%eax)
     756:	00 00                	add    %al,(%eax)
     758:	04 97                	add    $0x97,%al
     75a:	02 a8 02 01 56 04    	add    0x4560102(%eax),%ch
     760:	a8 02                	test   $0x2,%al
     762:	ca 02 02             	lret   $0x202
     765:	91                   	xchg   %eax,%ecx
     766:	68 04 ca 02 cf       	push   $0xcf02ca04
     76b:	02 01                	add    (%ecx),%al
     76d:	56                   	push   %esi
     76e:	04 cf                	add    $0xcf,%al
     770:	02 a4 03 02 91 68 00 	add    0x689102(%ebx,%eax,1),%ah
     777:	00 00                	add    %al,(%eax)
     779:	04 a3                	add    $0xa3,%al
     77b:	02 b4 02 01 51 00 02 	add    0x2005101(%edx,%eax,1),%dh
     782:	00 00                	add    %al,(%eax)
     784:	00 00                	add    %al,(%eax)
     786:	00 04 c3             	add    %al,(%ebx,%eax,8)
     789:	02 ca                	add    %dl,%cl
     78b:	02 02                	add    (%edx),%al
     78d:	30 9f 04 cf 02 fe    	xor    %bl,-0x1fd30fc(%edi)
     793:	02 01                	add    (%ecx),%al
     795:	51                   	push   %ecx
     796:	04 9d                	add    $0x9d,%al
     798:	03 a4 03 01 51 00 00 	add    0x5101(%ebx,%eax,1),%esp
     79f:	00 04 4d f1 01 01 50 	add    %al,0x500101f1(,%ecx,2)
	...
     7ae:	00 04 50             	add    %al,(%eax,%edx,2)
     7b1:	7a 01                	jp     7b4 <start_-0xff858>
     7b3:	57                   	push   %edi
     7b4:	04 7a                	add    $0x7a,%al
     7b6:	95                   	xchg   %eax,%ebp
     7b7:	01 06                	add    %eax,(%esi)
     7b9:	91                   	xchg   %eax,%ecx
     7ba:	00 06                	add    %al,(%esi)
     7bc:	37                   	aaa    
     7bd:	1a 9f 04 95 01 9a    	sbb    -0x65fe6afc(%edi),%bl
     7c3:	01 01                	add    %eax,(%ecx)
     7c5:	57                   	push   %edi
     7c6:	04 9a                	add    $0x9a,%al
     7c8:	01 f1                	add    %esi,%ecx
     7ca:	01 06                	add    %eax,(%esi)
     7cc:	91                   	xchg   %eax,%ecx
     7cd:	00 06                	add    %al,(%esi)
     7cf:	37                   	aaa    
     7d0:	1a 9f 00 00 00 00    	sbb    0x0(%edi),%bl
     7d6:	00 00                	add    %al,(%eax)
     7d8:	00 04 5a             	add    %al,(%edx,%ebx,2)
     7db:	e7 01                	out    %eax,$0x1
     7dd:	01 56 04             	add    %edx,0x4(%esi)
     7e0:	e7 01                	out    %eax,$0x1
     7e2:	ea 01 0c 91 00 06 37 	ljmp   $0x3706,$0x910c01
     7e9:	1a 91 04 06 22 33    	sbb    0x33220604(%ecx),%dl
     7ef:	25 9f 04 ea 01       	and    $0x1ea049f,%eax
     7f4:	f1                   	icebp  
     7f5:	01 01                	add    %eax,(%ecx)
     7f7:	56                   	push   %esi
	...
     800:	00 04 62             	add    %al,(%edx,%eiz,2)
     803:	73 01                	jae    806 <start_-0xff806>
     805:	53                   	push   %ebx
     806:	04 73                	add    $0x73,%al
     808:	95                   	xchg   %eax,%ebp
     809:	01 02                	add    %eax,(%edx)
     80b:	91                   	xchg   %eax,%ecx
     80c:	68 04 95 01 9a       	push   $0x9a019504
     811:	01 01                	add    %eax,(%ecx)
     813:	53                   	push   %ebx
     814:	04 9a                	add    $0x9a,%al
     816:	01 f1                	add    %esi,%ecx
     818:	01 02                	add    %eax,(%edx)
     81a:	91                   	xchg   %eax,%ecx
     81b:	68 00 00 00 04       	push   $0x4000000
     820:	6e                   	outsb  %ds:(%esi),(%dx)
     821:	7f 01                	jg     824 <start_-0xff7e8>
     823:	51                   	push   %ecx
     824:	00 02                	add    %al,(%edx)
     826:	00 00                	add    %al,(%eax)
     828:	00 00                	add    %al,(%eax)
     82a:	00 04 8e             	add    %al,(%esi,%ecx,4)
     82d:	01 95 01 02 30 9f    	add    %edx,-0x60cffdff(%ebp)
     833:	04 9a                	add    $0x9a,%al
     835:	01 c9                	add    %ecx,%ecx
     837:	01 01                	add    %eax,(%ecx)
     839:	51                   	push   %ecx
     83a:	04 ea                	add    $0xea,%al
     83c:	01 f1                	add    %esi,%ecx
     83e:	01 01                	add    %eax,(%ecx)
     840:	51                   	push   %ecx
     841:	00 00                	add    %al,(%eax)
     843:	00 04 2a             	add    %al,(%edx,%ebp,1)
     846:	3c 01                	cmp    $0x1,%al
     848:	52                   	push   %edx
     849:	00 00                	add    %al,(%eax)
     84b:	00 04 34             	add    %al,(%esp,%esi,1)
     84e:	3c 01                	cmp    $0x1,%al
     850:	50                   	push   %eax
     851:	00 00                	add    %al,(%eax)
     853:	00 04 0b             	add    %al,(%ebx,%ecx,1)
     856:	1f                   	pop    %ds
     857:	01 52 00             	add    %edx,0x0(%edx)
     85a:	00 00                	add    %al,(%eax)
     85c:	00 00                	add    %al,(%eax)
     85e:	04 15                	add    $0x15,%al
     860:	17                   	pop    %ss
     861:	01 50 04             	add    %edx,0x4(%eax)
     864:	17                   	pop    %ss
     865:	1f                   	pop    %ds
     866:	04 70                	add    $0x70,%al
     868:	00 20                	add    %ah,(%eax)
     86a:	9f                   	lahf   
     86b:	00 ad 03 00 00 05    	add    %ch,0x5000003(%ebp)
     871:	00 04 00             	add    %al,(%eax,%eax,1)
	...
     880:	04 b4                	add    $0xb4,%al
     882:	04 d2                	add    $0xd2,%al
     884:	04 01                	add    $0x1,%al
     886:	50                   	push   %eax
     887:	04 d2                	add    $0xd2,%al
     889:	04 e7                	add    $0xe7,%al
     88b:	04 06                	add    $0x6,%al
     88d:	91                   	xchg   %eax,%ecx
     88e:	00 06                	add    %al,(%esi)
     890:	46                   	inc    %esi
     891:	25 9f 04 e7 04       	and    $0x4e7049f,%eax
     896:	ec                   	in     (%dx),%al
     897:	04 01                	add    $0x1,%al
     899:	50                   	push   %eax
     89a:	04 ec                	add    $0xec,%al
     89c:	04 f5                	add    $0xf5,%al
     89e:	04 06                	add    $0x6,%al
     8a0:	91                   	xchg   %eax,%ecx
     8a1:	00 06                	add    %al,(%esi)
     8a3:	46                   	inc    %esi
     8a4:	25 9f 00 00 00       	and    $0x9f,%eax
     8a9:	04 bf                	add    $0xbf,%al
     8ab:	04 f5                	add    $0xf5,%al
     8ad:	04 01                	add    $0x1,%al
     8af:	51                   	push   %ecx
     8b0:	00 00                	add    %al,(%eax)
     8b2:	00 04 c5 04 f5 04 01 	add    %al,0x104f504(,%eax,8)
     8b9:	52                   	push   %edx
     8ba:	00 02                	add    %al,(%edx)
     8bc:	00 00                	add    %al,(%eax)
     8be:	00 00                	add    %al,(%eax)
     8c0:	00 00                	add    %al,(%eax)
     8c2:	00 04 c5 04 d2 04 08 	add    %al,0x804d204(,%eax,8)
     8c9:	70 00                	jo     8cb <start_-0xff741>
     8cb:	32 24 0a             	xor    (%edx,%ecx,1),%ah
     8ce:	00 10                	add    %dl,(%eax)
     8d0:	1c 04                	sbb    $0x4,%al
     8d2:	d2 04 e7             	rolb   %cl,(%edi,%eiz,8)
     8d5:	04 0b                	add    $0xb,%al
     8d7:	91                   	xchg   %eax,%ecx
     8d8:	00 06                	add    %al,(%esi)
     8da:	46                   	inc    %esi
     8db:	25 32 24 0a 00       	and    $0xa2432,%eax
     8e0:	10 1c 04             	adc    %bl,(%esp,%eax,1)
     8e3:	e7 04                	out    %eax,$0x4
     8e5:	ec                   	in     (%dx),%al
     8e6:	04 08                	add    $0x8,%al
     8e8:	70 00                	jo     8ea <start_-0xff722>
     8ea:	32 24 0a             	xor    (%edx,%ecx,1),%ah
     8ed:	00 10                	add    %dl,(%eax)
     8ef:	1c 04                	sbb    $0x4,%al
     8f1:	ec                   	in     (%dx),%al
     8f2:	04 f5                	add    $0xf5,%al
     8f4:	04 0b                	add    $0xb,%al
     8f6:	91                   	xchg   %eax,%ecx
     8f7:	00 06                	add    %al,(%esi)
     8f9:	46                   	inc    %esi
     8fa:	25 32 24 0a 00       	and    $0xa2432,%eax
     8ff:	10 1c 00             	adc    %bl,(%eax,%eax,1)
	...
     90a:	04 da                	add    $0xda,%al
     90c:	04 e3                	add    $0xe3,%al
     90e:	04 01                	add    $0x1,%al
     910:	50                   	push   %eax
     911:	04 e3                	add    $0xe3,%al
     913:	04 e5                	add    $0xe5,%al
     915:	04 11                	add    $0x11,%al
     917:	91                   	xchg   %eax,%ecx
     918:	00 06                	add    %al,(%esi)
     91a:	46                   	inc    %esi
     91b:	25 3c 24 40 42       	and    $0x4240243c,%eax
     920:	24 1f                	and    $0x1f,%al
     922:	21 71 00             	and    %esi,0x0(%ecx)
     925:	32 24 22             	xor    (%edx,%eiz,1),%ah
     928:	04 ee                	add    $0xee,%al
     92a:	04 f3                	add    $0xf3,%al
     92c:	04 01                	add    $0x1,%al
     92e:	50                   	push   %eax
     92f:	04 f3                	add    $0xf3,%al
     931:	04 f5                	add    $0xf5,%al
     933:	04 11                	add    $0x11,%al
     935:	91                   	xchg   %eax,%ecx
     936:	00 06                	add    %al,(%esi)
     938:	46                   	inc    %esi
     939:	25 3c 24 40 42       	and    $0x4240243c,%eax
     93e:	24 1f                	and    $0x1f,%al
     940:	21 71 00             	and    %esi,0x0(%ecx)
     943:	32 24 22             	xor    (%edx,%eiz,1),%ah
     946:	00 01                	add    %al,(%ecx)
     948:	00 00                	add    %al,(%eax)
     94a:	00 04 de             	add    %al,(%esi,%ebx,8)
     94d:	04 e3                	add    $0xe3,%al
     94f:	04 05                	add    $0x5,%al
     951:	70 00                	jo     953 <start_-0xff6b9>
     953:	3c 25                	cmp    $0x25,%al
     955:	9f                   	lahf   
     956:	04 e3                	add    $0xe3,%al
     958:	04 e5                	add    $0xe5,%al
     95a:	04 15                	add    $0x15,%al
     95c:	91                   	xchg   %eax,%ecx
     95d:	00 06                	add    %al,(%esi)
     95f:	46                   	inc    %esi
     960:	25 3c 24 40 42       	and    $0x4240243c,%eax
     965:	24 1f                	and    $0x1f,%al
     967:	21 71 00             	and    %esi,0x0(%ecx)
     96a:	32 24 22             	xor    (%edx,%eiz,1),%ah
     96d:	06                   	push   %es
     96e:	3c 25                	cmp    $0x25,%al
     970:	9f                   	lahf   
     971:	00 00                	add    %al,(%eax)
     973:	00 00                	add    %al,(%eax)
     975:	00 04 d4             	add    %al,(%esp,%edx,8)
     978:	03 94 04 02 91 00 04 	add    0x4009102(%esp,%eax,1),%edx
     97f:	94                   	xchg   %eax,%esp
     980:	04 a9                	add    $0xa9,%al
     982:	04 01                	add    $0x1,%al
     984:	53                   	push   %ebx
     985:	00 00                	add    %al,(%eax)
     987:	00 00                	add    %al,(%eax)
     989:	00 00                	add    %al,(%eax)
     98b:	00 04 e3             	add    %al,(%ebx,%eiz,8)
     98e:	03 f8                	add    %eax,%edi
     990:	03 01                	add    (%ecx),%eax
     992:	52                   	push   %edx
     993:	04 f8                	add    $0xf8,%al
     995:	03 94 04 06 91 00 06 	add    0x6009106(%esp,%eax,1),%edx
     99c:	46                   	inc    %esi
     99d:	25 9f 04 94 04       	and    $0x494049f,%eax
     9a2:	a9 04 05 73 00       	test   $0x730504,%eax
     9a7:	46                   	inc    %esi
     9a8:	25 9f 00 00 00       	and    $0x9f,%eax
     9ad:	00 00                	add    %al,(%eax)
     9af:	00 00                	add    %al,(%eax)
     9b1:	04 eb                	add    $0xeb,%al
     9b3:	03 83 04 01 50 04    	add    0x4500104(%ebx),%eax
     9b9:	83 04 94 04          	addl   $0x4,(%esp,%edx,4)
     9bd:	0a 91 00 06 3c 25    	or     0x253c0600(%ecx),%dl
     9c3:	0a ff                	or     %bh,%bh
     9c5:	03 1a                	add    (%edx),%ebx
     9c7:	9f                   	lahf   
     9c8:	04 94                	add    $0x94,%al
     9ca:	04 a9                	add    $0xa9,%al
     9cc:	04 09                	add    $0x9,%al
     9ce:	73 00                	jae    9d0 <start_-0xff63c>
     9d0:	3c 25                	cmp    $0x25,%al
     9d2:	0a ff                	or     %bh,%bh
     9d4:	03 1a                	add    (%edx),%ebx
     9d6:	9f                   	lahf   
     9d7:	00 02                	add    %al,(%edx)
     9d9:	00 00                	add    %al,(%eax)
     9db:	00 00                	add    %al,(%eax)
     9dd:	00 04 eb             	add    %al,(%ebx,%ebp,8)
     9e0:	03 f8                	add    %eax,%edi
     9e2:	03 08                	add    (%eax),%ecx
     9e4:	72 00                	jb     9e6 <start_-0xff626>
     9e6:	32 24 0a             	xor    (%edx,%ecx,1),%ah
     9e9:	00 10                	add    %dl,(%eax)
     9eb:	1c 04                	sbb    $0x4,%al
     9ed:	f8                   	clc    
     9ee:	03 87 04 0b 91 00    	add    0x910b04(%edi),%eax
     9f4:	06                   	push   %es
     9f5:	46                   	inc    %esi
     9f6:	25 32 24 0a 00       	and    $0xa2432,%eax
     9fb:	10 1c 04             	adc    %bl,(%esp,%eax,1)
     9fe:	94                   	xchg   %eax,%esp
     9ff:	04 98                	add    $0x98,%al
     a01:	04 0a                	add    $0xa,%al
     a03:	73 00                	jae    a05 <start_-0xff607>
     a05:	46                   	inc    %esi
     a06:	25 32 24 0a 00       	and    $0xa2432,%eax
     a0b:	10 1c 00             	adc    %bl,(%eax,%eax,1)
	...
     a16:	04 fe                	add    $0xfe,%al
     a18:	03 87 04 01 52 04    	add    0x4520104(%edi),%eax
     a1e:	87 04 8d 04 0d 91 00 	xchg   %eax,0x910d04(,%ecx,4)
     a25:	06                   	push   %es
     a26:	46                   	inc    %esi
     a27:	25 3c 24 40 42       	and    $0x4240243c,%eax
     a2c:	24 1f                	and    $0x1f,%al
     a2e:	21 9f 04 94 04 9c    	and    %ebx,-0x63fb6bfc(%edi)
     a34:	04 01                	add    $0x1,%al
     a36:	52                   	push   %edx
     a37:	04 9c                	add    $0x9c,%al
     a39:	04 a9                	add    $0xa9,%al
     a3b:	04 0c                	add    $0xc,%al
     a3d:	73 00                	jae    a3f <start_-0xff5cd>
     a3f:	46                   	inc    %esi
     a40:	25 3c 24 40 42       	and    $0x4240243c,%eax
     a45:	24 1f                	and    $0x1f,%al
     a47:	21 9f 00 00 00 00    	and    %ebx,0x0(%edi)
     a4d:	00 04 83             	add    %al,(%ebx,%eax,4)
     a50:	04 87                	add    $0x87,%al
     a52:	04 01                	add    $0x1,%al
     a54:	50                   	push   %eax
     a55:	04 94                	add    $0x94,%al
     a57:	04 9c                	add    $0x9c,%al
     a59:	04 01                	add    $0x1,%al
     a5b:	50                   	push   %eax
     a5c:	00 00                	add    %al,(%eax)
     a5e:	00 00                	add    %al,(%eax)
     a60:	00 00                	add    %al,(%eax)
     a62:	00 04 99             	add    %al,(%ecx,%ebx,4)
     a65:	03 c5                	add    %ebp,%eax
     a67:	03 02                	add    (%edx),%eax
     a69:	91                   	xchg   %eax,%ecx
     a6a:	04 04                	add    $0x4,%al
     a6c:	c5 03                	lds    (%ebx),%eax
     a6e:	c6 03 02             	movb   $0x2,(%ebx)
     a71:	74 08                	je     a7b <start_-0xff591>
     a73:	04 c6                	add    $0xc6,%al
     a75:	03 d4                	add    %esp,%edx
     a77:	03 02                	add    (%edx),%eax
     a79:	91                   	xchg   %eax,%ecx
     a7a:	04 00                	add    $0x0,%al
     a7c:	00 00                	add    %al,(%eax)
     a7e:	00 00                	add    %al,(%eax)
     a80:	00 00                	add    %al,(%eax)
     a82:	04 99                	add    $0x99,%al
     a84:	03 c5                	add    %ebp,%eax
     a86:	03 02                	add    (%edx),%eax
     a88:	91                   	xchg   %eax,%ecx
     a89:	08 04 c5 03 c6 03 02 	or     %al,0x203c603(,%eax,8)
     a90:	74 0c                	je     a9e <start_-0xff56e>
     a92:	04 c6                	add    $0xc6,%al
     a94:	03 d4                	add    %esp,%edx
     a96:	03 02                	add    (%edx),%eax
     a98:	91                   	xchg   %eax,%ecx
     a99:	08 00                	or     %al,(%eax)
     a9b:	00 00                	add    %al,(%eax)
     a9d:	00 00                	add    %al,(%eax)
     a9f:	00 00                	add    %al,(%eax)
     aa1:	04 a5                	add    $0xa5,%al
     aa3:	03 b3 03 01 50 04    	add    0x4500103(%ebx),%esi
     aa9:	b3 03                	mov    $0x3,%bl
     aab:	c4 03                	les    (%ebx),%eax
     aad:	01 56 04             	add    %edx,0x4(%esi)
     ab0:	c6 03 d4             	movb   $0xd4,(%ebx)
     ab3:	03 01                	add    (%ecx),%eax
     ab5:	56                   	push   %esi
	...
     abe:	00 04 b6             	add    %al,(%esi,%esi,4)
     ac1:	03 bd 03 01 50 04    	add    0x4500103(%ebp),%edi
     ac7:	bd 03 c3 03 01       	mov    $0x103c303,%ebp
     acc:	53                   	push   %ebx
     acd:	04 c3                	add    $0xc3,%al
     acf:	03 ce                	add    %esi,%ecx
     ad1:	03 01                	add    (%ecx),%eax
     ad3:	50                   	push   %eax
     ad4:	04 ce                	add    $0xce,%al
     ad6:	03 d4                	add    %esp,%edx
     ad8:	03 01                	add    (%ecx),%eax
     ada:	53                   	push   %ebx
     adb:	00 00                	add    %al,(%eax)
     add:	00 00                	add    %al,(%eax)
     adf:	00 00                	add    %al,(%eax)
     ae1:	00 04 58             	add    %al,(%eax,%ebx,2)
     ae4:	98                   	cwtl   
     ae5:	02 02                	add    (%edx),%al
     ae7:	91                   	xchg   %eax,%ecx
     ae8:	04 04                	add    $0x4,%al
     aea:	98                   	cwtl   
     aeb:	02 99 02 02 74 08    	add    0x8740202(%ecx),%bl
     af1:	04 99                	add    $0x99,%al
     af3:	02 99 03 02 91 04    	add    0x4910203(%ecx),%bl
     af9:	00 00                	add    %al,(%eax)
     afb:	00 00                	add    %al,(%eax)
     afd:	00 00                	add    %al,(%eax)
     aff:	00 04 58             	add    %al,(%eax,%ebx,2)
     b02:	98                   	cwtl   
     b03:	02 02                	add    (%edx),%al
     b05:	91                   	xchg   %eax,%ecx
     b06:	08 04 98             	or     %al,(%eax,%ebx,4)
     b09:	02 99 02 02 74 0c    	add    0xc740202(%ecx),%bl
     b0f:	04 99                	add    $0x99,%al
     b11:	02 99 03 02 91 08    	add    0x8910203(%ecx),%bl
     b17:	00 00                	add    %al,(%eax)
     b19:	00 00                	add    %al,(%eax)
     b1b:	00 00                	add    %al,(%eax)
     b1d:	00 04 58             	add    %al,(%eax,%ebx,2)
     b20:	98                   	cwtl   
     b21:	02 02                	add    (%edx),%al
     b23:	91                   	xchg   %eax,%ecx
     b24:	0c 04                	or     $0x4,%al
     b26:	98                   	cwtl   
     b27:	02 99 02 02 74 10    	add    0x10740202(%ecx),%bl
     b2d:	04 99                	add    $0x99,%al
     b2f:	02 99 03 02 91 0c    	add    0xc910203(%ecx),%bl
     b35:	00 00                	add    %al,(%eax)
     b37:	00 00                	add    %al,(%eax)
     b39:	00 00                	add    %al,(%eax)
     b3b:	00 04 7d 91 02 01 57 	add    %al,0x57010291(,%edi,2)
     b42:	04 99                	add    $0x99,%al
     b44:	02 f4                	add    %ah,%dh
     b46:	02 01                	add    (%ecx),%al
     b48:	57                   	push   %edi
     b49:	04 8f                	add    $0x8f,%al
     b4b:	03 99 03 01 57 00    	add    0x570103(%ecx),%ebx
     b51:	00 01                	add    %al,(%ecx)
     b53:	01 00                	add    %eax,(%eax)
     b55:	00 00                	add    %al,(%eax)
     b57:	00 00                	add    %al,(%eax)
     b59:	00 00                	add    %al,(%eax)
     b5b:	04 89                	add    $0x89,%al
     b5d:	01 cd                	add    %ecx,%ebp
     b5f:	01 01                	add    %eax,(%ecx)
     b61:	53                   	push   %ebx
     b62:	04 cd                	add    $0xcd,%al
     b64:	01 e6                	add    %esp,%esi
     b66:	01 02                	add    %eax,(%edx)
     b68:	30 9f 04 e6 01 84    	xor    %bl,-0x7bfe19fc(%edi)
     b6e:	02 01                	add    (%ecx),%al
     b70:	53                   	push   %ebx
     b71:	04 99                	add    $0x99,%al
     b73:	02 f7                	add    %bh,%dh
     b75:	02 01                	add    (%ecx),%al
     b77:	53                   	push   %ebx
     b78:	04 8f                	add    $0x8f,%al
     b7a:	03 99 03 01 53 00    	add    0x530103(%ecx),%ebx
     b80:	01 00                	add    %eax,(%eax)
     b82:	00 00                	add    %al,(%eax)
     b84:	00 00                	add    %al,(%eax)
     b86:	04 89                	add    $0x89,%al
     b88:	01 91 02 04 0b 00    	add    %edx,0xb0402(%ecx)
     b8e:	f0 9f                	lock lahf 
     b90:	04 99                	add    $0x99,%al
     b92:	02 88 03 04 0b 00    	add    0xb0403(%eax),%cl
     b98:	f0 9f                	lock lahf 
     b9a:	04 8f                	add    $0x8f,%al
     b9c:	03 99 03 04 0b 00    	add    0xb0403(%ecx),%ebx
     ba2:	f0 9f                	lock lahf 
     ba4:	00 00                	add    %al,(%eax)
     ba6:	00 00                	add    %al,(%eax)
     ba8:	00 00                	add    %al,(%eax)
     baa:	00 04 90             	add    %al,(%eax,%edx,4)
     bad:	01 f2                	add    %esi,%edx
     baf:	01 01                	add    %eax,(%ecx)
     bb1:	51                   	push   %ecx
     bb2:	04 99                	add    $0x99,%al
     bb4:	02 a5 02 01 51 04    	add    0x4510102(%ebp),%ah
     bba:	8f 03                	pop    (%ebx)
     bbc:	99                   	cltd   
     bbd:	03 01                	add    (%ecx),%eax
     bbf:	51                   	push   %ecx
	...
     bc8:	00 04 9b             	add    %al,(%ebx,%ebx,4)
     bcb:	01 d6                	add    %edx,%esi
     bcd:	01 01                	add    %eax,(%ecx)
     bcf:	56                   	push   %esi
     bd0:	04 df                	add    $0xdf,%al
     bd2:	01 91 02 01 56 04    	add    %edx,0x4560102(%ecx)
     bd8:	99                   	cltd   
     bd9:	02 88 03 01 56 04    	add    0x4560103(%eax),%cl
     bdf:	8f 03                	pop    (%ebx)
     be1:	99                   	cltd   
     be2:	03 01                	add    (%ecx),%eax
     be4:	56                   	push   %esi
     be5:	00 00                	add    %al,(%eax)
     be7:	00 04 a6             	add    %al,(%esi,%eiz,4)
     bea:	02 af 02 01 50 00    	add    0x500102(%edi),%ch
     bf0:	00 00                	add    %al,(%eax)
     bf2:	04 2c                	add    $0x2c,%al
     bf4:	58                   	pop    %eax
     bf5:	01 50 00             	add    %edx,0x0(%eax)
     bf8:	02 00                	add    (%eax),%al
     bfa:	00 00                	add    %al,(%eax)
     bfc:	04 2c                	add    $0x2c,%al
     bfe:	33 02                	xor    (%edx),%eax
     c00:	30 9f 04 33 47 01    	xor    %bl,0x1473304(%edi)
     c06:	52                   	push   %edx
     c07:	00 00                	add    %al,(%eax)
     c09:	00 00                	add    %al,(%eax)
     c0b:	00 04 08             	add    %al,(%eax,%ecx,1)
     c0e:	0d 01 50 04 0d       	or     $0xd045001,%eax
     c13:	0e                   	push   %cs
     c14:	07                   	pop    %es
     c15:	70 80                	jo     b97 <start_-0xff475>
     c17:	80 80 80 04 9f 00 40 	addb   $0x40,0x9f0480(%eax)
     c1e:	00 00                	add    %al,(%eax)
     c20:	00 05 00 04 00 00    	add    %al,0x400
     c26:	00 00                	add    %al,(%eax)
     c28:	00 03                	add    %al,(%ebx)
     c2a:	00 00                	add    %al,(%eax)
     c2c:	00 04 bc             	add    %al,(%esp,%edi,4)
     c2f:	02 c3                	add    %bl,%al
     c31:	02 02                	add    (%edx),%al
     c33:	30 9f 04 c3 02 f2    	xor    %bl,-0xdfd3cfc(%edi)
     c39:	02 01                	add    (%ecx),%al
     c3b:	50                   	push   %eax
     c3c:	00 02                	add    %al,(%edx)
     c3e:	00 00                	add    %al,(%eax)
     c40:	00 04 43             	add    %al,(%ebx,%eax,2)
     c43:	4d                   	dec    %ebp
     c44:	02 30                	add    (%eax),%dh
     c46:	9f                   	lahf   
     c47:	04 4d                	add    $0x4d,%al
     c49:	71 01                	jno    c4c <start_-0xff3c0>
     c4b:	50                   	push   %eax
     c4c:	00 00                	add    %al,(%eax)
     c4e:	00 00                	add    %al,(%eax)
     c50:	00 04 92             	add    %al,(%edx,%edx,4)
     c53:	02 9e 02 02 91 00    	add    0x910202(%esi),%bl
     c59:	04 9e                	add    $0x9e,%al
     c5b:	02 ba 02 01 53 00    	add    0x530102(%edx),%bh
     c61:	19 00                	sbb    %eax,(%eax)
     c63:	00 00                	add    %al,(%eax)
     c65:	05 00 04 00 00       	add    $0x400,%eax
     c6a:	00 00                	add    %al,(%eax)
     c6c:	00 00                	add    %al,(%eax)
     c6e:	00 00                	add    %al,(%eax)
     c70:	00 04 0d 1c 01 50 04 	add    %al,0x450011c(,%ecx,1)
     c77:	1c 25                	sbb    $0x25,%al
     c79:	03 91 04 9f 00 0b    	add    0xb009f04(%ecx),%edx
     c7f:	01 00                	add    %eax,(%eax)
     c81:	00 05 00 04 00 00    	add    %al,0x400
     c87:	00 00                	add    %al,(%eax)
     c89:	00 00                	add    %al,(%eax)
     c8b:	00 00                	add    %al,(%eax)
     c8d:	00 04 cf             	add    %al,(%edi,%ecx,8)
     c90:	03 e8                	add    %eax,%ebp
     c92:	03 02                	add    (%edx),%eax
     c94:	91                   	xchg   %eax,%ecx
     c95:	04 04                	add    $0x4,%al
     c97:	e8 03 e9 03 02       	call   203f59f <__init_hhk_end+0x1f3959f>
     c9c:	74 08                	je     ca6 <start_-0xff366>
     c9e:	00 00                	add    %al,(%eax)
     ca0:	00 00                	add    %al,(%eax)
     ca2:	01 04 d8             	add    %eax,(%eax,%ebx,8)
     ca5:	03 e3                	add    %ebx,%esp
     ca7:	03 01                	add    (%ecx),%eax
     ca9:	50                   	push   %eax
     caa:	04 e3                	add    $0xe3,%al
     cac:	03 e4                	add    %esp,%esp
     cae:	03 03                	add    (%ebx),%eax
     cb0:	91                   	xchg   %eax,%ecx
     cb1:	08 9f 00 00 00 00    	or     %bl,0x0(%edi)
	...
     cbf:	00 04 00             	add    %al,(%eax,%eax,1)
     cc2:	1a 02                	sbb    (%edx),%al
     cc4:	91                   	xchg   %eax,%ecx
     cc5:	04 04                	add    $0x4,%al
     cc7:	1a 24 01             	sbb    (%ecx,%eax,1),%ah
     cca:	52                   	push   %edx
     ccb:	04 24                	add    $0x24,%al
     ccd:	6a 01                	push   $0x1
     ccf:	57                   	push   %edi
     cd0:	04 6a                	add    $0x6a,%al
     cd2:	8d 01                	lea    (%ecx),%eax
     cd4:	01 52 04             	add    %edx,0x4(%edx)
     cd7:	8d 01                	lea    (%ecx),%eax
     cd9:	c0 03 01             	rolb   $0x1,(%ebx)
     cdc:	57                   	push   %edi
     cdd:	04 c0                	add    $0xc0,%al
     cdf:	03 cf                	add    %edi,%ecx
     ce1:	03 01                	add    (%ecx),%eax
     ce3:	52                   	push   %edx
     ce4:	00 00                	add    %al,(%eax)
     ce6:	00 04 00             	add    %al,(%eax,%eax,1)
     ce9:	1a 02                	sbb    (%edx),%al
     ceb:	91                   	xchg   %eax,%ecx
     cec:	08 00                	or     %al,(%eax)
     cee:	00 00                	add    %al,(%eax)
     cf0:	00 01                	add    %al,(%ecx)
	...
     cfe:	00 00                	add    %al,(%eax)
     d00:	04 1a                	add    $0x1a,%al
     d02:	28 01                	sub    %al,(%ecx)
     d04:	50                   	push   %eax
     d05:	04 28                	add    $0x28,%al
     d07:	67 01 56 04          	add    %edx,0x4(%bp)
     d0b:	70 8d                	jo     c9a <start_-0xff372>
     d0d:	01 01                	add    %eax,(%ecx)
     d0f:	50                   	push   %eax
     d10:	04 8d                	add    $0x8d,%al
     d12:	01 98 01 01 56 04    	add    %ebx,0x4560101(%eax)
     d18:	b7 01                	mov    $0x1,%bh
     d1a:	cd 02                	int    $0x2
     d1c:	01 56 04             	add    %edx,0x4(%esi)
     d1f:	cd 02                	int    $0x2
     d21:	d7                   	xlat   %ds:(%ebx)
     d22:	02 01                	add    (%ecx),%al
     d24:	50                   	push   %eax
     d25:	04 fa                	add    $0xfa,%al
     d27:	02 ae 03 01 56 04    	add    0x4560103(%esi),%ch
     d2d:	ae                   	scas   %es:(%edi),%al
     d2e:	03 c3                	add    %ebx,%eax
     d30:	03 01                	add    (%ecx),%eax
     d32:	50                   	push   %eax
     d33:	04 c3                	add    $0xc3,%al
     d35:	03 c7                	add    %edi,%eax
     d37:	03 02                	add    (%edx),%eax
     d39:	72 00                	jb     d3b <start_-0xff2d1>
     d3b:	00 03                	add    %al,(%ebx)
     d3d:	00 00                	add    %al,(%eax)
     d3f:	01 00                	add    %eax,(%eax)
     d41:	00 00                	add    %al,(%eax)
     d43:	00 00                	add    %al,(%eax)
     d45:	00 00                	add    %al,(%eax)
     d47:	00 04 0c             	add    %al,(%esp,%ecx,1)
     d4a:	1a 02                	sbb    (%edx),%al
     d4c:	30 9f 04 1a 67 01    	xor    %bl,0x1671a04(%edi)
     d52:	53                   	push   %ebx
     d53:	04 6d                	add    $0x6d,%al
     d55:	d5 02                	aad    $0x2
     d57:	01 53 04             	add    %edx,0x4(%ebx)
     d5a:	d5 02                	aad    $0x2
     d5c:	d7                   	xlat   %ds:(%ebx)
     d5d:	02 01                	add    (%ecx),%al
     d5f:	56                   	push   %esi
     d60:	04 d7                	add    $0xd7,%al
     d62:	02 fa                	add    %dl,%bh
     d64:	02 02                	add    (%edx),%al
     d66:	91                   	xchg   %eax,%ecx
     d67:	4c                   	dec    %esp
     d68:	04 fa                	add    $0xfa,%al
     d6a:	02 cb                	add    %bl,%cl
     d6c:	03 01                	add    (%ecx),%eax
     d6e:	53                   	push   %ebx
     d6f:	00 00                	add    %al,(%eax)
     d71:	00 04 cf             	add    %al,(%edi,%ecx,8)
     d74:	02 fa                	add    %dl,%bh
     d76:	02 01                	add    (%ecx),%al
     d78:	56                   	push   %esi
     d79:	00 00                	add    %al,(%eax)
     d7b:	00 00                	add    %al,(%eax)
     d7d:	00 04 d7             	add    %al,(%edi,%edx,8)
     d80:	02 e8                	add    %al,%ch
     d82:	02 01                	add    (%ecx),%al
     d84:	52                   	push   %edx
     d85:	04 ee                	add    $0xee,%al
     d87:	02 fa                	add    %dl,%bh
     d89:	02 01                	add    (%ecx),%al
     d8b:	52                   	push   %edx
     d8c:	00 f0                	add    %dh,%al
     d8e:	00 00                	add    %al,(%eax)
     d90:	00 05 00 04 00 00    	add    %al,0x400
     d96:	00 00                	add    %al,(%eax)
     d98:	00 00                	add    %al,(%eax)
     d9a:	00 00                	add    %al,(%eax)
     d9c:	00 04 d1             	add    %al,(%ecx,%edx,8)
     d9f:	01 e5                	add    %esp,%ebp
     da1:	01 02                	add    %eax,(%edx)
     da3:	91                   	xchg   %eax,%ecx
     da4:	04 04                	add    $0x4,%al
     da6:	e5 01                	in     $0x1,%eax
     da8:	e6 01                	out    %al,$0x1
     daa:	02 74 08 00          	add    0x0(%eax,%ecx,1),%dh
     dae:	00 00                	add    %al,(%eax)
     db0:	00 00                	add    %al,(%eax)
     db2:	04 d1                	add    $0xd1,%al
     db4:	01 e5                	add    %esp,%ebp
     db6:	01 02                	add    %eax,(%edx)
     db8:	91                   	xchg   %eax,%ecx
     db9:	08 04 e5 01 e6 01 02 	or     %al,0x201e601(,%eiz,8)
     dc0:	74 0c                	je     dce <start_-0xff23e>
     dc2:	00 00                	add    %al,(%eax)
     dc4:	00 00                	add    %al,(%eax)
     dc6:	00 00                	add    %al,(%eax)
     dc8:	00 04 7f             	add    %al,(%edi,%edi,2)
     dcb:	c0 01 02             	rolb   $0x2,(%ecx)
     dce:	91                   	xchg   %eax,%ecx
     dcf:	04 04                	add    $0x4,%al
     dd1:	c0 01 c1             	rolb   $0xc1,(%ecx)
     dd4:	01 02                	add    %eax,(%edx)
     dd6:	74 08                	je     de0 <start_-0xff22c>
     dd8:	04 c1                	add    $0xc1,%al
     dda:	01 d1                	add    %edx,%ecx
     ddc:	01 01                	add    %eax,(%ecx)
     dde:	53                   	push   %ebx
	...
     de7:	00 04 7f             	add    %al,(%edi,%edi,2)
     dea:	c0 01 02             	rolb   $0x2,(%ecx)
     ded:	91                   	xchg   %eax,%ecx
     dee:	08 04 c0             	or     %al,(%eax,%eax,8)
     df1:	01 c1                	add    %eax,%ecx
     df3:	01 02                	add    %eax,(%edx)
     df5:	74 0c                	je     e03 <start_-0xff209>
     df7:	04 c1                	add    $0xc1,%al
     df9:	01 cb                	add    %ecx,%ebx
     dfb:	01 01                	add    %eax,(%ecx)
     dfd:	52                   	push   %edx
     dfe:	04 cb                	add    $0xcb,%al
     e00:	01 d1                	add    %edx,%ecx
     e02:	01 02                	add    %eax,(%edx)
     e04:	91                   	xchg   %eax,%ecx
     e05:	08 00                	or     %al,(%eax)
     e07:	00 00                	add    %al,(%eax)
     e09:	00 00                	add    %al,(%eax)
     e0b:	00 00                	add    %al,(%eax)
     e0d:	04 7f                	add    $0x7f,%al
     e0f:	c0 01 02             	rolb   $0x2,(%ecx)
     e12:	91                   	xchg   %eax,%ecx
     e13:	0c 04                	or     $0x4,%al
     e15:	c0 01 c1             	rolb   $0xc1,(%ecx)
     e18:	01 02                	add    %eax,(%edx)
     e1a:	74 10                	je     e2c <start_-0xff1e0>
     e1c:	04 c1                	add    $0xc1,%al
     e1e:	01 d1                	add    %edx,%ecx
     e20:	01 01                	add    %eax,(%ecx)
     e22:	56                   	push   %esi
     e23:	00 00                	add    %al,(%eax)
     e25:	00 00                	add    %al,(%eax)
     e27:	00 04 a8             	add    %al,(%eax,%ebp,4)
     e2a:	01 b3 01 01 50 04    	add    %esi,0x4500101(%ebx)
     e30:	b3 01                	mov    $0x1,%bl
     e32:	b7 01                	mov    $0x1,%bh
     e34:	05 91 00 06 1f       	add    $0x1f060091,%eax
     e39:	9f                   	lahf   
	...
     e42:	00 04 00             	add    %al,(%eax,%eax,1)
     e45:	17                   	pop    %ss
     e46:	02 91 00 04 17 2e    	add    0x2e170400(%ecx),%dl
     e4c:	01 53 04             	add    %edx,0x4(%ebx)
     e4f:	2e 3a 01             	cmp    %cs:(%ecx),%al
     e52:	50                   	push   %eax
     e53:	04 3a                	add    $0x3a,%al
     e55:	3f                   	aas    
     e56:	01 53 00             	add    %edx,0x0(%ebx)
     e59:	01 00                	add    %eax,(%eax)
     e5b:	00 00                	add    %al,(%eax)
     e5d:	00 00                	add    %al,(%eax)
     e5f:	04 12                	add    $0x12,%al
     e61:	17                   	pop    %ss
     e62:	02 30                	add    (%eax),%dh
     e64:	9f                   	lahf   
     e65:	04 17                	add    $0x17,%al
     e67:	3f                   	aas    
     e68:	01 51 04             	add    %edx,0x4(%ecx)
     e6b:	3f                   	aas    
     e6c:	7f 02                	jg     e70 <start_-0xff19c>
     e6e:	91                   	xchg   %eax,%ecx
     e6f:	68 00 00 00 04       	push   $0x4000000
     e74:	3f                   	aas    
     e75:	73 01                	jae    e78 <start_-0xff194>
     e77:	50                   	push   %eax
     e78:	00 00                	add    %al,(%eax)
     e7a:	00 04 45 5a 01 57 00 	add    %al,0x57015a(,%eax,2)
     e81:	3d 02 00 00 05       	cmp    $0x5000002,%eax
     e86:	00 04 00             	add    %al,(%eax,%eax,1)
	...
     e91:	00 00                	add    %al,(%eax)
     e93:	04 8b                	add    $0x8b,%al
     e95:	01 a1 01 02 91 00    	add    %esp,0x910201(%ecx)
     e9b:	04 a1                	add    $0xa1,%al
     e9d:	01 be 01 01 57 04    	add    %edi,0x4570101(%esi)
     ea3:	be 01 c0 01 02       	mov    $0x201c001,%esi
     ea8:	91                   	xchg   %eax,%ecx
	...
     eb1:	04 8b                	add    $0x8b,%al
     eb3:	01 a1 01 02 91 04    	add    %esp,0x4910201(%ecx)
     eb9:	04 a1                	add    $0xa1,%al
     ebb:	01 bd 01 01 56 04    	add    %edi,0x4560101(%ebp)
     ec1:	bd 01 c0 01 02       	mov    $0x201c001,%ebp
     ec6:	91                   	xchg   %eax,%ecx
     ec7:	04 00                	add    $0x0,%al
     ec9:	00 00                	add    %al,(%eax)
     ecb:	00 00                	add    %al,(%eax)
     ecd:	00 00                	add    %al,(%eax)
     ecf:	04 8b                	add    $0x8b,%al
     ed1:	01 a1 01 02 91 08    	add    %esp,0x8910201(%ecx)
     ed7:	04 a1                	add    $0xa1,%al
     ed9:	01 bc 01 01 53 04 bc 	add    %edi,-0x43fbacff(%ecx,%eax,1)
     ee0:	01 c0                	add    %eax,%eax
     ee2:	01 02                	add    %eax,(%edx)
     ee4:	91                   	xchg   %eax,%ecx
     ee5:	08 00                	or     %al,(%eax)
     ee7:	01 00                	add    %eax,(%eax)
     ee9:	00 00                	add    %al,(%eax)
     eeb:	00 00                	add    %al,(%eax)
     eed:	04 9a                	add    $0x9a,%al
     eef:	01 a1 01 02 91 00    	add    %esp,0x910201(%ecx)
     ef5:	04 a1                	add    $0xa1,%al
     ef7:	01 be 01 01 57 04    	add    %edi,0x4570101(%esi)
     efd:	be 01 c0 01 02       	mov    $0x201c001,%esi
     f02:	91                   	xchg   %eax,%ecx
     f03:	00 00                	add    %al,(%eax)
     f05:	02 00                	add    (%eax),%al
     f07:	00 00                	add    %al,(%eax)
     f09:	00 00                	add    %al,(%eax)
     f0b:	04 9a                	add    $0x9a,%al
     f0d:	01 a1 01 02 91 04    	add    %esp,0x4910201(%ecx)
     f13:	04 a1                	add    $0xa1,%al
     f15:	01 bd 01 01 56 04    	add    %edi,0x4560101(%ebp)
     f1b:	bd 01 c0 01 02       	mov    $0x201c001,%ebp
     f20:	91                   	xchg   %eax,%ecx
     f21:	04 00                	add    $0x0,%al
     f23:	04 00                	add    $0x0,%al
     f25:	00 00                	add    %al,(%eax)
     f27:	04 9a                	add    $0x9a,%al
     f29:	01 a1 01 02 30 9f    	add    %esp,-0x60cffdff(%ecx)
     f2f:	04 a1                	add    $0xa1,%al
     f31:	01 c0                	add    %eax,%eax
     f33:	01 01                	add    %eax,(%ecx)
     f35:	52                   	push   %edx
     f36:	00 00                	add    %al,(%eax)
     f38:	00 00                	add    %al,(%eax)
     f3a:	00 00                	add    %al,(%eax)
     f3c:	00 04 a1             	add    %al,(%ecx,%eiz,4)
     f3f:	01 a4 01 01 50 04 b0 	add    %esp,-0x4ffbafff(%ecx,%eax,1)
     f46:	01 b2 01 06 70 00    	add    %esi,0x700601(%edx)
     f4c:	71 00                	jno    f4e <start_-0xff0be>
     f4e:	1c 9f                	sbb    $0x9f,%al
     f50:	04 b2                	add    $0xb2,%al
     f52:	01 b6 01 01 50 00    	add    %esi,0x500101(%esi)
     f58:	00 00                	add    %al,(%eax)
     f5a:	00 00                	add    %al,(%eax)
     f5c:	04 66                	add    $0x66,%al
     f5e:	80 01 02             	addb   $0x2,(%ecx)
     f61:	91                   	xchg   %eax,%ecx
     f62:	00 04 80             	add    %al,(%eax,%eax,4)
     f65:	01 8b 01 01 52 00    	add    %ecx,0x520101(%ebx)
     f6b:	00 00                	add    %al,(%eax)
     f6d:	00 00                	add    %al,(%eax)
     f6f:	04 66                	add    $0x66,%al
     f71:	8a 01                	mov    (%ecx),%al
     f73:	02 91 04 04 8a 01    	add    0x18a0404(%ecx),%dl
     f79:	8b 01                	mov    (%ecx),%eax
     f7b:	02 74 08 00          	add    0x0(%eax,%ecx,1),%dh
     f7f:	00 00                	add    %al,(%eax)
     f81:	00 00                	add    %al,(%eax)
     f83:	04 66                	add    $0x66,%al
     f85:	7a 02                	jp     f89 <start_-0xff083>
     f87:	91                   	xchg   %eax,%ecx
     f88:	08 04 7a             	or     %al,(%edx,%edi,2)
     f8b:	8b 01                	mov    (%ecx),%eax
     f8d:	01 51 00             	add    %edx,0x0(%ecx)
     f90:	01 00                	add    %eax,(%eax)
     f92:	00 00                	add    %al,(%eax)
     f94:	04 73                	add    $0x73,%al
     f96:	80 01 02             	addb   $0x2,(%ecx)
     f99:	91                   	xchg   %eax,%ecx
     f9a:	00 04 80             	add    %al,(%eax,%eax,4)
     f9d:	01 8b 01 01 52 00    	add    %ecx,0x520101(%ebx)
     fa3:	03 00                	add    (%eax),%eax
     fa5:	00 00                	add    %al,(%eax)
     fa7:	04 73                	add    $0x73,%al
     fa9:	7a 02                	jp     fad <start_-0xff05f>
     fab:	30 9f 04 7a 86 01    	xor    %bl,0x1867a04(%edi)
     fb1:	01 50 00             	add    %edx,0x0(%eax)
     fb4:	00 00                	add    %al,(%eax)
     fb6:	00 00                	add    %al,(%eax)
     fb8:	04 29                	add    $0x29,%al
     fba:	4c                   	dec    %esp
     fbb:	02 91 00 04 4c 66    	add    0x664c0400(%ecx),%dl
     fc1:	01 51 00             	add    %edx,0x0(%ecx)
	...
     fcc:	04 29                	add    $0x29,%al
     fce:	4c                   	dec    %esp
     fcf:	02 91 04 04 4c 53    	add    0x534c0404(%ecx),%dl
     fd5:	01 53 04             	add    %edx,0x4(%ebx)
     fd8:	53                   	push   %ebx
     fd9:	56                   	push   %esi
     fda:	02 91 04 04 56 66    	add    0x66560404(%ecx),%dl
     fe0:	01 53 00             	add    %edx,0x0(%ebx)
     fe3:	00 00                	add    %al,(%eax)
     fe5:	00 00                	add    %al,(%eax)
     fe7:	00 00                	add    %al,(%eax)
     fe9:	04 29                	add    $0x29,%al
     feb:	42                   	inc    %edx
     fec:	02 91 08 04 42 50    	add    0x50420408(%ecx),%dl
     ff2:	01 56 04             	add    %edx,0x4(%esi)
     ff5:	50                   	push   %eax
     ff6:	66 02 91 08 00 01 00 	data16 add 0x10008(%ecx),%dl
     ffd:	00 00                	add    %al,(%eax)
     fff:	04 37                	add    $0x37,%al
    1001:	4c                   	dec    %esp
    1002:	02 91 00 04 4c 66    	add    0x664c0400(%ecx),%dl
    1008:	01 51 00             	add    %edx,0x0(%ecx)
    100b:	02 00                	add    (%eax),%al
    100d:	00 00                	add    %al,(%eax)
    100f:	00 00                	add    %al,(%eax)
    1011:	00 00                	add    %al,(%eax)
    1013:	04 37                	add    $0x37,%al
    1015:	4c                   	dec    %esp
    1016:	02 91 04 04 4c 53    	add    0x534c0404(%ecx),%dl
    101c:	01 53 04             	add    %edx,0x4(%ebx)
    101f:	53                   	push   %ebx
    1020:	56                   	push   %esi
    1021:	02 91 04 04 56 66    	add    0x66560404(%ecx),%dl
    1027:	01 53 00             	add    %edx,0x0(%ebx)
    102a:	00 00                	add    %al,(%eax)
    102c:	04 42                	add    $0x42,%al
    102e:	50                   	push   %eax
    102f:	01 52 00             	add    %edx,0x0(%edx)
    1032:	00 00                	add    %al,(%eax)
    1034:	00 01                	add    %al,(%ecx)
    1036:	01 00                	add    %eax,(%eax)
    1038:	04 56                	add    $0x56,%al
    103a:	59                   	pop    %ecx
    103b:	01 56 04             	add    %edx,0x4(%esi)
    103e:	59                   	pop    %ecx
    103f:	60                   	pusha  
    1040:	03 76 01             	add    0x1(%esi),%esi
    1043:	9f                   	lahf   
    1044:	04 60                	add    $0x60,%al
    1046:	66 01 56 00          	add    %dx,0x0(%esi)
    104a:	00 00                	add    %al,(%eax)
    104c:	00 00                	add    %al,(%eax)
    104e:	04 00                	add    $0x0,%al
    1050:	1f                   	pop    %ds
    1051:	02 91 00 04 1f 29    	add    0x291f0400(%ecx),%dl
    1057:	01 51 00             	add    %edx,0x0(%ecx)
    105a:	00 00                	add    %al,(%eax)
    105c:	00 00                	add    %al,(%eax)
    105e:	00 00                	add    %al,(%eax)
    1060:	04 00                	add    $0x0,%al
    1062:	1f                   	pop    %ds
    1063:	02 91 04 04 1f 27    	add    0x271f0404(%ecx),%dl
    1069:	01 56 04             	add    %edx,0x4(%esi)
    106c:	27                   	daa    
    106d:	29 02                	sub    %eax,(%edx)
    106f:	91                   	xchg   %eax,%ecx
    1070:	04 00                	add    $0x0,%al
    1072:	00 00                	add    %al,(%eax)
    1074:	00 00                	add    %al,(%eax)
    1076:	00 00                	add    %al,(%eax)
    1078:	04 00                	add    $0x0,%al
    107a:	15 02 91 08 04       	adc    $0x4089102,%eax
    107f:	15 26 01 53 04       	adc    $0x4530126,%eax
    1084:	26 29 02             	sub    %eax,%es:(%edx)
    1087:	91                   	xchg   %eax,%ecx
    1088:	08 00                	or     %al,(%eax)
    108a:	01 00                	add    %eax,(%eax)
    108c:	00 00                	add    %al,(%eax)
    108e:	04 0e                	add    $0xe,%al
    1090:	1f                   	pop    %ds
    1091:	02 91 00 04 1f 29    	add    0x291f0400(%ecx),%dl
    1097:	01 51 00             	add    %edx,0x0(%ecx)
    109a:	02 00                	add    (%eax),%al
    109c:	00 00                	add    %al,(%eax)
    109e:	00 00                	add    %al,(%eax)
    10a0:	04 0e                	add    $0xe,%al
    10a2:	1f                   	pop    %ds
    10a3:	02 91 04 04 1f 27    	add    0x271f0404(%ecx),%dl
    10a9:	01 56 04             	add    %edx,0x4(%esi)
    10ac:	27                   	daa    
    10ad:	29 02                	sub    %eax,(%edx)
    10af:	91                   	xchg   %eax,%ecx
    10b0:	04 00                	add    $0x0,%al
    10b2:	04 00                	add    $0x0,%al
    10b4:	00 00                	add    %al,(%eax)
    10b6:	04 0e                	add    $0xe,%al
    10b8:	15 02 30 9f 04       	adc    $0x49f3002,%eax
    10bd:	15 25 01 50 00       	adc    $0x500125,%eax
    10c2:	57                   	push   %edi
    10c3:	00 00                	add    %al,(%eax)
    10c5:	00 05 00 04 00 00    	add    %al,0x400
    10cb:	00 00                	add    %al,(%eax)
    10cd:	00 00                	add    %al,(%eax)
    10cf:	00 00                	add    %al,(%eax)
    10d1:	00 04 00             	add    %al,(%eax,%eax,1)
    10d4:	17                   	pop    %ss
    10d5:	02 91 00 04 17 2a    	add    0x2a170400(%ecx),%dl
    10db:	01 51 00             	add    %edx,0x0(%ecx)
	...
    10e6:	04 00                	add    $0x0,%al
    10e8:	11 02                	adc    %eax,(%edx)
    10ea:	91                   	xchg   %eax,%ecx
    10eb:	04 04                	add    $0x4,%al
    10ed:	11 28                	adc    %ebp,(%eax)
    10ef:	01 53 04             	add    %edx,0x4(%ebx)
    10f2:	28 29                	sub    %ch,(%ecx)
    10f4:	02 91 04 04 29 2a    	add    0x2a290404(%ecx),%dl
    10fa:	02 74 08 00          	add    0x0(%eax,%ecx,1),%dh
    10fe:	00 00                	add    %al,(%eax)
    1100:	00 00                	add    %al,(%eax)
    1102:	04 11                	add    $0x11,%al
    1104:	17                   	pop    %ss
    1105:	01 52 04             	add    %edx,0x4(%edx)
    1108:	1b 2a                	sbb    (%edx),%ebp
    110a:	01 52 00             	add    %edx,0x0(%edx)
    110d:	02 00                	add    (%eax),%al
    110f:	00 00                	add    %al,(%eax)
    1111:	04 0a                	add    $0xa,%al
    1113:	11 02                	adc    %eax,(%edx)
    1115:	30 9f 04 11 25 01    	xor    %bl,0x1251104(%edi)
    111b:	50                   	push   %eax
    111c:	00 28                	add    %ch,(%eax)
    111e:	00 00                	add    %al,(%eax)
    1120:	00 05 00 04 00 00    	add    %al,0x400
    1126:	00 00                	add    %al,(%eax)
    1128:	00 00                	add    %al,(%eax)
    112a:	00 00                	add    %al,(%eax)
    112c:	00 04 00             	add    %al,(%eax,%eax,1)
    112f:	0d 02 91 00 04       	or     $0x4009102,%eax
    1134:	0d 18 01 52 00       	or     $0x520118,%eax
    1139:	01 00                	add    %eax,(%eax)
    113b:	00 00                	add    %al,(%eax)
    113d:	04 06                	add    $0x6,%al
    113f:	0d 02 30 9f 04       	or     $0x49f3002,%eax
    1144:	0d 18 01 50 00       	or     $0x500118,%eax

Disassembly of section .debug_aranges:

00000000 <.debug_aranges>:
   0:	1c 00                	sbb    $0x0,%al
   2:	00 00                	add    %al,(%eax)
   4:	02 00                	add    (%eax),%al
   6:	00 00                	add    %al,(%eax)
   8:	00 00                	add    %al,(%eax)
   a:	04 00                	add    $0x0,%al
   c:	00 00                	add    %al,(%eax)
   e:	00 00                	add    %al,(%eax)
  10:	57                   	push   %edi
  11:	00 10                	add    %dl,(%eax)
  13:	00 b7 01 00 00 00    	add    %dh,0x1(%edi)
  19:	00 00                	add    %al,(%eax)
  1b:	00 00                	add    %al,(%eax)
  1d:	00 00                	add    %al,(%eax)
  1f:	00 1c 00             	add    %bl,(%eax,%eax,1)
  22:	00 00                	add    %al,(%eax)
  24:	02 00                	add    (%eax),%al
  26:	af                   	scas   %es:(%edi),%eax
  27:	05 00 00 04 00       	add    $0x40000,%eax
  2c:	00 00                	add    %al,(%eax)
  2e:	00 00                	add    %al,(%eax)
  30:	8d 6b 10             	lea    0x10(%ebx),%ebp
  33:	c0 9c 01 00 00 00 00 	rcrb   $0x0,0x0(%ecx,%eax,1)
  3a:	00 
  3b:	00 00                	add    %al,(%eax)
  3d:	00 00                	add    %al,(%eax)
  3f:	00 1c 00             	add    %bl,(%eax,%eax,1)
  42:	00 00                	add    %al,(%eax)
  44:	02 00                	add    (%eax),%al
  46:	d5 0a                	aad    $0xa
  48:	00 00                	add    %al,(%eax)
  4a:	04 00                	add    $0x0,%al
  4c:	00 00                	add    %al,(%eax)
  4e:	00 00                	add    %al,(%eax)
  50:	00 60 10             	add    %ah,0x10(%eax)
  53:	c0 dc 00             	rcr    $0x0,%ah
	...
  5e:	00 00                	add    %al,(%eax)
  60:	1c 00                	sbb    $0x0,%al
  62:	00 00                	add    %al,(%eax)
  64:	02 00                	add    (%eax),%al
  66:	1b 0c 00             	sbb    (%eax,%eax,1),%ecx
  69:	00 04 00             	add    %al,(%eax,%eax,1)
  6c:	00 00                	add    %al,(%eax)
  6e:	00 00                	add    %al,(%eax)
  70:	dc 60 10             	fsubl  0x10(%eax)
  73:	c0 7f 00 00          	sarb   $0x0,0x0(%edi)
	...
  7f:	00 1c 00             	add    %bl,(%eax,%eax,1)
  82:	00 00                	add    %al,(%eax)
  84:	02 00                	add    (%eax),%al
  86:	9c                   	pushf  
  87:	0d 00 00 04 00       	or     $0x40000,%eax
  8c:	00 00                	add    %al,(%eax)
  8e:	00 00                	add    %al,(%eax)
  90:	78 61                	js     f3 <start_-0xfff19>
  92:	10 c0                	adc    %al,%al
  94:	3e 00 00             	add    %al,%ds:(%eax)
	...
  9f:	00 1c 00             	add    %bl,(%eax,%eax,1)
  a2:	00 00                	add    %al,(%eax)
  a4:	02 00                	add    (%eax),%al
  a6:	92                   	xchg   %eax,%edx
  a7:	0e                   	push   %cs
  a8:	00 00                	add    %al,(%eax)
  aa:	04 00                	add    $0x0,%al
  ac:	00 00                	add    %al,(%eax)
  ae:	00 00                	add    %al,(%eax)
  b0:	26 62 10             	bound  %edx,%es:(%eax)
  b3:	c0 b2 02 00 00 00 00 	shlb   $0x0,0x2(%edx)
  ba:	00 00                	add    %al,(%eax)
  bc:	00 00                	add    %al,(%eax)
  be:	00 00                	add    %al,(%eax)
  c0:	1c 00                	sbb    $0x0,%al
  c2:	00 00                	add    %al,(%eax)
  c4:	02 00                	add    (%eax),%al
  c6:	39 16                	cmp    %edx,(%esi)
  c8:	00 00                	add    %al,(%eax)
  ca:	04 00                	add    $0x0,%al
  cc:	00 00                	add    %al,(%eax)
  ce:	00 00                	add    %al,(%eax)
  d0:	d8 64 10 c0          	fsubs  -0x40(%eax,%edx,1)
  d4:	b9 02 00 00 00       	mov    $0x2,%ecx
  d9:	00 00                	add    %al,(%eax)
  db:	00 00                	add    %al,(%eax)
  dd:	00 00                	add    %al,(%eax)
  df:	00 1c 00             	add    %bl,(%eax,%eax,1)
  e2:	00 00                	add    %al,(%eax)
  e4:	02 00                	add    (%eax),%al
  e6:	09 1a                	or     %ebx,(%edx)
  e8:	00 00                	add    %al,(%eax)
  ea:	04 00                	add    $0x0,%al
  ec:	00 00                	add    %al,(%eax)
  ee:	00 00                	add    %al,(%eax)
  f0:	91                   	xchg   %eax,%ecx
  f1:	67 10 c0             	addr16 adc %al,%al
  f4:	75 02                	jne    f8 <start_-0xfff14>
	...
  fe:	00 00                	add    %al,(%eax)
 100:	1c 00                	sbb    $0x0,%al
 102:	00 00                	add    %al,(%eax)
 104:	02 00                	add    (%eax),%al
 106:	98                   	cwtl   
 107:	1e                   	push   %ds
 108:	00 00                	add    %al,(%eax)
 10a:	04 00                	add    $0x0,%al
 10c:	00 00                	add    %al,(%eax)
 10e:	00 00                	add    %al,(%eax)
 110:	06                   	push   %es
 111:	6a 10                	push   $0x10
 113:	c0 87 01 00 00 00 00 	rolb   $0x0,0x1(%edi)
 11a:	00 00                	add    %al,(%eax)
 11c:	00 00                	add    %al,(%eax)
 11e:	00 00                	add    %al,(%eax)
 120:	1c 00                	sbb    $0x0,%al
 122:	00 00                	add    %al,(%eax)
 124:	02 00                	add    (%eax),%al
 126:	15 21 00 00 04       	adc    $0x4000021,%eax
 12b:	00 00                	add    %al,(%eax)
 12d:	00 00                	add    %al,(%eax)
 12f:	00 29                	add    %ch,(%ecx)
 131:	6d                   	insl   (%dx),%es:(%edi)
 132:	10 c0                	adc    %al,%al
 134:	2d 00 00 00 00       	sub    $0x0,%eax
 139:	00 00                	add    %al,(%eax)
 13b:	00 00                	add    %al,(%eax)
 13d:	00 00                	add    %al,(%eax)
 13f:	00 1c 00             	add    %bl,(%eax,%eax,1)
 142:	00 00                	add    %al,(%eax)
 144:	02 00                	add    (%eax),%al
 146:	1c 22                	sbb    $0x22,%al
 148:	00 00                	add    %al,(%eax)
 14a:	04 00                	add    $0x0,%al
 14c:	00 00                	add    %al,(%eax)
 14e:	00 00                	add    %al,(%eax)
 150:	56                   	push   %esi
 151:	6d                   	insl   (%dx),%es:(%edi)
 152:	10 c0                	adc    %al,%al
 154:	e9 01 00 00 00       	jmp    15a <start_-0xffeb2>
 159:	00 00                	add    %al,(%eax)
 15b:	00 00                	add    %al,(%eax)
 15d:	00 00                	add    %al,(%eax)
 15f:	00 1c 00             	add    %bl,(%eax,%eax,1)
 162:	00 00                	add    %al,(%eax)
 164:	02 00                	add    (%eax),%al
 166:	39 25 00 00 04 00    	cmp    %esp,0x40000
 16c:	00 00                	add    %al,(%eax)
 16e:	00 00                	add    %al,(%eax)
 170:	3f                   	aas    
 171:	6f                   	outsl  %ds:(%esi),(%dx)
 172:	10 c0                	adc    %al,%al
 174:	e6 00                	out    %al,$0x0
	...
 17e:	00 00                	add    %al,(%eax)
 180:	1c 00                	sbb    $0x0,%al
 182:	00 00                	add    %al,(%eax)
 184:	02 00                	add    (%eax),%al
 186:	35 27 00 00 04       	xor    $0x4000027,%eax
 18b:	00 00                	add    %al,(%eax)
 18d:	00 00                	add    %al,(%eax)
 18f:	00 25 70 10 c0 c0    	add    %ah,0xc0c01070
	...
 19d:	00 00                	add    %al,(%eax)
 19f:	00 1c 00             	add    %bl,(%eax,%eax,1)
 1a2:	00 00                	add    %al,(%eax)
 1a4:	02 00                	add    (%eax),%al
 1a6:	42                   	inc    %edx
 1a7:	2a 00                	sub    (%eax),%al
 1a9:	00 04 00             	add    %al,(%eax,%eax,1)
 1ac:	00 00                	add    %al,(%eax)
 1ae:	00 00                	add    %al,(%eax)
 1b0:	e5 70                	in     $0x70,%eax
 1b2:	10 c0                	adc    %al,%al
 1b4:	2a 00                	sub    (%eax),%al
	...
 1be:	00 00                	add    %al,(%eax)
 1c0:	1c 00                	sbb    $0x0,%al
 1c2:	00 00                	add    %al,(%eax)
 1c4:	02 00                	add    (%eax),%al
 1c6:	00 2b                	add    %ch,(%ebx)
 1c8:	00 00                	add    %al,(%eax)
 1ca:	04 00                	add    $0x0,%al
 1cc:	00 00                	add    %al,(%eax)
 1ce:	00 00                	add    %al,(%eax)
 1d0:	0f 71                	(bad)  
 1d2:	10 c0                	adc    %al,%al
 1d4:	18 00                	sbb    %al,(%eax)
	...

Disassembly of section .debug_line:

00000000 <.debug_line>:
       0:	39 02                	cmp    %eax,(%edx)
       2:	00 00                	add    %al,(%eax)
       4:	05 00 04 00 49       	add    $0x49000400,%eax
       9:	00 00                	add    %al,(%eax)
       b:	00 01                	add    %al,(%ecx)
       d:	01 01                	add    %eax,(%ecx)
       f:	fb                   	sti    
      10:	0e                   	push   %cs
      11:	0d 00 01 01 01       	or     $0x1010100,%eax
      16:	01 00                	add    %eax,(%eax)
      18:	00 00                	add    %al,(%eax)
      1a:	01 00                	add    %eax,(%eax)
      1c:	00 01                	add    %al,(%ecx)
      1e:	01 01                	add    %eax,(%ecx)
      20:	1f                   	pop    %ds
      21:	05 00 00 00 00       	add    $0x0,%eax
      26:	45                   	inc    %ebp
      27:	01 00                	add    %eax,(%eax)
      29:	00 52 00             	add    %dl,0x0(%edx)
      2c:	00 00                	add    %al,(%eax)
      2e:	69 00 00 00 a8 00    	imul   $0xa80000,(%eax),%eax
      34:	00 00                	add    %al,(%eax)
      36:	02 01                	add    (%ecx),%al
      38:	1f                   	pop    %ds
      39:	02 0f                	add    (%edi),%cl
      3b:	05 43 00 00 00       	add    $0x43,%eax
      40:	00 4c 00 00          	add    %cl,0x0(%eax,%eax,1)
      44:	00 01                	add    %al,(%ecx)
      46:	be 00 00 00 02       	mov    $0x2000000,%esi
      4b:	ca 00 00             	lret   $0x0
      4e:	00 03                	add    %al,(%ebx)
      50:	d7                   	xlat   %ds:(%ebx)
      51:	00 00                	add    %al,(%eax)
      53:	00 04 05 18 00 05 02 	add    %al,0x2050018(,%eax,1)
      5a:	57                   	push   %edi
      5b:	00 10                	add    %dl,(%eax)
      5d:	00 03                	add    %al,(%ebx)
      5f:	1e                   	push   %ds
      60:	01 06                	add    %eax,(%esi)
      62:	01 05 05 06 bb 08    	add    %eax,0x8bb0605
      68:	15 05 0a 01 05       	adc    $0x5010a05,%eax
      6d:	13 06                	adc    (%esi),%eax
      6f:	01 05 05 58 05 09    	add    %eax,0x9055805
      75:	00 02                	add    %al,(%edx)
      77:	04 03                	add    $0x3,%al
      79:	06                   	push   %es
      7a:	30 05 24 00 02 04    	xor    %al,0x4020024
      80:	03 e2                	add    %edx,%esp
      82:	05 1c 00 02 04       	add    $0x402001c,%eax
      87:	01 3c 05 13 06 89 05 	add    %edi,0x5890613(,%eax,1)
      8e:	09 00                	or     %eax,(%eax)
      90:	02 04 03             	add    (%ebx,%eax,1),%al
      93:	06                   	push   %es
      94:	76 05                	jbe    9b <start_-0xfff71>
      96:	2f                   	das    
      97:	00 02                	add    %al,(%edx)
      99:	04 03                	add    $0x3,%al
      9b:	08 48 05             	or     %cl,0x5(%eax)
      9e:	1c 00                	sbb    $0x0,%al
      a0:	02 04 01             	add    (%ecx,%eax,1),%al
      a3:	3c 05                	cmp    $0x5,%al
      a5:	1e                   	push   %ds
      a6:	00 02                	add    %al,(%edx)
      a8:	04 01                	add    $0x1,%al
      aa:	06                   	push   %es
      ab:	01 05 1c 00 02 04    	add    %eax,0x402001c
      b1:	01 82 05 05 06 52    	add    %eax,0x52060505(%edx)
      b7:	05 21 06 01 05       	add    $0x5010621,%eax
      bc:	0e                   	push   %cs
      bd:	58                   	pop    %eax
      be:	05 05 06 83 05       	add    $0x5830605,%eax
      c3:	21 06                	and    %eax,(%esi)
      c5:	01 05 0e 3c 05 05    	add    %eax,0x5053c0e
      cb:	06                   	push   %es
      cc:	67 05 21 06 01 58    	addr16 add $0x58010621,%eax
      d2:	05 0e 66 05 32       	add    $0x3205660e,%eax
      d7:	06                   	push   %es
      d8:	3c 05                	cmp    $0x5,%al
      da:	05 17 05 0a 01       	add    $0x10a0517,%eax
      df:	05 13 06 01 05       	add    $0x5010613,%eax
      e4:	05 58 05 09 00       	add    $0x90558,%eax
      e9:	02 04 03             	add    (%ebx,%eax,1),%al
      ec:	06                   	push   %es
      ed:	30 05 41 00 02 04    	xor    %al,0x4020041
      f3:	03 08                	add    (%eax),%ecx
      f5:	80 05 1c 00 02 04 01 	addb   $0x1,0x402001c
      fc:	3c 05                	cmp    $0x5,%al
      fe:	05 03 0a 58 05       	add    $0x5580a03,%eax
     103:	08 06                	or     %al,(%esi)
     105:	01 05 09 00 02 04    	add    %eax,0x4020009
     10b:	01 06                	add    %eax,(%esi)
     10d:	85 05 0f 00 02 04    	test   %eax,0x402000f
     113:	01 01                	add    %eax,(%ecx)
     115:	05 05 32 15 05       	add    $0x5153205,%eax
     11a:	0a 01                	or     (%ecx),%al
     11c:	05 13 06 01 05       	add    $0x5010613,%eax
     121:	05 58 05 09 00       	add    $0x90558,%eax
     126:	02 04 03             	add    (%ebx,%eax,1),%al
     129:	06                   	push   %es
     12a:	30 05 31 00 02 04    	xor    %al,0x4020031
     130:	03 08                	add    (%eax),%ecx
     132:	c6 05 1c 00 02 04 01 	movb   $0x1,0x402001c
     139:	3c 05                	cmp    $0x5,%al
     13b:	05 03 0b 4a 05       	add    $0x54a0b03,%eax
     140:	06                   	push   %es
     141:	08 16                	or     %dl,(%esi)
     143:	05 01 06 13 4a       	add    $0x4a130601,%eax
     148:	20 05 50 06 3e 06    	and    %al,0x63e0650
     14e:	01 05 05 06 d7 13    	add    %eax,0x13d70605
     154:	05 12 06 11 05       	add    $0x5110612,%eax
     159:	05 59 05 09 00       	add    $0x90559,%eax
     15e:	02 04 02             	add    (%edx,%eax,1),%al
     161:	06                   	push   %es
     162:	30 05 1e 00 02 04    	xor    %al,0x402001e
     168:	02 06                	add    (%esi),%al
     16a:	01 05 1c 00 02 04    	add    %eax,0x402001c
     170:	02 4a 05             	add    0x5(%edx),%cl
     173:	17                   	pop    %ss
     174:	00 02                	add    %al,(%edx)
     176:	04 02                	add    $0x2,%al
     178:	06                   	push   %es
     179:	3a 05 0e 00 02 04    	cmp    0x402000e,%al
     17f:	01 3c 05 05 4e 05 01 	add    %edi,0x1054e05(,%eax,1)
     186:	06                   	push   %es
     187:	13 20                	adc    (%eax),%esp
     189:	20 05 44 06 31 06    	and    %al,0x6310644
     18f:	01 05 05 06 e5 13    	add    %eax,0x13e50605
     195:	13 05 0e 06 10 05    	adc    0x510060e,%eax
     19b:	05 5a 05 09 00       	add    $0x9055a,%eax
     1a0:	02 04 02             	add    (%edx,%eax,1),%al
     1a3:	06                   	push   %es
     1a4:	30 05 24 00 02 04    	xor    %al,0x4020024
     1aa:	02 06                	add    (%esi),%al
     1ac:	01 05 22 00 02 04    	add    %eax,0x4020022
     1b2:	02 4a 05             	add    0x5(%edx),%cl
     1b5:	37                   	aaa    
     1b6:	00 02                	add    %al,(%edx)
     1b8:	04 02                	add    $0x2,%al
     1ba:	06                   	push   %es
     1bb:	3a 05 14 00 02 04    	cmp    0x4020014,%al
     1c1:	01 3c 05 05 5d 05 4b 	add    %edi,0x4b055d05(,%eax,1)
     1c8:	06                   	push   %es
     1c9:	01 05 32 3c 05 05    	add    %eax,0x5053c32
     1cf:	06                   	push   %es
     1d0:	3d 05 10 06 01       	cmp    $0x1061005,%eax
     1d5:	05 0d e4 05 05       	add    $0x505e40d,%eax
     1da:	06                   	push   %es
     1db:	30 05 08 06 01 05    	xor    %al,0x5010608
     1e1:	01 86 58 2e 05 09    	add    %eax,0x9052e58(%esi)
     1e7:	06                   	push   %es
     1e8:	1d 05 51 06 01       	sbb    $0x1065105,%eax
     1ed:	05 38 3c 05 09       	add    $0x9053c38,%eax
     1f2:	06                   	push   %es
     1f3:	3d 05 14 06 01       	cmp    $0x1061405,%eax
     1f8:	e4 05                	in     $0x5,%al
     1fa:	01 3e                	add    %edi,(%esi)
     1fc:	05 2a 06 31 06       	add    $0x631062a,%eax
     201:	01 05 05 06 94 13    	add    %eax,0x13940605
     207:	05 0a 01 05 13       	add    $0x1305010a,%eax
     20c:	06                   	push   %es
     20d:	01 05 05 58 05 09    	add    %eax,0x9055805
     213:	00 02                	add    %al,(%edx)
     215:	04 03                	add    $0x3,%al
     217:	06                   	push   %es
     218:	30 05 14 00 02 04    	xor    %al,0x4020014
     21e:	03 06                	add    (%esi),%eax
     220:	01 05 29 00 02 04    	add    %eax,0x4020029
     226:	03 06                	add    (%esi),%eax
     228:	48                   	dec    %eax
     229:	05 1c 00 02 04       	add    $0x402001c,%eax
     22e:	01 3c 05 05 4f 05 01 	add    %edi,0x1054f05(,%eax,1)
     235:	06                   	push   %es
     236:	67 4a                	addr16 dec %edx
     238:	02 01                	add    (%ecx),%al
     23a:	00 01                	add    %al,(%ecx)
     23c:	01 77 02             	add    %esi,0x2(%edi)
     23f:	00 00                	add    %al,(%eax)
     241:	05 00 04 00 45       	add    $0x45000400,%eax
     246:	00 00                	add    %al,(%eax)
     248:	00 01                	add    %al,(%ecx)
     24a:	01 01                	add    %eax,(%ecx)
     24c:	fb                   	sti    
     24d:	0e                   	push   %cs
     24e:	0d 00 01 01 01       	or     $0x1010100,%eax
     253:	01 00                	add    %eax,(%eax)
     255:	00 00                	add    %al,(%eax)
     257:	01 00                	add    %eax,(%eax)
     259:	00 01                	add    %al,(%ecx)
     25b:	01 01                	add    %eax,(%ecx)
     25d:	1f                   	pop    %ds
     25e:	04 00                	add    $0x0,%al
     260:	00 00                	add    %al,(%eax)
     262:	00 f1                	add    %dh,%cl
     264:	00 00                	add    %al,(%eax)
     266:	00 69 00             	add    %ch,0x0(%ecx)
     269:	00 00                	add    %al,(%eax)
     26b:	e8 00 00 00 02       	call   2000270 <__init_hhk_end+0x1efa270>
     270:	01 1f                	add    %ebx,(%edi)
     272:	02 0f                	add    (%edi),%cl
     274:	05 de 00 00 00       	add    $0xde,%eax
     279:	00 e2                	add    %ah,%dl
     27b:	00 00                	add    %al,(%eax)
     27d:	00 01                	add    %al,(%ecx)
     27f:	f5                   	cmc    
     280:	00 00                	add    %al,(%eax)
     282:	00 02                	add    %al,(%edx)
     284:	fd                   	std    
     285:	00 00                	add    %al,(%eax)
     287:	00 03                	add    %al,(%ebx)
     289:	ca 00 00             	lret   $0x0
     28c:	00 02                	add    %al,(%edx)
     28e:	05 25 00 05 02       	add    $0x2050025,%eax
     293:	8d 6b 10             	lea    0x10(%ebx),%ebp
     296:	c0 16 06             	rclb   $0x6,(%esi)
     299:	01 05 05 06 83 13    	add    %eax,0x13830605
     29f:	14 04                	adc    $0x4,%al
     2a1:	02 05 01 03 a5 02    	add    0x2a50301,%al
     2a7:	01 05 03 16 13 05    	add    %eax,0x5131603
     2ad:	01 03                	add    %eax,(%ebx)
     2af:	44                   	inc    %esp
     2b0:	01 05 03 14 17 03    	add    %eax,0x3171403
     2b6:	1d e4 05 10 06       	sbb    $0x61005e4,%eax
     2bb:	01 05 06 2e 05 03    	add    %eax,0x3052e06
     2c1:	06                   	push   %es
     2c2:	79 01                	jns    2c5 <start_-0xffd47>
     2c4:	01 74 14 06          	add    %esi,0x6(%esp,%edx,1)
     2c8:	01 06                	add    %eax,(%esi)
     2ca:	03 13                	add    (%ebx),%edx
     2cc:	01 05 06 06 01 05    	add    %eax,0x5010606
     2d2:	03 06                	add    (%esi),%eax
     2d4:	4d                   	dec    %ebp
     2d5:	01 01                	add    %eax,(%ecx)
     2d7:	06                   	push   %es
     2d8:	58                   	pop    %eax
     2d9:	2e 2e 04 01          	cs cs add $0x1,%al
     2dd:	05 26 03 cf 7d       	add    $0x7dcf0326,%eax
     2e2:	01 05 1d 58 05 14    	add    %eax,0x1405581d
     2e8:	58                   	pop    %eax
     2e9:	05 05 06 5c 05       	add    $0x55c0605,%eax
     2ee:	0c 06                	or     $0x6,%al
     2f0:	01 05 05 06 2f 05    	add    %eax,0x52f0605
     2f6:	0c 06                	or     $0x6,%al
     2f8:	01 05 05 06 3d 05    	add    %eax,0x53d0605
     2fe:	0c 06                	or     $0x6,%al
     300:	01 05 05 06 3d 05    	add    %eax,0x53d0605
     306:	13 06                	adc    (%esi),%eax
     308:	01 05 01 4b 05 22    	add    %eax,0x22054b01
     30e:	06                   	push   %es
     30f:	4e                   	dec    %esi
     310:	05 05 13 04 02       	add    $0x2041305,%eax
     315:	05 01 03 e3 01       	add    $0x1e30301,%eax
     31a:	01 05 03 14 17 03    	add    %eax,0x3171403
     320:	1d e4 05 10 06       	sbb    $0x61005e4,%eax
     325:	01 05 06 2e 04 01    	add    %eax,0x1042e06
     32b:	05 22 03 f8 7d       	add    $0x7df80322,%eax
     330:	74 04                	je     336 <start_-0xffcd6>
     332:	02 05 03 06 03 8d    	add    0x8d030603,%al
     338:	02 4a 01             	add    0x1(%edx),%cl
     33b:	01 74 14 06          	add    %esi,0x6(%esp,%edx,1)
     33f:	01 04 01             	add    %eax,(%ecx,%eax,1)
     342:	05 05 06 03 f3       	add    $0xf3030605,%eax
     347:	7d 01                	jge    34a <start_-0xffcc2>
     349:	05 17 06 01 82       	add    $0x82010617,%eax
     34e:	05 01 3d 05 05       	add    $0x5053d01,%eax
     353:	06                   	push   %es
     354:	57                   	push   %edi
     355:	05 17 06 01 82       	add    $0x82010617,%eax
     35a:	05 01 3d 05 25       	add    $0x25053d01,%eax
     35f:	06                   	push   %es
     360:	22 06                	and    (%esi),%al
     362:	01 05 05 06 bb 05    	add    %eax,0x5bb0605
     368:	09 06                	or     %eax,(%esi)
     36a:	01 05 07 58 05 09    	add    %eax,0x9055807
     370:	06                   	push   %es
     371:	4b                   	dec    %ebx
     372:	05 16 06 01 05       	add    $0x5010616,%eax
     377:	09 06                	or     %eax,(%esi)
     379:	3d 05 16 06 01       	cmp    $0x1061605,%eax
     37e:	05 05 06 4c 13       	add    $0x134c0605,%eax
     383:	13 05 0a 01 06 01    	adc    0x106010a,%eax
     389:	05 26 11 05 1d       	add    $0x1d051126,%eax
     38e:	74 05                	je     395 <start_-0xffc77>
     390:	14 74                	adc    $0x74,%al
     392:	05 0b 74 05 1a       	add    $0x1a05740b,%eax
     397:	75 05                	jne    39e <start_-0xffc6e>
     399:	13 58 05             	adc    0x5(%eax),%ebx
     39c:	05 74 05 09 06       	add    $0x6090574,%eax
     3a1:	31 05 10 06 01 05    	xor    %eax,0x5010610
     3a7:	09 06                	or     %eax,(%esi)
     3a9:	67 05 14 06 01 05    	addr16 add $0x5010614,%eax
     3af:	09 06                	or     %eax,(%esi)
     3b1:	75 05                	jne    3b8 <start_-0xffc54>
     3b3:	14 06                	adc    $0x6,%al
     3b5:	01 05 09 06 75 05    	add    %eax,0x5750609
     3bb:	14 06                	adc    $0x6,%al
     3bd:	01 05 09 06 75 05    	add    %eax,0x5750609
     3c3:	0a 06                	or     (%esi),%al
     3c5:	01 05 29 06 03 79    	add    %eax,0x79030629
     3cb:	3c 05                	cmp    $0x5,%al
     3cd:	23 00                	and    (%eax),%eax
     3cf:	02 04 01             	add    (%ecx,%eax,1),%al
     3d2:	4a                   	dec    %edx
     3d3:	05 09 00 02 04       	add    $0x4020009,%eax
     3d8:	03 68 05             	add    0x5(%eax),%ebp
     3db:	20 00                	and    %al,(%eax)
     3dd:	02 04 03             	add    (%ebx,%eax,1),%al
     3e0:	06                   	push   %es
     3e1:	01 04 02             	add    %eax,(%edx,%eax,1)
     3e4:	05 01 00 02 04       	add    $0x4020001,%eax
     3e9:	03 06                	add    (%esi),%eax
     3eb:	03 8d 02 ac 05 03    	add    0x305ac02(%ebp),%ecx
     3f1:	00 02                	add    %al,(%edx)
     3f3:	04 03                	add    $0x3,%al
     3f5:	16                   	push   %ss
     3f6:	05 10 00 02 04       	add    $0x4020010,%eax
     3fb:	03 06                	add    (%esi),%eax
     3fd:	01 05 03 00 02 04    	add    %eax,0x4020003
     403:	03 06                	add    (%esi),%eax
     405:	83 05 01 00 02 04 03 	addl   $0x3,0x4020001
     40c:	03 44 01 05          	add    0x5(%ecx,%eax,1),%eax
     410:	03 00                	add    (%eax),%eax
     412:	02 04 03             	add    (%ebx,%eax,1),%al
     415:	14 00                	adc    $0x0,%al
     417:	02 04 03             	add    (%ebx,%eax,1),%al
     41a:	17                   	pop    %ss
     41b:	00 02                	add    %al,(%edx)
     41d:	04 03                	add    $0x3,%al
     41f:	03 1d e4 05 10 00    	add    0x1005e4,%ebx
     425:	02 04 03             	add    (%ebx,%eax,1),%al
     428:	06                   	push   %es
     429:	01 05 06 00 02 04    	add    %eax,0x4020006
     42f:	03 2e                	add    (%esi),%ebp
     431:	05 03 06 79 01       	add    $0x1790603,%eax
     436:	01 06                	add    %eax,(%esi)
     438:	90                   	nop
     439:	06                   	push   %es
     43a:	2e 14 06             	cs adc $0x6,%al
     43d:	01 06                	add    %eax,(%esi)
     43f:	03 13                	add    (%ebx),%edx
     441:	01 05 12 06 01 05    	add    %eax,0x5010612
     447:	25 58 05 06 82       	and    $0x82060558,%eax
     44c:	05 03 06 4d 01       	add    $0x14d0603,%eax
     451:	01 06                	add    %eax,(%esi)
     453:	ac                   	lods   %ds:(%esi),%al
     454:	90                   	nop
     455:	82 04 01 05          	addb   $0x5,(%ecx,%eax,1)
     459:	05 06 03 f0 7d       	add    $0x7df00306,%eax
     45e:	01 05 13 06 01 05    	add    %eax,0x5010613
     464:	01 4b 58             	add    %ecx,0x58(%ebx)
     467:	20 05 13 06 32 05    	and    %al,0x5320613
     46d:	05 13 05 01 06       	add    $0x6010513,%eax
     472:	3d 05 13 06 22       	cmp    $0x22061305,%eax
     477:	05 05 13 05 01       	add    $0x1051305,%eax
     47c:	06                   	push   %es
     47d:	3d 05 13 06 22       	cmp    $0x22061305,%eax
     482:	05 05 13 05 01       	add    $0x1051305,%eax
     487:	06                   	push   %es
     488:	3d 05 19 06 23       	cmp    $0x23061905,%eax
     48d:	06                   	push   %es
     48e:	01 05 05 06 3d 05    	add    %eax,0x53d0605
     494:	01 06                	add    %eax,(%esi)
     496:	6a 05                	push   $0x5
     498:	19 06                	sbb    %eax,(%esi)
     49a:	30 06                	xor    %al,(%esi)
     49c:	01 05 05 06 3d 05    	add    %eax,0x53d0605
     4a2:	01 06                	add    %eax,(%esi)
     4a4:	6a 05                	push   $0x5
     4a6:	19 06                	sbb    %eax,(%esi)
     4a8:	30 06                	xor    %al,(%esi)
     4aa:	01 05 05 06 3d 05    	add    %eax,0x53d0605
     4b0:	01 06                	add    %eax,(%esi)
     4b2:	6a 02                	push   $0x2
     4b4:	02 00                	add    (%eax),%al
     4b6:	01 01                	add    %eax,(%ecx)
     4b8:	9b                   	fwait
     4b9:	00 00                	add    %al,(%eax)
     4bb:	00 05 00 04 00 37    	add    %al,0x37000400
     4c1:	00 00                	add    %al,(%eax)
     4c3:	00 01                	add    %al,(%ecx)
     4c5:	01 01                	add    %eax,(%ecx)
     4c7:	fb                   	sti    
     4c8:	0e                   	push   %cs
     4c9:	0d 00 01 01 01       	or     $0x1010100,%eax
     4ce:	01 00                	add    %eax,(%eax)
     4d0:	00 00                	add    %al,(%eax)
     4d2:	01 00                	add    %eax,(%eax)
     4d4:	00 01                	add    %al,(%ecx)
     4d6:	01 01                	add    %eax,(%ecx)
     4d8:	1f                   	pop    %ds
     4d9:	03 00                	add    (%eax),%eax
     4db:	00 00                	add    %al,(%eax)
     4dd:	00 18                	add    %bl,(%eax)
     4df:	01 00                	add    %eax,(%eax)
     4e1:	00 69 00             	add    %ch,0x0(%ecx)
     4e4:	00 00                	add    %al,(%eax)
     4e6:	02 01                	add    (%ecx),%al
     4e8:	1f                   	pop    %ds
     4e9:	02 0f                	add    (%edi),%cl
     4eb:	03 03                	add    (%ebx),%eax
     4ed:	01 00                	add    %eax,(%eax)
     4ef:	00 00                	add    %al,(%eax)
     4f1:	12 01                	adc    (%ecx),%al
     4f3:	00 00                	add    %al,(%eax)
     4f5:	01 ca                	add    %ecx,%edx
     4f7:	00 00                	add    %al,(%eax)
     4f9:	00 02                	add    %al,(%edx)
     4fb:	05 54 00 05 02       	add    $0x2050054,%eax
     500:	00 60 10             	add    %ah,0x10(%eax)
     503:	c0 1a 06             	rcrb   $0x6,(%edx)
     506:	01 05 05 06 e5 05    	add    %eax,0x5e50605
     50c:	13 06                	adc    (%esi),%eax
     50e:	01 05 24 74 05 2e    	add    %eax,0x2e057424
     514:	3c 05                	cmp    $0x5,%al
     516:	2c 82                	sub    $0x82,%al
     518:	05 41 4a 05 3f       	add    $0x3f054a41,%eax
     51d:	9e                   	sahf   
     51e:	05 11 4a 05 05       	add    $0x5054a11,%eax
     523:	06                   	push   %es
     524:	08 21                	or     %ah,(%ecx)
     526:	05 11 06 01 05       	add    $0x5010611,%eax
     52b:	05 06 08 21 05       	add    $0x5210806,%eax
     530:	14 06                	adc    $0x6,%al
     532:	01 05 27 3c 05 25    	add    %eax,0x25053c27
     538:	3c 05                	cmp    $0x5,%al
     53a:	11 2e                	adc    %ebp,(%esi)
     53c:	05 01 d7 05 0d       	add    $0xd05d701,%eax
     541:	06                   	push   %es
     542:	5c                   	pop    %esp
     543:	05 05 67 c9 08       	add    $0x8c96705,%eax
     548:	2f                   	das    
     549:	08 59 08             	or     %bl,0x8(%ecx)
     54c:	2f                   	das    
     54d:	05 01 06 08 59       	add    $0x59080601,%eax
     552:	02 05 00 01 01 97    	add    0x97010100,%al
     558:	00 00                	add    %al,(%eax)
     55a:	00 05 00 04 00 40    	add    %al,0x40000400
     560:	00 00                	add    %al,(%eax)
     562:	00 01                	add    %al,(%ecx)
     564:	01 01                	add    %eax,(%ecx)
     566:	fb                   	sti    
     567:	0e                   	push   %cs
     568:	0d 00 01 01 01       	or     $0x1010100,%eax
     56d:	01 00                	add    %eax,(%eax)
     56f:	00 00                	add    %al,(%eax)
     571:	01 00                	add    %eax,(%eax)
     573:	00 01                	add    %al,(%ecx)
     575:	01 01                	add    %eax,(%ecx)
     577:	1f                   	pop    %ds
     578:	04 00                	add    $0x0,%al
     57a:	00 00                	add    %al,(%eax)
     57c:	00 18                	add    %bl,(%eax)
     57e:	01 00                	add    %eax,(%eax)
     580:	00 69 00             	add    %ch,0x0(%ecx)
     583:	00 00                	add    %al,(%eax)
     585:	3c 01                	cmp    $0x1,%al
     587:	00 00                	add    %al,(%eax)
     589:	02 01                	add    (%ecx),%al
     58b:	1f                   	pop    %ds
     58c:	02 0f                	add    (%edi),%cl
     58e:	04 27                	add    $0x27,%al
     590:	01 00                	add    %eax,(%eax)
     592:	00 00                	add    %al,(%eax)
     594:	36 01 00             	add    %eax,%ss:(%eax)
     597:	00 01                	add    %al,(%ecx)
     599:	ca 00 00             	lret   $0x0
     59c:	00 02                	add    %al,(%edx)
     59e:	4e                   	dec    %esi
     59f:	01 00                	add    %eax,(%eax)
     5a1:	00 03                	add    %al,(%ebx)
     5a3:	05 59 00 05 02       	add    $0x2050059,%eax
     5a8:	dc 60 10             	fsubl  0x10(%eax)
     5ab:	c0 03 0a             	rolb   $0xa,(%ebx)
     5ae:	01 06                	add    %eax,(%esi)
     5b0:	01 05 05 06 9f 13    	add    %eax,0x139f0605
     5b6:	05 1c 06 01 05       	add    $0x501061c,%eax
     5bb:	2c 66                	sub    $0x66,%al
     5bd:	05 2a 74 05 12       	add    $0x1205742a,%eax
     5c2:	9e                   	sahf   
     5c3:	05 05 06 08 21       	add    $0x21080605,%eax
     5c8:	05 12 06 01 05       	add    $0x5010612,%eax
     5cd:	05 06 08 21 05       	add    $0x5210806,%eax
     5d2:	23 06                	and    (%esi),%eax
     5d4:	01 05 34 74 05 2a    	add    %eax,0x2a057434
     5da:	3c 05                	cmp    $0x5,%al
     5dc:	12 2e                	adc    (%esi),%ch
     5de:	05 01 d7 4a 05       	add    $0x54ad701,%eax
     5e3:	0d 06 24 05 05       	or     $0x5052406,%eax
     5e8:	67 05 01 06 f3 02    	addr16 add $0x2f30601,%eax
     5ee:	05 00 01 01 79       	add    $0x79010100,%eax
     5f3:	00 00                	add    %al,(%eax)
     5f5:	00 05 00 04 00 40    	add    %al,0x40000400
     5fb:	00 00                	add    %al,(%eax)
     5fd:	00 01                	add    %al,(%ecx)
     5ff:	01 01                	add    %eax,(%ecx)
     601:	fb                   	sti    
     602:	0e                   	push   %cs
     603:	0d 00 01 01 01       	or     $0x1010100,%eax
     608:	01 00                	add    %eax,(%eax)
     60a:	00 00                	add    %al,(%eax)
     60c:	01 00                	add    %eax,(%eax)
     60e:	00 01                	add    %al,(%ecx)
     610:	01 01                	add    %eax,(%ecx)
     612:	1f                   	pop    %ds
     613:	04 00                	add    $0x0,%al
     615:	00 00                	add    %al,(%eax)
     617:	00 18                	add    %bl,(%eax)
     619:	01 00                	add    %eax,(%eax)
     61b:	00 3c 01             	add    %bh,(%ecx,%eax,1)
     61e:	00 00                	add    %al,(%eax)
     620:	77 01                	ja     623 <start_-0xff9e9>
     622:	00 00                	add    %al,(%eax)
     624:	02 01                	add    (%ecx),%al
     626:	1f                   	pop    %ds
     627:	02 0f                	add    (%edi),%cl
     629:	04 5b                	add    $0x5b,%al
     62b:	01 00                	add    %eax,(%eax)
     62d:	00 00                	add    %al,(%eax)
     62f:	6a 01                	push   $0x1
     631:	00 00                	add    %al,(%eax)
     633:	01 4e 01             	add    %ecx,0x1(%esi)
     636:	00 00                	add    %al,(%eax)
     638:	02 85 01 00 00 03    	add    0x3000001(%ebp),%al
     63e:	05 1e 00 05 02       	add    $0x205001e,%eax
     643:	78 61                	js     6a6 <start_-0xff966>
     645:	10 c0                	adc    %al,%al
     647:	15 06 01 05 05       	adc    $0x5050106,%eax
     64c:	06                   	push   %es
     64d:	91                   	xchg   %eax,%ecx
     64e:	05 01 06 08 21       	add    $0x21080601,%eax
     653:	05 25 06 5b 06       	add    $0x65b0625,%eax
     658:	01 05 05 06 91 05    	add    %eax,0x5910605
     65e:	01 06                	add    %eax,(%esi)
     660:	5e                   	pop    %esi
     661:	05 0d 06 2b 91       	add    $0x912b060d,%eax
     666:	05 01 06 3e 02       	add    $0x23e0601,%eax
     66b:	02 00                	add    (%eax),%al
     66d:	01 01                	add    %eax,(%ecx)
     66f:	33 02                	xor    (%edx),%eax
     671:	00 00                	add    %al,(%eax)
     673:	05 00 04 00 7c       	add    $0x7c000400,%eax
     678:	00 00                	add    %al,(%eax)
     67a:	00 01                	add    %al,(%ecx)
     67c:	01 01                	add    %eax,(%ecx)
     67e:	fb                   	sti    
     67f:	0e                   	push   %cs
     680:	0d 00 01 01 01       	or     $0x1010100,%eax
     685:	01 00                	add    %eax,(%eax)
     687:	00 00                	add    %al,(%eax)
     689:	01 00                	add    %eax,(%eax)
     68b:	00 01                	add    %al,(%ecx)
     68d:	01 01                	add    %eax,(%ecx)
     68f:	1f                   	pop    %ds
     690:	09 00                	or     %eax,(%eax)
     692:	00 00                	add    %al,(%eax)
     694:	00 9d 01 00 00 69    	add    %bl,0x69000001(%ebp)
     69a:	00 00                	add    %al,(%eax)
     69c:	00 a4 01 00 00 a8 00 	add    %ah,0xa80000(%ecx,%eax,1)
     6a3:	00 00                	add    %al,(%eax)
     6a5:	52                   	push   %edx
     6a6:	00 00                	add    %al,(%eax)
     6a8:	00 e8                	add    %ch,%al
     6aa:	00 00                	add    %al,(%eax)
     6ac:	00 77 01             	add    %dh,0x1(%edi)
     6af:	00 00                	add    %al,(%eax)
     6b1:	3c 01                	cmp    $0x1,%al
     6b3:	00 00                	add    %al,(%eax)
     6b5:	02 01                	add    (%ecx),%al
     6b7:	1f                   	pop    %ds
     6b8:	02 0f                	add    (%edi),%cl
     6ba:	0c 8d                	or     $0x8d,%al
     6bc:	01 00                	add    %eax,(%eax)
     6be:	00 00                	add    %al,(%eax)
     6c0:	94                   	xchg   %eax,%esp
     6c1:	01 00                	add    %eax,(%eax)
     6c3:	00 01                	add    %al,(%ecx)
     6c5:	ca 00 00             	lret   $0x0
     6c8:	00 02                	add    %al,(%edx)
     6ca:	bb 01 00 00 03       	mov    $0x3000001,%ebx
     6cf:	d7                   	xlat   %ds:(%ebx)
     6d0:	00 00                	add    %al,(%eax)
     6d2:	00 04 c1             	add    %al,(%ecx,%eax,8)
     6d5:	01 00                	add    %eax,(%eax)
     6d7:	00 02                	add    %al,(%edx)
     6d9:	be 00 00 00 05       	mov    $0x5000000,%esi
     6de:	fd                   	std    
     6df:	00 00                	add    %al,(%eax)
     6e1:	00 06                	add    %al,(%esi)
     6e3:	ca 01 00             	lret   $0x1
     6e6:	00 04 d0             	add    %al,(%eax,%edx,8)
     6e9:	01 00                	add    %eax,(%eax)
     6eb:	00 04 85 01 00 00 07 	add    %al,0x7000001(,%eax,4)
     6f2:	d6                   	(bad)  
     6f3:	01 00                	add    %eax,(%eax)
     6f5:	00 08                	add    %cl,(%eax)
     6f7:	05 01 00 05 02       	add    $0x2050001,%eax
     6fc:	26 62 10             	bound  %edx,%es:(%eax)
     6ff:	c0 03 17             	rolb   $0x17,(%ebx)
     702:	01 06                	add    %eax,(%esi)
     704:	01 05 05 06 bb 5a    	add    %eax,0x5abb0605
     70a:	05 43 06 01 05       	add    $0x5010643,%eax
     70f:	05 06 03 0b 66       	add    $0x660b0306,%eax
     714:	05 2c 06 01 3c       	add    $0x3c01062c,%eax
     719:	05 05 3c 90 06       	add    $0x6903c05,%eax
     71e:	59                   	pop    %ecx
     71f:	5c                   	pop    %esp
     720:	bb bc bb 05 12       	mov    $0x1205bbbc,%ebx
     725:	06                   	push   %es
     726:	01 05 05 06 f4 08    	add    %eax,0x8f40605
     72c:	34 05                	xor    $0x5,%al
     72e:	0a 01                	or     (%ecx),%al
     730:	05 05 06 01 05       	add    $0x5010605,%eax
     735:	17                   	pop    %ss
     736:	3c 05                	cmp    $0x5,%al
     738:	05 58 05 2d 00       	add    $0x2d0558,%eax
     73d:	02 04 02             	add    (%edx,%eax,1),%al
     740:	06                   	push   %es
     741:	2e 05 20 00 02 04    	cs add $0x4020020,%eax
     747:	01 3c 05 09 91 05 2a 	add    %edi,0x2a059109(,%eax,1)
     74e:	06                   	push   %es
     74f:	01 05 20 c8 05 09    	add    %eax,0x905c820
     755:	06                   	push   %es
     756:	02 23                	add    (%ebx),%ah
     758:	13 08                	adc    (%eax),%ecx
     75a:	24 05                	and    $0x5,%al
     75c:	0c 06                	or     $0x6,%al
     75e:	01 05 0d 06 84 05    	add    %eax,0x584060d
     764:	17                   	pop    %ss
     765:	06                   	push   %es
     766:	01 05 0d 06 91 05    	add    %eax,0x591060d
     76c:	3a 06                	cmp    (%esi),%al
     76e:	01 05 0d 66 06 e5    	add    %eax,0xe506660d
     774:	05 1a 06 13 05       	add    $0x513061a,%eax
     779:	0d 3b 90 08 66       	or     $0x6608903b,%eax
     77e:	05 05 06 19 05       	add    $0x5190605,%eax
     783:	31 06                	xor    %eax,(%esi)
     785:	01 05 0c ac 05 05    	add    %eax,0x505ac0c
     78b:	06                   	push   %es
     78c:	3d 08 21 d9 15       	cmp    $0x15d92108,%eax
     791:	e7 05                	out    %eax,$0x5
     793:	0a 01                	or     (%ecx),%al
     795:	05 05 06 01 05       	add    $0x5010605,%eax
     79a:	11 3c 05 1a 00 02 04 	adc    %edi,0x402001a(,%eax,1)
     7a1:	01 06                	add    %eax,(%esi)
     7a3:	58                   	pop    %eax
     7a4:	05 05 03 0a 4a       	add    $0x4a0a0305,%eax
     7a9:	ca 08 23             	lret   $0x2308
     7ac:	05 0a 01 05 05       	add    $0x505010a,%eax
     7b1:	06                   	push   %es
     7b2:	01 05 11 3c 05 05    	add    %eax,0x5053c11
     7b8:	58                   	pop    %eax
     7b9:	2e 05 09 00 02 04    	cs add $0x4020009,%eax
     7bf:	03 06                	add    (%esi),%eax
     7c1:	03 73 01             	add    0x1(%ebx),%esi
     7c4:	05 2b 00 02 04       	add    $0x402002b,%eax
     7c9:	03 06                	add    (%esi),%eax
     7cb:	14 05                	adc    $0x5,%al
     7cd:	26 00 02             	add    %al,%es:(%edx)
     7d0:	04 03                	add    $0x3,%al
     7d2:	58                   	pop    %eax
     7d3:	00 02                	add    %al,(%edx)
     7d5:	04 03                	add    $0x3,%al
     7d7:	65 05 09 00 02 04    	gs add $0x4020009,%eax
     7dd:	03 57 05             	add    0x5(%edi),%edx
     7e0:	2a 00                	sub    (%eax),%al
     7e2:	02 04 03             	add    (%ebx,%eax,1),%al
     7e5:	06                   	push   %es
     7e6:	aa                   	stos   %al,%es:(%edi)
     7e7:	00 02                	add    %al,(%edx)
     7e9:	04 03                	add    $0x3,%al
     7eb:	06                   	push   %es
     7ec:	3c 00                	cmp    $0x0,%al
     7ee:	02 04 03             	add    (%ebx,%eax,1),%al
     7f1:	58                   	pop    %eax
     7f2:	05 09 00 02 04       	add    $0x4020009,%eax
     7f7:	03 06                	add    (%esi),%eax
     7f9:	03 10                	add    (%eax),%edx
     7fb:	01 05 33 00 02 04    	add    %eax,0x4020033
     801:	03 06                	add    (%esi),%eax
     803:	01 05 2e 00 02 04    	add    %eax,0x402002e
     809:	03 58 05             	add    0x5(%eax),%ebx
     80c:	09 00                	or     %eax,(%eax)
     80e:	02 04 03             	add    (%ebx,%eax,1),%al
     811:	58                   	pop    %eax
     812:	05 33 00 02 04       	add    $0x4020033,%eax
     817:	03 06                	add    (%esi),%eax
     819:	c7 00 02 04 03 06    	movl   $0x6030402,(%eax)
     81f:	3c 05                	cmp    $0x5,%al
     821:	1a 00                	sbb    (%eax),%al
     823:	02 04 01             	add    (%ecx,%eax,1),%al
     826:	06                   	push   %es
     827:	3c 05                	cmp    $0x5,%al
     829:	05 85 08 68 05       	add    $0x5680885,%eax
     82e:	01 06                	add    %eax,(%esi)
     830:	bb 74 20 2e 05       	mov    $0x52e2074,%ebx
     835:	15 06 23 05 05       	adc    $0x5052306,%eax
     83a:	59                   	pop    %ecx
     83b:	c9                   	leave  
     83c:	05 21 06 01 05       	add    $0x5010621,%eax
     841:	0c 58                	or     $0x58,%al
     843:	05 05 06 3d d9       	add    $0xd93d0605,%eax
     848:	05 0a 01 05 05       	add    $0x505010a,%eax
     84d:	06                   	push   %es
     84e:	01 05 11 3c 05 05    	add    %eax,0x5053c11
     854:	58                   	pop    %eax
     855:	05 09 00 02 04       	add    $0x4020009,%eax
     85a:	03 06                	add    (%esi),%eax
     85c:	2f                   	das    
     85d:	05 22 00 02 04       	add    $0x4020022,%eax
     862:	03 06                	add    (%esi),%eax
     864:	01 05 09 00 02 04    	add    %eax,0x4020009
     86a:	03 58 05             	add    0x5(%eax),%ebx
     86d:	30 00                	xor    %al,(%eax)
     86f:	02 04 03             	add    (%ebx,%eax,1),%al
     872:	06                   	push   %es
     873:	8f 00                	pop    (%eax)
     875:	02 04 03             	add    (%ebx,%eax,1),%al
     878:	06                   	push   %es
     879:	3c 05                	cmp    $0x5,%al
     87b:	1a 00                	sbb    (%eax),%al
     87d:	02 04 01             	add    (%ecx,%eax,1),%al
     880:	06                   	push   %es
     881:	3c 05                	cmp    $0x5,%al
     883:	05 4d 05 01 06       	add    $0x601054d,%eax
     888:	c9                   	leave  
     889:	74 20                	je     8ab <start_-0xff761>
     88b:	06                   	push   %es
     88c:	32 05 05 75 14 a1    	xor    0xa1147505,%al
     892:	ad                   	lods   %ds:(%esi),%eax
     893:	d8 05 15 06 01 05    	fadds  0x5010615
     899:	05 06 bb 05 01       	add    $0x105bb06,%eax
     89e:	06                   	push   %es
     89f:	08 30                	or     %dh,(%eax)
     8a1:	02 08                	add    (%eax),%cl
     8a3:	00 01                	add    %al,(%ecx)
     8a5:	01 c6                	add    %eax,%esi
     8a7:	03 00                	add    (%eax),%eax
     8a9:	00 05 00 04 00 3c    	add    %al,0x3c000400
     8af:	00 00                	add    %al,(%eax)
     8b1:	00 01                	add    %al,(%ecx)
     8b3:	01 01                	add    %eax,(%ecx)
     8b5:	fb                   	sti    
     8b6:	0e                   	push   %cs
     8b7:	0d 00 01 01 01       	or     $0x1010100,%eax
     8bc:	01 00                	add    %eax,(%eax)
     8be:	00 00                	add    %al,(%eax)
     8c0:	01 00                	add    %eax,(%eax)
     8c2:	00 01                	add    %al,(%ecx)
     8c4:	01 01                	add    %eax,(%ecx)
     8c6:	1f                   	pop    %ds
     8c7:	03 00                	add    (%eax),%eax
     8c9:	00 00                	add    %al,(%eax)
     8cb:	00 ec                	add    %ch,%ah
     8cd:	01 00                	add    %eax,(%eax)
     8cf:	00 69 00             	add    %ch,0x0(%ecx)
     8d2:	00 00                	add    %al,(%eax)
     8d4:	02 01                	add    (%ecx),%al
     8d6:	1f                   	pop    %ds
     8d7:	02 0f                	add    (%edi),%cl
     8d9:	04 dc                	add    $0xdc,%al
     8db:	01 00                	add    %eax,(%eax)
     8dd:	00 00                	add    %al,(%eax)
     8df:	e6 01                	out    %al,$0x1
     8e1:	00 00                	add    %al,(%eax)
     8e3:	01 ca                	add    %ecx,%edx
     8e5:	00 00                	add    %al,(%eax)
     8e7:	00 02                	add    %al,(%edx)
     8e9:	c1 01 00             	roll   $0x0,(%ecx)
     8ec:	00 02                	add    %al,(%edx)
     8ee:	05 01 00 05 02       	add    $0x2050001,%eax
     8f3:	d8 64 10 c0          	fsubs  -0x40(%eax,%edx,1)
     8f7:	03 17                	add    (%edi),%edx
     8f9:	01 06                	add    %eax,(%esi)
     8fb:	01 05 05 06 67 58    	add    %eax,0x58670605
     901:	9f                   	lahf   
     902:	05 29 06 01 05       	add    $0x5010629,%eax
     907:	16                   	push   %ss
     908:	2e 05 01 67 06 32    	cs add $0x32066701,%eax
     90e:	06                   	push   %es
     90f:	01 05 05 06 67 58    	add    %eax,0x58670605
     915:	9f                   	lahf   
     916:	05 16 06 01 05       	add    $0x5010616,%eax
     91b:	01 67 06             	add    %esp,0x6(%edi)
     91e:	32 06                	xor    (%esi),%al
     920:	01 05 05 06 bb 58    	add    %eax,0x58bb0605
     926:	3c 9e                	cmp    $0x9e,%al
     928:	82 00 02             	addb   $0x2,(%eax)
     92b:	04 01                	add    $0x1,%al
     92d:	06                   	push   %es
     92e:	58                   	pop    %eax
     92f:	00 02                	add    %al,(%edx)
     931:	04 04                	add    $0x4,%al
     933:	06                   	push   %es
     934:	78 05                	js     93b <start_-0xff6d1>
     936:	20 00                	and    %al,(%eax)
     938:	02 04 04             	add    (%esp,%eax,1),%al
     93b:	06                   	push   %es
     93c:	01 00                	add    %eax,(%eax)
     93e:	02 04 04             	add    (%esp,%eax,1),%al
     941:	58                   	pop    %eax
     942:	05 33 00 02 04       	add    $0x4020033,%eax
     947:	04 2e                	add    $0x2e,%al
     949:	05 47 00 02 04       	add    $0x4020047,%eax
     94e:	04 3c                	add    $0x3c,%al
     950:	00 02                	add    %al,(%edx)
     952:	04 04                	add    $0x4,%al
     954:	2e 00 02             	add    %al,%cs:(%edx)
     957:	04 04                	add    $0x4,%al
     959:	58                   	pop    %eax
     95a:	05 38 00 02 04       	add    $0x4020038,%eax
     95f:	04 2e                	add    $0x2e,%al
     961:	05 16 00 02 04       	add    $0x4020016,%eax
     966:	04 2e                	add    $0x2e,%al
     968:	05 05 00 02 04       	add    $0x4020005,%eax
     96d:	04 06                	add    $0x6,%al
     96f:	84 05 0a 00 02 04    	test   %al,0x402000a
     975:	04 06                	add    $0x6,%al
     977:	01 05 05 00 02 04    	add    %eax,0x4020005
     97d:	04 06                	add    $0x6,%al
     97f:	3f                   	aas    
     980:	05 0a 00 02 04       	add    $0x402000a,%eax
     985:	04 01                	add    $0x1,%al
     987:	05 13 00 02 04       	add    $0x4020013,%eax
     98c:	04 06                	add    $0x6,%al
     98e:	01 05 05 00 02 04    	add    %eax,0x4020005
     994:	04 58                	add    $0x58,%al
     996:	00 02                	add    %al,(%edx)
     998:	04 04                	add    $0x4,%al
     99a:	2e 03 77 01          	add    %cs:0x1(%edi),%esi
     99e:	05 09 00 02 04       	add    $0x4020009,%eax
     9a3:	04 06                	add    $0x6,%al
     9a5:	03 0a                	add    (%edx),%ecx
     9a7:	58                   	pop    %eax
     9a8:	05 1a 00 02 04       	add    $0x402001a,%eax
     9ad:	04 06                	add    $0x6,%al
     9af:	01 05 45 00 02 04    	add    %eax,0x4020045
     9b5:	04 06                	add    $0x6,%al
     9b7:	73 05                	jae    9be <start_-0xff64e>
     9b9:	43                   	inc    %ebx
     9ba:	00 02                	add    %al,(%edx)
     9bc:	04 04                	add    $0x4,%al
     9be:	06                   	push   %es
     9bf:	01 05 4c 00 02 04    	add    %eax,0x402004c
     9c5:	04 3c                	add    $0x3c,%al
     9c7:	05 2a 00 02 04       	add    $0x402002a,%eax
     9cc:	01 06                	add    %eax,(%esi)
     9ce:	3c 05                	cmp    $0x5,%al
     9d0:	3d 00 02 04 03       	cmp    $0x3040200,%eax
     9d5:	06                   	push   %es
     9d6:	58                   	pop    %eax
     9d7:	05 2a 00 02 04       	add    $0x402002a,%eax
     9dc:	03 3c 00             	add    (%eax,%eax,1),%edi
     9df:	02 04 03             	add    (%ebx,%eax,1),%al
     9e2:	4a                   	dec    %edx
     9e3:	05 05 06 16 05       	add    $0x5160605,%eax
     9e8:	16                   	push   %ss
     9e9:	06                   	push   %es
     9ea:	01 05 33 75 05 0e    	add    %eax,0xe057533
     9f0:	00 02                	add    %al,(%edx)
     9f2:	04 01                	add    $0x1,%al
     9f4:	66 00 02             	data16 add %al,(%edx)
     9f7:	04 01                	add    $0x1,%al
     9f9:	90                   	nop
     9fa:	05 33 00 02 04       	add    $0x4020033,%eax
     9ff:	01 2e                	add    %ebp,(%esi)
     a01:	05 3e 00 02 04       	add    $0x402003e,%eax
     a06:	04 3c                	add    $0x3c,%al
     a08:	05 38 00 02 04       	add    $0x4020038,%eax
     a0d:	04 82                	add    $0x82,%al
     a0f:	05 16 00 02 04       	add    $0x4020016,%eax
     a14:	04 2d                	add    $0x2d,%al
     a16:	05 01 00 02 04       	add    $0x4020001,%eax
     a1b:	04 a0                	add    $0xa0,%al
     a1d:	00 02                	add    %al,(%edx)
     a1f:	04 04                	add    $0x4,%al
     a21:	58                   	pop    %eax
     a22:	05 33 3b 05 01       	add    $0x1053b33,%eax
     a27:	06                   	push   %es
     a28:	79 06                	jns    a30 <start_-0xff5dc>
     a2a:	01 05 05 06 bb 58    	add    %eax,0x58bb0605
     a30:	3c 9e                	cmp    $0x9e,%al
     a32:	82 00 02             	addb   $0x2,(%eax)
     a35:	04 01                	add    $0x1,%al
     a37:	06                   	push   %es
     a38:	58                   	pop    %eax
     a39:	00 02                	add    %al,(%edx)
     a3b:	04 04                	add    $0x4,%al
     a3d:	06                   	push   %es
     a3e:	76 05                	jbe    a45 <start_-0xff5c7>
     a40:	1f                   	pop    %ds
     a41:	00 02                	add    %al,(%edx)
     a43:	04 04                	add    $0x4,%al
     a45:	06                   	push   %es
     a46:	01 00                	add    %eax,(%eax)
     a48:	02 04 04             	add    (%esp,%eax,1),%al
     a4b:	58                   	pop    %eax
     a4c:	05 32 00 02 04       	add    $0x4020032,%eax
     a51:	04 2e                	add    $0x2e,%al
     a53:	05 46 00 02 04       	add    $0x4020046,%eax
     a58:	04 3c                	add    $0x3c,%al
     a5a:	00 02                	add    %al,(%edx)
     a5c:	04 04                	add    $0x4,%al
     a5e:	2e 00 02             	add    %al,%cs:(%edx)
     a61:	04 04                	add    $0x4,%al
     a63:	58                   	pop    %eax
     a64:	05 37 00 02 04       	add    $0x4020037,%eax
     a69:	04 2e                	add    $0x2e,%al
     a6b:	05 16 00 02 04       	add    $0x4020016,%eax
     a70:	04 4a                	add    $0x4a,%al
     a72:	05 05 00 02 04       	add    $0x4020005,%eax
     a77:	04 06                	add    $0x6,%al
     a79:	68 05 0a 00 02       	push   $0x2000a05
     a7e:	04 04                	add    $0x4,%al
     a80:	06                   	push   %es
     a81:	01 05 05 00 02 04    	add    %eax,0x4020005
     a87:	04 06                	add    $0x6,%al
     a89:	3f                   	aas    
     a8a:	05 0a 00 02 04       	add    $0x402000a,%eax
     a8f:	04 01                	add    $0x1,%al
     a91:	05 13 00 02 04       	add    $0x4020013,%eax
     a96:	04 06                	add    $0x6,%al
     a98:	01 05 05 00 02 04    	add    %eax,0x4020005
     a9e:	04 58                	add    $0x58,%al
     aa0:	00 02                	add    %al,(%edx)
     aa2:	04 04                	add    $0x4,%al
     aa4:	2e 03 79 01          	add    %cs:0x1(%ecx),%edi
     aa8:	05 09 00 02 04       	add    $0x4020009,%eax
     aad:	04 06                	add    $0x6,%al
     aaf:	60                   	pusha  
     ab0:	05 1a 00 02 04       	add    $0x402001a,%eax
     ab5:	04 06                	add    $0x6,%al
     ab7:	01 05 45 00 02 04    	add    %eax,0x4020045
     abd:	04 06                	add    $0x6,%al
     abf:	73 05                	jae    ac6 <start_-0xff546>
     ac1:	43                   	inc    %ebx
     ac2:	00 02                	add    %al,(%edx)
     ac4:	04 04                	add    $0x4,%al
     ac6:	06                   	push   %es
     ac7:	01 05 4c 00 02 04    	add    %eax,0x402004c
     acd:	04 3c                	add    $0x3c,%al
     acf:	05 2a 00 02 04       	add    $0x402002a,%eax
     ad4:	01 06                	add    %eax,(%esi)
     ad6:	3c 05                	cmp    $0x5,%al
     ad8:	3d 00 02 04 03       	cmp    $0x3040200,%eax
     add:	06                   	push   %es
     ade:	58                   	pop    %eax
     adf:	05 2a 00 02 04       	add    $0x402002a,%eax
     ae4:	03 3c 00             	add    (%eax,%eax,1),%edi
     ae7:	02 04 03             	add    (%ebx,%eax,1),%al
     aea:	4a                   	dec    %edx
     aeb:	05 05 06 16 05       	add    $0x5160605,%eax
     af0:	16                   	push   %ss
     af1:	06                   	push   %es
     af2:	01 05 32 75 05 0d    	add    %eax,0xd057532
     af8:	00 02                	add    %al,(%edx)
     afa:	04 01                	add    $0x1,%al
     afc:	66 00 02             	data16 add %al,(%edx)
     aff:	04 01                	add    $0x1,%al
     b01:	58                   	pop    %eax
     b02:	00 02                	add    %al,(%edx)
     b04:	04 01                	add    $0x1,%al
     b06:	4a                   	dec    %edx
     b07:	05 32 00 02 04       	add    $0x4020032,%eax
     b0c:	01 2e                	add    %ebp,(%esi)
     b0e:	05 3d 00 02 04       	add    $0x402003d,%eax
     b13:	04 3c                	add    $0x3c,%al
     b15:	05 37 00 02 04       	add    $0x4020037,%eax
     b1a:	04 82                	add    $0x82,%al
     b1c:	05 16 00 02 04       	add    $0x4020016,%eax
     b21:	04 2d                	add    $0x2d,%al
     b23:	05 01 00 02 04       	add    $0x4020001,%eax
     b28:	04 84                	add    $0x84,%al
     b2a:	05 32 81 58 05       	add    $0x5588132,%eax
     b2f:	01 06                	add    %eax,(%esi)
     b31:	03 0a                	add    (%edx),%ecx
     b33:	2e 06                	cs push %es
     b35:	01 05 05 06 3d 05    	add    %eax,0x53d0605
     b3b:	27                   	daa    
     b3c:	06                   	push   %es
     b3d:	01 05 0c 66 05 05    	add    %eax,0x505660c
     b43:	06                   	push   %es
     b44:	5a                   	pop    %edx
     b45:	05 13 06 01 05       	add    $0x5010613,%eax
     b4a:	05 06 a1 05 0a       	add    $0xa05a106,%eax
     b4f:	01 05 11 06 01 05    	add    %eax,0x5010611
     b55:	05 58 05 09 00       	add    $0x90558,%eax
     b5a:	02 04 03             	add    (%ebx,%eax,1),%al
     b5d:	06                   	push   %es
     b5e:	2f                   	das    
     b5f:	05 16 00 02 04       	add    $0x4020016,%eax
     b64:	03 06                	add    (%esi),%eax
     b66:	01 05 2e 00 02 04    	add    %eax,0x402002e
     b6c:	03 06                	add    (%esi),%eax
     b6e:	73 05                	jae    b75 <start_-0xff497>
     b70:	1a 00                	sbb    (%eax),%al
     b72:	02 04 01             	add    (%ecx,%eax,1),%al
     b75:	3c 05                	cmp    $0x5,%al
     b77:	01 06                	add    %eax,(%esi)
     b79:	77 06                	ja     b81 <start_-0xff48b>
     b7b:	32 05 05 92 13 05    	xor    0x5139205,%al
     b81:	0c 06                	or     $0x6,%al
     b83:	01 05 05 06 83 05    	add    %eax,0x5830605
     b89:	0c 06                	or     $0x6,%al
     b8b:	01 05 05 06 67 13    	add    %eax,0x13670605
     b91:	05 0f 06 0e 05       	add    $0x50e060f,%eax
     b96:	0b 5c 05 0d          	or     0xd(%ebp,%eax,1),%ebx
     b9a:	06                   	push   %es
     b9b:	33 05 12 01 05 19    	xor    0x19050112,%eax
     ba1:	06                   	push   %es
     ba2:	01 05 32 00 02 04    	add    %eax,0x4020032
     ba8:	01 06                	add    %eax,(%esi)
     baa:	3c 05                	cmp    $0x5,%al
     bac:	11 59 05             	adc    %ebx,0x5(%ecx)
     baf:	26 06                	es push %es
     bb1:	01 05 1d 74 05 14    	add    %eax,0x1405741d
     bb7:	3c 05                	cmp    $0x5,%al
     bb9:	3a 00                	cmp    (%eax),%al
     bbb:	02 04 02             	add    (%edx,%eax,1),%al
     bbe:	06                   	push   %es
     bbf:	49                   	dec    %ecx
     bc0:	05 38 00 02 04       	add    $0x4020038,%eax
     bc5:	02 06                	add    (%esi),%al
     bc7:	01 05 49 00 02 04    	add    %eax,0x4020049
     bcd:	02 3c 05 15 06 92 d7 	add    -0x286df9eb(,%eax,1),%bh
     bd4:	05 25 06 01 66       	add    $0x66010625,%eax
     bd9:	05 15 06 3d 06       	add    $0x63d0615,%eax
     bde:	3c 05                	cmp    $0x5,%al
     be0:	1d 06 03 77 01       	sbb    $0x1770306,%eax
     be5:	05 2e 00 02 04       	add    $0x402002e,%eax
     bea:	01 06                	add    %eax,(%esi)
     bec:	4a                   	dec    %edx
     bed:	05 1d 00 02 04       	add    $0x402001d,%eax
     bf2:	01 66 05             	add    %esp,0x5(%esi)
     bf5:	09 06                	or     %eax,(%esi)
     bf7:	4b                   	dec    %ebx
     bf8:	05 29 06 01 05       	add    $0x5010629,%eax
     bfd:	0f 58 05 09 06 77 05 	addps  0x5770609,%xmm0
     c04:	0c 06                	or     $0x6,%al
     c06:	01 05 0d 06 03 09    	add    %eax,0x903060d
     c0c:	4a                   	dec    %edx
     c0d:	05 1b 06 01 05       	add    $0x501061b,%eax
     c12:	0d 06 95 05 10       	or     $0x10059506,%eax
     c17:	06                   	push   %es
     c18:	01 05 2c 00 02 04    	add    %eax,0x402002c
     c1e:	01 4a 00             	add    %ecx,0x0(%edx)
     c21:	02 04 01             	add    (%ecx,%eax,1),%al
     c24:	3c 05                	cmp    $0x5,%al
     c26:	11 06                	adc    %eax,(%esi)
     c28:	59                   	pop    %ecx
     c29:	13 05 1f 06 01 05    	adc    0x501061f,%eax
     c2f:	11 06                	adc    %eax,(%esi)
     c31:	9f                   	lahf   
     c32:	05 1b 06 10 05       	add    $0x510061b,%eax
     c37:	1c 30                	sbb    $0x30,%al
     c39:	74 05                	je     c40 <start_-0xff3cc>
     c3b:	05 06 32 05 01       	add    $0x1053206,%eax
     c40:	06                   	push   %es
     c41:	13 66 20             	adc    0x20(%esi),%esp
     c44:	2e 06                	cs push %es
     c46:	24 06                	and    $0x6,%al
     c48:	01 05 05 06 68 13    	add    %eax,0x13680605
     c4e:	05 08 06 01 66       	add    $0x66010608,%eax
     c53:	05 0c 00 02 04       	add    $0x402000c,%eax
     c58:	01 2e                	add    %ebp,(%esi)
     c5a:	87 58 05             	xchg   %ebx,0x5(%eax)
     c5d:	09 06                	or     %eax,(%esi)
     c5f:	2b 91 05 10 06 01    	sub    0x1061005(%ecx),%edx
     c65:	05 0c a0 05 01       	add    $0x105a00c,%eax
     c6a:	59                   	pop    %ecx
     c6b:	02 02                	add    (%edx),%al
     c6d:	00 01                	add    %al,(%ecx)
     c6f:	01 ce                	add    %ecx,%esi
     c71:	02 00                	add    (%eax),%al
     c73:	00 05 00 04 00 53    	add    %al,0x53000400
     c79:	00 00                	add    %al,(%eax)
     c7b:	00 01                	add    %al,(%ecx)
     c7d:	01 01                	add    %eax,(%ecx)
     c7f:	fb                   	sti    
     c80:	0e                   	push   %cs
     c81:	0d 00 01 01 01       	or     $0x1010100,%eax
     c86:	01 00                	add    %eax,(%eax)
     c88:	00 00                	add    %al,(%eax)
     c8a:	01 00                	add    %eax,(%eax)
     c8c:	00 01                	add    %al,(%ecx)
     c8e:	01 01                	add    %eax,(%ecx)
     c90:	1f                   	pop    %ds
     c91:	05 00 00 00 00       	add    $0x0,%eax
     c96:	ec                   	in     (%dx),%al
     c97:	01 00                	add    %eax,(%eax)
     c99:	00 69 00             	add    %ch,0x0(%ecx)
     c9c:	00 00                	add    %al,(%eax)
     c9e:	a8 00                	test   $0x0,%al
     ca0:	00 00                	add    %al,(%eax)
     ca2:	77 01                	ja     ca5 <start_-0xff367>
     ca4:	00 00                	add    %al,(%eax)
     ca6:	02 01                	add    (%ecx),%al
     ca8:	1f                   	pop    %ds
     ca9:	02 0f                	add    (%edi),%cl
     cab:	07                   	pop    %es
     cac:	f6 01 00             	testb  $0x0,(%ecx)
     caf:	00 00                	add    %al,(%eax)
     cb1:	00 02                	add    %al,(%edx)
     cb3:	00 00                	add    %al,(%eax)
     cb5:	01 c1                	add    %eax,%ecx
     cb7:	01 00                	add    %eax,(%eax)
     cb9:	00 02                	add    %al,(%edx)
     cbb:	ca 00 00             	lret   $0x0
     cbe:	00 02                	add    %al,(%edx)
     cc0:	d7                   	xlat   %ds:(%ebx)
     cc1:	00 00                	add    %al,(%eax)
     cc3:	00 03                	add    %al,(%ebx)
     cc5:	d0 01                	rolb   (%ecx)
     cc7:	00 00                	add    %al,(%eax)
     cc9:	03 06                	add    (%esi),%eax
     ccb:	02 00                	add    (%eax),%al
     ccd:	00 04 05 01 00 05 02 	add    %al,0x2050001(,%eax,1)
     cd4:	91                   	xchg   %eax,%ecx
     cd5:	67 10 c0             	addr16 adc %al,%al
     cd8:	03 09                	add    (%ecx),%ecx
     cda:	01 05 05 13 14 86    	add    %eax,0x86141305
     ce0:	05 14 06 01 05       	add    $0x5010614,%eax
     ce5:	01 59 06             	add    %ebx,0x6(%ecx)
     ce8:	24 06                	and    $0x6,%al
     cea:	01 05 05 06 3e 05    	add    %eax,0x53e0605
     cf0:	01 06                	add    %eax,(%esi)
     cf2:	ce                   	into   
     cf3:	06                   	push   %es
     cf4:	32 14 24             	xor    (%esp),%dl
     cf7:	05 05 67 05 12       	add    $0x12056705,%eax
     cfc:	06                   	push   %es
     cfd:	01 05 05 06 59 05    	add    %eax,0x5590605
     d03:	0a 01                	or     (%ecx),%al
     d05:	05 11 06 01 05       	add    $0x5010611,%eax
     d0a:	05 58 05 09 00       	add    $0x90558,%eax
     d0f:	02 04 03             	add    (%ebx,%eax,1),%al
     d12:	06                   	push   %es
     d13:	2f                   	das    
     d14:	05 10 00 02 04       	add    $0x4020010,%eax
     d19:	03 06                	add    (%esi),%eax
     d1b:	01 05 23 00 02 04    	add    %eax,0x4020023
     d21:	03 06                	add    (%esi),%eax
     d23:	73 05                	jae    d2a <start_-0xff2e2>
     d25:	1a 00                	sbb    (%eax),%al
     d27:	02 04 01             	add    (%ecx,%eax,1),%al
     d2a:	3c 05                	cmp    $0x5,%al
     d2c:	05 87 05 11 06       	add    $0x6110587,%eax
     d31:	01 2e                	add    %ebp,(%esi)
     d33:	05 0f 90 05 05       	add    $0x505900f,%eax
     d38:	06                   	push   %es
     d39:	68 05 01 06 13       	push   $0x13060105
     d3e:	06                   	push   %es
     d3f:	32 06                	xor    (%esi),%al
     d41:	01 05 05 06 92 05    	add    %eax,0x5920605
     d47:	09 06                	or     %eax,(%esi)
     d49:	01 05 10 74 05 08    	add    %eax,0x8057410
     d4f:	74 05                	je     d56 <start_-0xff2b6>
     d51:	05 06 86 05 0f       	add    $0xf058606,%eax
     d56:	06                   	push   %es
     d57:	01 05 05 06 67 05    	add    %eax,0x5670605
     d5d:	1b 06                	sbb    (%esi),%eax
     d5f:	01 05 0f 66 05 05    	add    %eax,0x505660f
     d65:	06                   	push   %es
     d66:	67 15 05 0b 06 01    	addr16 adc $0x1060b05,%eax
     d6c:	05 05 06 75 05       	add    $0x5750605,%eax
     d71:	17                   	pop    %ss
     d72:	06                   	push   %es
     d73:	01 05 0b 58 05 05    	add    %eax,0x505580b
     d79:	06                   	push   %es
     d7a:	67 05 0b 06 01 05    	addr16 add $0x501060b,%eax
     d80:	09 06                	or     %eax,(%esi)
     d82:	36 05 0c 06 01 05    	ss add $0x501060c,%eax
     d88:	16                   	push   %ss
     d89:	00 02                	add    %al,(%edx)
     d8b:	04 01                	add    $0x1,%al
     d8d:	4a                   	dec    %edx
     d8e:	05 10 00 02 04       	add    $0x4020010,%eax
     d93:	01 3c 05 09 06 5c 05 	add    %edi,0x55c0609(,%eax,1)
     d9a:	12 06                	adc    (%esi),%al
     d9c:	01 05 10 06 03 74    	add    %eax,0x74030610
     da2:	3c 05                	cmp    $0x5,%al
     da4:	0c 06                	or     $0x6,%al
     da6:	01 05 1d 58 05 10    	add    %eax,0x1005581d
     dac:	90                   	nop
     dad:	4a                   	dec    %edx
     dae:	05 09 06 4b 05       	add    $0x54b0609,%eax
     db3:	0c 06                	or     $0x6,%al
     db5:	01 05 0d 06 83 05    	add    %eax,0x583060d
     dbb:	16                   	push   %ss
     dbc:	06                   	push   %es
     dbd:	01 05 0d 06 3d 13    	add    %eax,0x133d060d
     dc3:	05 11 06 01 05       	add    $0x5010611,%eax
     dc8:	0d 06 75 05 19       	or     $0x19057506,%eax
     dcd:	06                   	push   %es
     dce:	01 2e                	add    %ebp,(%esi)
     dd0:	05 10 3c 05 17       	add    $0x17053c10,%eax
     dd5:	64 05 0d 06 7a 05    	fs add $0x57a060d,%eax
     ddb:	1d 06 01 ba 05       	sbb    $0x5ba0106,%eax
     de0:	1b 82 05 0d 06 2f    	sbb    0x2f060d05(%edx),%eax
     de6:	05 1b 06 01 82       	add    $0x8201061b,%eax
     deb:	05 14 ac 05 01       	add    $0x105ac14,%eax
     df0:	03 18                	add    (%eax),%ebx
     df2:	2e 74 05             	je,pn  dfa <start_-0xff212>
     df5:	05 06 03 6e 20       	add    $0x206e0306,%eax
     dfa:	05 08 06 01 05       	add    $0x5010608,%eax
     dff:	05 06 87 05 1a       	add    $0x1a058706,%eax
     e04:	06                   	push   %es
     e05:	01 05 05 06 5b 05    	add    %eax,0x55b0605
     e0b:	08 06                	or     %al,(%esi)
     e0d:	01 05 05 06 4e 05    	add    %eax,0x54e0605
     e13:	16                   	push   %ss
     e14:	06                   	push   %es
     e15:	01 58 05             	add    %ebx,0x5(%eax)
     e18:	14 ac                	adc    $0xac,%al
     e1a:	05 05 06 76 05       	add    $0x5760605,%eax
     e1f:	13 06                	adc    (%esi),%eax
     e21:	01 05 05 9e 06 f3    	add    %eax,0xf3069e05
     e27:	05 15 06 01 05       	add    $0x5010615,%eax
     e2c:	13 08                	adc    (%eax),%ecx
     e2e:	2e 05 05 06 3e 05    	cs add $0x53e0605,%eax
     e34:	13 06                	adc    (%esi),%eax
     e36:	01 3c 3c             	add    %edi,(%esp,%edi,1)
     e39:	05 0c 9e 05 10       	add    $0x10059e0c,%eax
     e3e:	03 55 74             	add    0x74(%ebp),%edx
     e41:	03 1b                	add    (%ebx),%ebx
     e43:	74 05                	je     e4a <start_-0xff1c2>
     e45:	01 06                	add    %eax,(%esi)
     e47:	03 15 9e 06 01 05    	add    0x501069e,%edx
     e4d:	05 06 59 05 10       	add    $0x10055906,%eax
     e52:	06                   	push   %es
     e53:	01 05 05 06 75 05    	add    %eax,0x5750605
     e59:	14 06                	adc    $0x6,%al
     e5b:	01 e4                	add    %esp,%esp
     e5d:	05 05 06 2f 05       	add    $0x52f0605,%eax
     e62:	08 06                	or     %al,(%esi)
     e64:	01 05 01 78 66 20    	add    %eax,0x20667801
     e6a:	20 05 09 06 1d 06    	and    %al,0x61d0609
     e70:	90                   	nop
     e71:	05 05 06 3e 05       	add    $0x53e0605,%eax
     e76:	0c 06                	or     $0x6,%al
     e78:	01 05 01 06 33 06    	add    %eax,0x6330601
     e7e:	01 05 05 06 83 05    	add    %eax,0x5830605
     e84:	1b 06                	sbb    (%esi),%eax
     e86:	01 05 0f 2e 05 05    	add    %eax,0x5052e0f
     e8c:	06                   	push   %es
     e8d:	59                   	pop    %ecx
     e8e:	05 1b 06 01 05       	add    $0x501061b,%eax
     e93:	0f 3c                	(bad)  
     e95:	05 05 06 59 14       	add    $0x14590605,%eax
     e9a:	14 05                	adc    $0x5,%al
     e9c:	08 06                	or     %al,(%esi)
     e9e:	01 05 09 06 9f 05    	add    %eax,0x59f0609
     ea4:	1b 06                	sbb    (%esi),%eax
     ea6:	01 3c 05 09 06 67 05 	add    %edi,0x5670609(,%eax,1)
     ead:	1a 06                	sbb    (%esi),%al
     eaf:	01 05 12 3c 05 09    	add    %eax,0x9053c12
     eb5:	06                   	push   %es
     eb6:	2f                   	das    
     eb7:	05 0c 06 01 05       	add    $0x501060c,%eax
     ebc:	09 06                	or     %eax,(%esi)
     ebe:	50                   	push   %eax
     ebf:	05 17 06 01 66       	add    $0x66010617,%eax
     ec4:	05 01 14 05 1f       	add    $0x1f051401,%eax
     ec9:	00 02                	add    %al,(%edx)
     ecb:	04 01                	add    $0x1,%al
     ecd:	03 78 74             	add    0x74(%eax),%edi
     ed0:	00 02                	add    %al,(%edx)
     ed2:	04 01                	add    $0x1,%al
     ed4:	4a                   	dec    %edx
     ed5:	05 1c 00 02 04       	add    $0x402001c,%eax
     eda:	01 58 05             	add    %ebx,0x5(%eax)
     edd:	0d 06 77 05 01       	or     $0x1057706,%eax
     ee2:	00 05 02 ba 69 10    	add    %al,0x1069ba02
     ee8:	c0 03 09             	rolb   $0x9,(%ebx)
     eeb:	01 06                	add    %eax,(%esi)
     eed:	01 05 05 06 67 05    	add    %eax,0x5670605
     ef3:	0f 06                	clts   
     ef5:	01 05 05 06 59 05    	add    %eax,0x5590605
     efb:	1b 06                	sbb    (%esi),%eax
     efd:	01 05 0f 58 05 05    	add    %eax,0x505580f
     f03:	06                   	push   %es
     f04:	67 05 0f 06 01 05    	addr16 add $0x501060f,%eax
     f0a:	05 06 67 14 13       	add    $0x13146706,%eax
     f0f:	05 08 06 01 05       	add    $0x5010608,%eax
     f14:	09 06                	or     %eax,(%esi)
     f16:	9f                   	lahf   
     f17:	05 1c 06 01 3c       	add    $0x3c01061c,%eax
     f1c:	05 0e 58 05 09       	add    $0x905580e,%eax
     f21:	06                   	push   %es
     f22:	3d 05 0c 06 01       	cmp    $0x1060c05,%eax
     f27:	05 0d 06 4b 13       	add    $0x134b060d,%eax
     f2c:	05 1b 06 01 05       	add    $0x501061b,%eax
     f31:	14 58                	adc    $0x58,%al
     f33:	2e 05 01 17 05 0c    	cs add $0xc051701,%eax
     f39:	2d 58 2e 58 02       	sub    $0x2582e58,%eax
     f3e:	02 00                	add    (%eax),%al
     f40:	01 01                	add    %eax,(%ecx)
     f42:	cc                   	int3   
     f43:	01 00                	add    %eax,(%eax)
     f45:	00 05 00 04 00 4e    	add    %al,0x4e000400
     f4b:	00 00                	add    %al,(%eax)
     f4d:	00 01                	add    %al,(%ecx)
     f4f:	01 01                	add    %eax,(%ecx)
     f51:	fb                   	sti    
     f52:	0e                   	push   %cs
     f53:	0d 00 01 01 01       	or     $0x1010100,%eax
     f58:	01 00                	add    %eax,(%eax)
     f5a:	00 00                	add    %al,(%eax)
     f5c:	01 00                	add    %eax,(%eax)
     f5e:	00 01                	add    %al,(%ecx)
     f60:	01 01                	add    %eax,(%ecx)
     f62:	1f                   	pop    %ds
     f63:	05 00 00 00 00       	add    $0x0,%eax
     f68:	20 02                	and    %al,(%edx)
     f6a:	00 00                	add    %al,(%eax)
     f6c:	69 00 00 00 a4 01    	imul   $0x1a40000,(%eax),%eax
     f72:	00 00                	add    %al,(%eax)
     f74:	77 01                	ja     f77 <start_-0xff095>
     f76:	00 00                	add    %al,(%eax)
     f78:	02 01                	add    (%ecx),%al
     f7a:	1f                   	pop    %ds
     f7b:	02 0f                	add    (%edi),%cl
     f7d:	06                   	push   %es
     f7e:	0f 02 00             	lar    (%eax),%eax
     f81:	00 00                	add    %al,(%eax)
     f83:	1a 02                	sbb    (%edx),%al
     f85:	00 00                	add    %al,(%eax)
     f87:	01 c1                	add    %eax,%ecx
     f89:	01 00                	add    %eax,(%eax)
     f8b:	00 02                	add    %al,(%edx)
     f8d:	bb 01 00 00 03       	mov    $0x3000001,%ebx
     f92:	ca 00 00             	lret   $0x0
     f95:	00 02                	add    %al,(%edx)
     f97:	06                   	push   %es
     f98:	02 00                	add    (%eax),%al
     f9a:	00 04 05 24 00 05 02 	add    %al,0x2050024(,%eax,1)
     fa1:	06                   	push   %es
     fa2:	6a 10                	push   $0x10
     fa4:	c0 03 14             	rolb   $0x14,(%ebx)
     fa7:	01 06                	add    %eax,(%esi)
     fa9:	01 05 05 06 3d 05    	add    %eax,0x53d0605
     faf:	14 06                	adc    $0x6,%al
     fb1:	01 05 01 83 06 32    	add    %eax,0x32068301
     fb7:	06                   	push   %es
     fb8:	01 05 05 06 3d 05    	add    %eax,0x53d0605
     fbe:	1b 06                	sbb    (%esi),%eax
     fc0:	01 05 20 74 05 26    	add    %eax,0x26057420
     fc6:	4a                   	dec    %edx
     fc7:	05 15 3c 05 01       	add    $0x1053c15,%eax
     fcc:	67 06                	addr16 push %es
     fce:	03 29                	add    (%ecx),%ebp
     fd0:	2e 05 05 67 13 05    	cs add $0x5136705,%eax
     fd6:	2b 06                	sub    (%esi),%eax
     fd8:	58                   	pop    %eax
     fd9:	05 05 66 06 bb       	add    $0xbb066605,%eax
     fde:	05 0a 01 05 05       	add    $0x505010a,%eax
     fe3:	06                   	push   %es
     fe4:	01 05 11 3c 05 05    	add    %eax,0x5053c11
     fea:	58                   	pop    %eax
     feb:	05 09 00 02 04       	add    $0x4020009,%eax
     ff0:	03 06                	add    (%esi),%eax
     ff2:	2f                   	das    
     ff3:	05 2b 00 02 04       	add    $0x402002b,%eax
     ff8:	03 06                	add    (%esi),%eax
     ffa:	01 05 28 00 02 04    	add    %eax,0x4020028
    1000:	03 06                	add    (%esi),%eax
    1002:	08 49 05             	or     %cl,0x5(%ecx)
    1005:	1a 00                	sbb    (%eax),%al
    1007:	02 04 01             	add    (%ecx,%eax,1),%al
    100a:	3c 05                	cmp    $0x5,%al
    100c:	05 5b 05 13 06       	add    $0x613055b,%eax
    1011:	01 05 0b 74 00 02    	add    %eax,0x200740b
    1017:	04 04                	add    $0x4,%al
    1019:	9e                   	sahf   
    101a:	05 01 00 02 04       	add    $0x4020001,%eax
    101f:	04 67                	add    $0x67,%al
    1021:	06                   	push   %es
    1022:	03 54 2e 06          	add    0x6(%esi,%ebp,1),%edx
    1026:	01 05 05 06 91 05    	add    %eax,0x5910605
    102c:	0d 03 0b ba 05       	or     $0x5ba0b03,%eax
    1031:	26 06                	es push %es
    1033:	01 05 4e 08 4a 05    	add    %eax,0x54a084e
    1039:	3b 90 05 0d 06 9f    	cmp    -0x60f9f2fb(%eax),%edx
    103f:	05 12 06 01 05       	add    $0x5010612,%eax
    1044:	0d 06 75 03 75       	or     $0x75037506,%eax
    1049:	2e 05 13 06 01 05    	cs add $0x5010613,%eax
    104f:	0d 06 75 30 05       	or     $0x5307506,%eax
    1054:	12 06                	adc    (%esi),%al
    1056:	01 05 0d 06 85 05    	add    %eax,0x585060d
    105c:	13 06                	adc    (%esi),%eax
    105e:	01 05 0d 06 9f 05    	add    %eax,0x59f060d
    1064:	05 19 05 08 06       	add    $0x6080519,%eax
    1069:	01 05 09 06 91 05    	add    %eax,0x5910609
    106f:	0f 06                	clts   
    1071:	01 05 09 06 9f 05    	add    %eax,0x59f0609
    1077:	0e                   	push   %cs
    1078:	06                   	push   %es
    1079:	01 05 05 06 84 05    	add    %eax,0x5840605
    107f:	08 06                	or     %al,(%esi)
    1081:	01 05 01 a1 05 09    	add    %eax,0x905a101
    1087:	06                   	push   %es
    1088:	2c 05                	sub    $0x5,%al
    108a:	01 06                	add    %eax,(%esi)
    108c:	5a                   	pop    %edx
    108d:	06                   	push   %es
    108e:	32 06                	xor    (%esi),%al
    1090:	01 05 05 06 9f 05    	add    %eax,0x59f0605
    1096:	0b 06                	or     (%esi),%eax
    1098:	01 05 09 06 2f bb    	add    %eax,0xbb2f0609
    109e:	05 0c 06 01 3c       	add    $0x3c01060c,%eax
    10a3:	05 11 06 3a 05       	add    $0x53a0611,%eax
    10a8:	0c 06                	or     $0x6,%al
    10aa:	01 05 11 3c 05 01    	add    %eax,0x1053c11
    10b0:	4e                   	dec    %esi
    10b1:	3c 06                	cmp    $0x6,%al
    10b3:	03 0f                	add    (%edi),%ecx
    10b5:	2e 05 05 13 05 0a    	cs add $0xa051305,%eax
    10bb:	01 05 13 06 01 05    	add    %eax,0x5010613
    10c1:	05 58 05 09 00       	add    $0x90558,%eax
    10c6:	02 04 03             	add    (%ebx,%eax,1),%al
    10c9:	06                   	push   %es
    10ca:	2f                   	das    
    10cb:	05 1f 00 02 04       	add    $0x402001f,%eax
    10d0:	03 06                	add    (%esi),%eax
    10d2:	01 05 37 00 02 04    	add    %eax,0x4020037
    10d8:	03 06                	add    (%esi),%eax
    10da:	ff 05 1c 00 02 04    	incl   0x402001c
    10e0:	01 3c 05 05 77 05 0b 	add    %edi,0xb057705(,%eax,1)
    10e7:	06                   	push   %es
    10e8:	01 05 05 06 9f 05    	add    %eax,0x59f0605
    10ee:	0b 06                	or     (%esi),%eax
    10f0:	01 05 01 91 05 1e    	add    %eax,0x1e059101
    10f6:	06                   	push   %es
    10f7:	03 b9 7f 20 06 01    	add    0x106207f(%ecx),%edi
    10fd:	05 05 06 67 05       	add    $0x5670605,%eax
    1102:	14 06                	adc    $0x6,%al
    1104:	01 05 05 06 83 05    	add    %eax,0x5830605
    110a:	01 06                	add    %eax,(%esi)
    110c:	59                   	pop    %ecx
    110d:	02 02                	add    (%edx),%al
    110f:	00 01                	add    %al,(%ecx)
    1111:	01 66 00             	add    %esp,0x0(%esi)
    1114:	00 00                	add    %al,(%eax)
    1116:	05 00 04 00 40       	add    $0x40000400,%eax
    111b:	00 00                	add    %al,(%eax)
    111d:	00 01                	add    %al,(%ecx)
    111f:	01 01                	add    %eax,(%ecx)
    1121:	fb                   	sti    
    1122:	0e                   	push   %cs
    1123:	0d 00 01 01 01       	or     $0x1010100,%eax
    1128:	01 00                	add    %eax,(%eax)
    112a:	00 00                	add    %al,(%eax)
    112c:	01 00                	add    %eax,(%eax)
    112e:	00 01                	add    %al,(%ecx)
    1130:	01 01                	add    %eax,(%ecx)
    1132:	1f                   	pop    %ds
    1133:	04 00                	add    $0x0,%al
    1135:	00 00                	add    %al,(%eax)
    1137:	00 44 02 00          	add    %al,0x0(%edx,%eax,1)
    113b:	00 69 00             	add    %ch,0x0(%ecx)
    113e:	00 00                	add    %al,(%eax)
    1140:	a4                   	movsb  %ds:(%esi),%es:(%edi)
    1141:	01 00                	add    %eax,(%eax)
    1143:	00 02                	add    %al,(%edx)
    1145:	01 1f                	add    %ebx,(%edi)
    1147:	02 0f                	add    (%edi),%cl
    1149:	04 2b                	add    $0x2b,%al
    114b:	02 00                	add    (%eax),%al
    114d:	00 00                	add    %al,(%eax)
    114f:	3b 02                	cmp    (%edx),%eax
    1151:	00 00                	add    %al,(%eax)
    1153:	01 54 02 00          	add    %edx,0x0(%edx,%eax,1)
    1157:	00 02                	add    %al,(%edx)
    1159:	bb 01 00 00 03       	mov    $0x3000001,%ebx
    115e:	05 01 00 05 02       	add    $0x2050001,%eax
    1163:	29 6d 10             	sub    %ebp,0x10(%ebp)
    1166:	c0 1a 06             	rcrb   $0x6,(%edx)
    1169:	01 05 05 06 9f 13    	add    %eax,0x139f0605
    116f:	13 3d f3 15 05 01    	adc    0x10515f3,%edi
    1175:	06                   	push   %es
    1176:	83 02 08             	addl   $0x8,(%edx)
    1179:	00 01                	add    %al,(%ecx)
    117b:	01 c9                	add    %ecx,%ecx
    117d:	01 00                	add    %eax,(%eax)
    117f:	00 05 00 04 00 4a    	add    %al,0x4a000400
    1185:	00 00                	add    %al,(%eax)
    1187:	00 01                	add    %al,(%ecx)
    1189:	01 01                	add    %eax,(%ecx)
    118b:	fb                   	sti    
    118c:	0e                   	push   %cs
    118d:	0d 00 01 01 01       	or     $0x1010100,%eax
    1192:	01 00                	add    %eax,(%eax)
    1194:	00 00                	add    %al,(%eax)
    1196:	01 00                	add    %eax,(%eax)
    1198:	00 01                	add    %al,(%ecx)
    119a:	01 01                	add    %eax,(%ecx)
    119c:	1f                   	pop    %ds
    119d:	04 00                	add    $0x0,%al
    119f:	00 00                	add    %al,(%eax)
    11a1:	00 44 02 00          	add    %al,0x0(%edx,%eax,1)
    11a5:	00 69 00             	add    %ch,0x0(%ecx)
    11a8:	00 00                	add    %al,(%eax)
    11aa:	77 01                	ja     11ad <start_-0xfee5f>
    11ac:	00 00                	add    %al,(%eax)
    11ae:	02 01                	add    (%ecx),%al
    11b0:	1f                   	pop    %ds
    11b1:	02 0f                	add    (%edi),%cl
    11b3:	06                   	push   %es
    11b4:	5d                   	pop    %ebp
    11b5:	02 00                	add    (%eax),%al
    11b7:	00 00                	add    %al,(%eax)
    11b9:	6d                   	insl   (%dx),%es:(%edi)
    11ba:	02 00                	add    (%eax),%al
    11bc:	00 01                	add    %al,(%ecx)
    11be:	54                   	push   %esp
    11bf:	02 00                	add    (%eax),%al
    11c1:	00 02                	add    %al,(%edx)
    11c3:	c1 01 00             	roll   $0x0,(%ecx)
    11c6:	00 02                	add    %al,(%edx)
    11c8:	ca 00 00             	lret   $0x0
    11cb:	00 02                	add    %al,(%edx)
    11cd:	06                   	push   %es
    11ce:	02 00                	add    (%eax),%al
    11d0:	00 03                	add    %al,(%ebx)
    11d2:	05 01 00 05 02       	add    $0x2050001,%eax
    11d7:	56                   	push   %esi
    11d8:	6d                   	insl   (%dx),%es:(%edi)
    11d9:	10 c0                	adc    %al,%al
    11db:	1a 06                	sbb    (%esi),%al
    11dd:	01 05 05 06 bb 13    	add    %eax,0x13bb0605
    11e3:	13 13                	adc    (%ebx),%edx
    11e5:	05 12 06 01 05       	add    $0x5010612,%eax
    11ea:	05 06 75 05 12       	add    $0x12057506,%eax
    11ef:	06                   	push   %es
    11f0:	10 05 0b 5a 05 0d    	adc    %al,0xd055a0b
    11f6:	06                   	push   %es
    11f7:	33 05 11 06 01 05    	xor    0x5010611,%eax
    11fd:	0d 06 75 05 10       	or     $0x10057506,%eax
    1202:	06                   	push   %es
    1203:	01 05 0d 06 3d 05    	add    %eax,0x53d060d
    1209:	17                   	pop    %ss
    120a:	06                   	push   %es
    120b:	01 05 0d 4a 05 15    	add    %eax,0x15054a0d
    1211:	06                   	push   %es
    1212:	02 27                	add    (%edi),%ah
    1214:	14 05                	adc    $0x5,%al
    1216:	29 06                	sub    %eax,(%esi)
    1218:	01 05 21 ac 05 15    	add    %eax,0x1505ac21
    121e:	06                   	push   %es
    121f:	67 05 19 06 01 05    	addr16 add $0x5010619,%eax
    1225:	15 06 75 05 09       	adc    $0x9057506,%eax
    122a:	03 3a                	add    (%edx),%edi
    122c:	01 05 0c 06 01 05    	add    %eax,0x501060c
    1232:	09 06                	or     %eax,(%esi)
    1234:	3d 05 0d 06 01       	cmp    $0x1060d05,%eax
    1239:	05 0c 06 03 ba       	add    $0xba03060c,%eax
    123e:	7f 3c                	jg     127c <start_-0xfed90>
    1240:	05 0f 06 01 05       	add    $0x501060f,%eax
    1245:	0c 3c                	or     $0x3c,%al
    1247:	05 09 06 83 05       	add    $0x5830609,%eax
    124c:	0c 06                	or     $0x6,%al
    124e:	01 05 0d 06 4b 05    	add    %eax,0x54b060d
    1254:	19 06                	sbb    %eax,(%esi)
    1256:	01 05 0d 06 67 05    	add    %eax,0x567060d
    125c:	11 06                	adc    %eax,(%esi)
    125e:	01 05 15 06 03 0b    	add    %eax,0xb030615
    1264:	ac                   	lods   %ds:(%esi),%al
    1265:	05 1b 06 01 05       	add    $0x501061b,%eax
    126a:	15 06 ad e5 05       	adc    $0x5e5ad06,%eax
    126f:	1b 06                	sbb    (%esi),%eax
    1271:	01 05 19 82 05 15    	add    %eax,0x15058219
    1277:	06                   	push   %es
    1278:	3d 06 58 06 17       	cmp    $0x17065806,%eax
    127d:	05 19 06 01 05       	add    $0x5010619,%eax
    1282:	15 06 ad 08 21       	adc    $0x2108ad06,%eax
    1287:	06                   	push   %es
    1288:	58                   	pop    %eax
    1289:	06                   	push   %es
    128a:	15 05 22 06 01       	adc    $0x1062205,%eax
    128f:	05 15 06 ad 08       	add    $0x8ad0615,%eax
    1294:	21 06                	and    %eax,(%esi)
    1296:	82 06 15             	addb   $0x15,(%esi)
    1299:	05 19 06 01 05       	add    $0x5010619,%eax
    129e:	15 06 ad 08 21       	adc    $0x2108ad06,%eax
    12a3:	06                   	push   %es
    12a4:	82 06 17             	addb   $0x17,(%esi)
    12a7:	05 19 06 01 05       	add    $0x5010619,%eax
    12ac:	15 06 ad 08 21       	adc    $0x2108ad06,%eax
    12b1:	05 18 06 01 05       	add    $0x5010618,%eax
    12b6:	19 06                	sbb    %eax,(%esi)
    12b8:	c9                   	leave  
    12b9:	05 1d 06 01 05       	add    $0x501061d,%eax
    12be:	19 06                	sbb    %eax,(%esi)
    12c0:	2f                   	das    
    12c1:	13 05 1f 06 66 05    	adc    0x566061f,%eax
    12c7:	1d 06 2f 05 3c       	sbb    $0x3c052f06,%eax
    12cc:	06                   	push   %es
    12cd:	01 05 2c 82 05 27    	add    %eax,0x2705822c
    12d3:	4a                   	dec    %edx
    12d4:	05 1d 06 2f 05       	add    $0x52f061d,%eax
    12d9:	1e                   	push   %ds
    12da:	06                   	push   %es
    12db:	01 05 20 06 3a 05    	add    %eax,0x53a0620
    12e1:	2c 06                	sub    $0x6,%al
    12e3:	01 05 24 3c 05 20    	add    %eax,0x20053c24
    12e9:	3c 4a                	cmp    $0x4a,%al
    12eb:	82 05 15 06 1a 05 1f 	addb   $0x1f,0x51a0615
    12f2:	06                   	push   %es
    12f3:	01 05 15 06 ad 05    	add    %eax,0x5ad0615
    12f9:	21 06                	and    %eax,(%esi)
    12fb:	01 05 15 06 75 05    	add    %eax,0x5750615
    1301:	23 06                	and    (%esi),%eax
    1303:	01 05 15 06 59 08    	add    %eax,0x8590615
    1309:	13 05 18 06 01 05    	adc    0x5010618,%eax
    130f:	15 06 4b 06 82       	adc    $0x82064b06,%eax
    1314:	06                   	push   %es
    1315:	15 05 21 06 01       	adc    $0x1062105,%eax
    131a:	05 15 06 67 05       	add    $0x5670615,%eax
    131f:	19 06                	sbb    %eax,(%esi)
    1321:	01 05 15 06 75 05    	add    %eax,0x5750615
    1327:	05 03 0a 58 05       	add    $0x5580a03,%eax
    132c:	11 06                	adc    %eax,(%esi)
    132e:	01 3c 05 01 4b 4a 06 	add    %edi,0x64a4b01(,%eax,1)
    1335:	4e                   	dec    %esi
    1336:	06                   	push   %es
    1337:	01 05 05 06 67 13    	add    %eax,0x13670605
    133d:	3d bb 05 01 06       	cmp    $0x60105bb,%eax
    1342:	13 4a 02             	adc    0x2(%edx),%ecx
    1345:	01 00                	add    %eax,(%eax)
    1347:	01 01                	add    %eax,(%ecx)
    1349:	72 01                	jb     134c <start_-0xfecc0>
    134b:	00 00                	add    %al,(%eax)
    134d:	05 00 04 00 2e       	add    $0x2e000400,%eax
    1352:	00 00                	add    %al,(%eax)
    1354:	00 01                	add    %al,(%ecx)
    1356:	01 01                	add    %eax,(%ecx)
    1358:	fb                   	sti    
    1359:	0e                   	push   %cs
    135a:	0d 00 01 01 01       	or     $0x1010100,%eax
    135f:	01 00                	add    %eax,(%eax)
    1361:	00 00                	add    %al,(%eax)
    1363:	01 00                	add    %eax,(%eax)
    1365:	00 01                	add    %al,(%ecx)
    1367:	01 01                	add    %eax,(%ecx)
    1369:	1f                   	pop    %ds
    136a:	02 00                	add    (%eax),%al
    136c:	00 00                	add    %al,(%eax)
    136e:	00 8f 02 00 00 02    	add    %cl,0x2000002(%edi)
    1374:	01 1f                	add    %ebx,(%edi)
    1376:	02 0f                	add    (%edi),%cl
    1378:	02 77 02             	add    0x2(%edi),%dh
    137b:	00 00                	add    %al,(%eax)
    137d:	00 88 02 00 00 01    	add    %cl,0x1000002(%eax)
    1383:	05 01 00 05 02       	add    $0x2050001,%eax
    1388:	3f                   	aas    
    1389:	6f                   	outsl  %ds:(%esi),(%dx)
    138a:	10 c0                	adc    %al,%al
    138c:	1a 06                	sbb    (%esi),%al
    138e:	01 05 05 06 08 21    	add    %eax,0x21080605
    1394:	05 12 06 01 05       	add    $0x5010612,%eax
    1399:	05 00 02 04 01       	add    $0x1040200,%eax
    139e:	06                   	push   %es
    139f:	59                   	pop    %ecx
    13a0:	05 09 00 02 04       	add    $0x4020009,%eax
    13a5:	01 13                	add    %edx,(%ebx)
    13a7:	05 24 00 02 04       	add    $0x4020024,%eax
    13ac:	01 06                	add    %eax,(%esi)
    13ae:	01 05 1d 00 02 04    	add    %eax,0x402001d
    13b4:	01 90 05 12 00 02    	add    %edx,0x2001205(%eax)
    13ba:	04 01                	add    $0x1,%al
    13bc:	74 05                	je     13c3 <start_-0xfec49>
    13be:	09 00                	or     %eax,(%eax)
    13c0:	02 04 01             	add    (%ecx,%eax,1),%al
    13c3:	06                   	push   %es
    13c4:	3d 05 0f 00 02       	cmp    $0x2000f05,%eax
    13c9:	04 01                	add    $0x1,%al
    13cb:	06                   	push   %es
    13cc:	2e 05 09 00 02 04    	cs add $0x4020009,%eax
    13d2:	01 06                	add    %eax,(%esi)
    13d4:	2f                   	das    
    13d5:	05 0c 00 02 04       	add    $0x402000c,%eax
    13da:	01 06                	add    %eax,(%esi)
    13dc:	01 05 0e 00 02 04    	add    %eax,0x402000e
    13e2:	01 06                	add    %eax,(%esi)
    13e4:	3d 05 17 06 4c       	cmp    $0x4c061705,%eax
    13e9:	58                   	pop    %eax
    13ea:	05 09 00 02 04       	add    $0x4020009,%eax
    13ef:	03 06                	add    (%esi),%eax
    13f1:	59                   	pop    %ecx
    13f2:	05 15 00 02 04       	add    $0x4020015,%eax
    13f7:	03 06                	add    (%esi),%eax
    13f9:	01 05 0e 00 02 04    	add    %eax,0x402000e
    13ff:	03 3c 05 09 00 02 04 	add    0x4020009(,%eax,1),%edi
    1406:	03 06                	add    (%esi),%eax
    1408:	3d 05 1a 00 02       	cmp    $0x2001a05,%eax
    140d:	04 03                	add    $0x3,%al
    140f:	06                   	push   %es
    1410:	01 05 15 00 02 04    	add    %eax,0x4020015
    1416:	03 58 05             	add    0x5(%eax),%ebx
    1419:	10 00                	adc    %al,(%eax)
    141b:	02 04 03             	add    (%ebx,%eax,1),%al
    141e:	4a                   	dec    %edx
    141f:	05 09 00 02 04       	add    $0x4020009,%eax
    1424:	03 06                	add    (%esi),%eax
    1426:	59                   	pop    %ecx
    1427:	05 1a 00 02 04       	add    $0x402001a,%eax
    142c:	03 06                	add    (%esi),%eax
    142e:	01 05 2f 00 02 04    	add    %eax,0x402002f
    1434:	03 06                	add    (%esi),%eax
    1436:	47                   	inc    %edi
    1437:	05 20 00 02 04       	add    $0x4020020,%eax
    143c:	01 3c 05 27 00 02 04 	add    %edi,0x4020027(,%eax,1)
    1443:	01 06                	add    %eax,(%esi)
    1445:	01 05 20 00 02 04    	add    %eax,0x4020020
    144b:	01 58 05             	add    %ebx,0x5(%eax)
    144e:	0e                   	push   %cs
    144f:	4f                   	dec    %edi
    1450:	05 05 06 3c 05       	add    $0x53c0605,%eax
    1455:	0e                   	push   %cs
    1456:	06                   	push   %es
    1457:	01 05 05 06 4b 05    	add    %eax,0x54b0605
    145d:	08 06                	or     %al,(%esi)
    145f:	01 05 09 06 67 05    	add    %eax,0x5670609
    1465:	0f 06                	clts   
    1467:	01 3c 05 05 06 30 05 	add    %edi,0x5300605(,%eax,1)
    146e:	01 06                	add    %eax,(%esi)
    1470:	13 06                	adc    (%esi),%eax
    1472:	a2 06 01 05 05       	mov    %al,0x5050106
    1477:	06                   	push   %es
    1478:	e5 05                	in     $0x5,%eax
    147a:	0f 06                	clts   
    147c:	01 05 1b 82 05 08    	add    %eax,0x805821b
    1482:	66 05 09 06          	add    $0x609,%ax
    1486:	4b                   	dec    %ebx
    1487:	05 10 06 01 05       	add    $0x5010610,%eax
    148c:	09 06                	or     %eax,(%esi)
    148e:	3d 05 2a 06 01       	cmp    $0x1062a05,%eax
    1493:	05 09 06 59 06       	add    $0x6590609,%eax
    1498:	ba 05 05 06 41       	mov    $0x41060505,%edx
    149d:	05 01 06 13 90       	add    $0x90130601,%eax
    14a2:	05 09 06 1c 06       	add    $0x61c0609,%eax
    14a7:	ac                   	lods   %ds:(%esi),%al
    14a8:	05 01 06 60 06       	add    $0x6600601,%eax
    14ad:	01 05 05 06 3d 05    	add    %eax,0x53d0605
    14b3:	0c 06                	or     $0x6,%al
    14b5:	01 05 01 f3 20 02    	add    %eax,0x220f301
    14bb:	01 00                	add    %eax,(%eax)
    14bd:	01 01                	add    %eax,(%ecx)
    14bf:	7d 01                	jge    14c2 <start_-0xfeb4a>
    14c1:	00 00                	add    %al,(%eax)
    14c3:	05 00 04 00 3c       	add    $0x3c000400,%eax
    14c8:	00 00                	add    %al,(%eax)
    14ca:	00 01                	add    %al,(%ecx)
    14cc:	01 01                	add    %eax,(%ecx)
    14ce:	fb                   	sti    
    14cf:	0e                   	push   %cs
    14d0:	0d 00 01 01 01       	or     $0x1010100,%eax
    14d5:	01 00                	add    %eax,(%eax)
    14d7:	00 00                	add    %al,(%eax)
    14d9:	01 00                	add    %eax,(%eax)
    14db:	00 01                	add    %al,(%ecx)
    14dd:	01 01                	add    %eax,(%ecx)
    14df:	1f                   	pop    %ds
    14e0:	03 00                	add    (%eax),%eax
    14e2:	00 00                	add    %al,(%eax)
    14e4:	00 b7 02 00 00 69    	add    %dh,0x69000002(%edi)
    14ea:	00 00                	add    %al,(%eax)
    14ec:	00 02                	add    %al,(%edx)
    14ee:	01 1f                	add    %ebx,(%edi)
    14f0:	02 0f                	add    (%edi),%cl
    14f2:	04 a0                	add    $0xa0,%al
    14f4:	02 00                	add    (%eax),%al
    14f6:	00 00                	add    %al,(%eax)
    14f8:	b1 02                	mov    $0x2,%cl
    14fa:	00 00                	add    %al,(%eax)
    14fc:	01 ca                	add    %ecx,%edx
    14fe:	00 00                	add    %al,(%eax)
    1500:	00 02                	add    %al,(%edx)
    1502:	c1 01 00             	roll   $0x0,(%ecx)
    1505:	00 02                	add    %al,(%edx)
    1507:	05 01 00 05 02       	add    $0x2050001,%eax
    150c:	25 70 10 c0 17       	and    $0x17c01070,%eax
    1511:	06                   	push   %es
    1512:	01 05 05 06 d7 13    	add    %eax,0x13d70605
    1518:	13 05 0a 01 05 11    	adc    0x1105010a,%eax
    151e:	06                   	push   %es
    151f:	01 05 05 58 05 09    	add    %eax,0x9055805
    1525:	00 02                	add    %al,(%edx)
    1527:	04 03                	add    $0x3,%al
    1529:	06                   	push   %es
    152a:	2f                   	das    
    152b:	05 1b 00 02 04       	add    $0x402001b,%eax
    1530:	03 06                	add    (%esi),%eax
    1532:	01 05 19 00 02 04    	add    %eax,0x4020019
    1538:	03 4a 05             	add    0x5(%edx),%ecx
    153b:	22 00                	and    (%eax),%al
    153d:	02 04 03             	add    (%ebx,%eax,1),%al
    1540:	06                   	push   %es
    1541:	3b 05 1a 00 02 04    	cmp    0x402001a,%eax
    1547:	01 3c 05 05 4d 05 01 	add    %edi,0x1054d05(,%eax,1)
    154e:	06                   	push   %es
    154f:	13 2e                	adc    (%esi),%ebp
    1551:	20 20                	and    %ah,(%eax)
    1553:	06                   	push   %es
    1554:	32 06                	xor    (%esi),%al
    1556:	01 05 05 06 d7 13    	add    %eax,0x13d70605
    155c:	13 05 08 06 01 05    	adc    0x5010608,%eax
    1562:	15 4b 05 0d 00       	adc    $0xd054b,%eax
    1567:	02 04 03             	add    (%ebx,%eax,1),%al
    156a:	06                   	push   %es
    156b:	75 05                	jne    1572 <start_-0xfea9a>
    156d:	1d 00 02 04 03       	sbb    $0x3040200,%eax
    1572:	06                   	push   %es
    1573:	01 05 26 00 02 04    	add    %eax,0x4020026
    1579:	03 06                	add    (%esi),%eax
    157b:	73 05                	jae    1582 <start_-0xfea8a>
    157d:	1e                   	push   %ds
    157e:	00 02                	add    %al,(%edx)
    1580:	04 01                	add    $0x1,%al
    1582:	3c 00                	cmp    $0x0,%al
    1584:	02 04 01             	add    (%ecx,%eax,1),%al
    1587:	06                   	push   %es
    1588:	4a                   	dec    %edx
    1589:	05 05 06 1a 05       	add    $0x51a0605,%eax
    158e:	01 06                	add    %eax,(%esi)
    1590:	13 3c 05 0d 00 02 04 	adc    0x402000d(,%eax,1),%edi
    1597:	03 06                	add    (%esi),%eax
    1599:	38 05 31 00 02 04    	cmp    %al,0x4020031
    159f:	03 06                	add    (%esi),%eax
    15a1:	01 05 23 00 02 04    	add    %eax,0x4020023
    15a7:	03 3c 05 21 00 02 04 	add    0x4020021(,%eax,1),%edi
    15ae:	03 4a 05             	add    0x5(%edx),%ecx
    15b1:	27                   	daa    
    15b2:	00 02                	add    %al,(%edx)
    15b4:	04 03                	add    $0x3,%al
    15b6:	06                   	push   %es
    15b7:	3b 05 20 00 02 04    	cmp    0x4020020,%eax
    15bd:	01 01                	add    %eax,(%ecx)
    15bf:	05 01 03 09 66       	add    $0x66090301,%eax
    15c4:	06                   	push   %es
    15c5:	01 05 05 06 c9 13    	add    %eax,0x13c90605
    15cb:	05 0a 01 05 11       	add    $0x1105010a,%eax
    15d0:	06                   	push   %es
    15d1:	01 05 05 58 05 09    	add    %eax,0x9055805
    15d7:	00 02                	add    %al,(%edx)
    15d9:	04 03                	add    $0x3,%al
    15db:	06                   	push   %es
    15dc:	2f                   	das    
    15dd:	05 16 00 02 04       	add    $0x4020016,%eax
    15e2:	03 06                	add    (%esi),%eax
    15e4:	01 05 22 00 02 04    	add    %eax,0x4020022
    15ea:	03 06                	add    (%esi),%eax
    15ec:	3b 05 1a 00 02 04    	cmp    0x402001a,%eax
    15f2:	01 3c 05 05 4d 05 01 	add    %edi,0x1054d05(,%eax,1)
    15f9:	06                   	push   %es
    15fa:	13 2e                	adc    (%esi),%ebp
    15fc:	4a                   	dec    %edx
    15fd:	06                   	push   %es
    15fe:	24 06                	and    $0x6,%al
    1600:	01 05 05 06 e5 13    	add    %eax,0x13e50605
    1606:	13 05 0a 01 05 11    	adc    0x1105010a,%eax
    160c:	06                   	push   %es
    160d:	01 05 05 58 05 22    	add    %eax,0x22055805
    1613:	00 02                	add    %al,(%edx)
    1615:	04 02                	add    $0x2,%al
    1617:	06                   	push   %es
    1618:	2e 05 1a 00 02 04    	cs add $0x402001a,%eax
    161e:	01 3c 05 09 4b 05 14 	add    %edi,0x14054b09(,%eax,1)
    1625:	06                   	push   %es
    1626:	01 05 20 4a 05 09    	add    %eax,0x9054a20
    162c:	06                   	push   %es
    162d:	4b                   	dec    %ebx
    162e:	05 0c 06 01 2e       	add    $0x2e01060c,%eax
    1633:	4a                   	dec    %edx
    1634:	16                   	push   %ss
    1635:	05 01 59 20 20       	add    $0x20205901,%eax
    163a:	20 02                	and    %al,(%edx)
    163c:	02 00                	add    (%eax),%al
    163e:	01 01                	add    %eax,(%ecx)
    1640:	82 00 00             	addb   $0x0,(%eax)
    1643:	00 05 00 04 00 2e    	add    %al,0x2e000400
    1649:	00 00                	add    %al,(%eax)
    164b:	00 01                	add    %al,(%ecx)
    164d:	01 01                	add    %eax,(%ecx)
    164f:	fb                   	sti    
    1650:	0e                   	push   %cs
    1651:	0d 00 01 01 01       	or     $0x1010100,%eax
    1656:	01 00                	add    %eax,(%eax)
    1658:	00 00                	add    %al,(%eax)
    165a:	01 00                	add    %eax,(%eax)
    165c:	00 01                	add    %al,(%ecx)
    165e:	01 01                	add    %eax,(%ecx)
    1660:	1f                   	pop    %ds
    1661:	02 00                	add    (%eax),%al
    1663:	00 00                	add    %al,(%eax)
    1665:	00 b7 02 00 00 02    	add    %dh,0x2000002(%edi)
    166b:	01 1f                	add    %ebx,(%edi)
    166d:	02 0f                	add    (%edi),%cl
    166f:	02 c8                	add    %al,%cl
    1671:	02 00                	add    (%eax),%al
    1673:	00 00                	add    %al,(%eax)
    1675:	d9 02                	flds   (%edx)
    1677:	00 00                	add    %al,(%eax)
    1679:	01 05 25 00 05 02    	add    %eax,0x2050025
    167f:	e5 70                	in     $0x70,%eax
    1681:	10 c0                	adc    %al,%al
    1683:	15 06 01 05 05       	adc    $0x5050106,%eax
    1688:	06                   	push   %es
    1689:	9f                   	lahf   
    168a:	13 13                	adc    (%ebx),%edx
    168c:	05 12 06 11 05       	add    $0x5110612,%eax
    1691:	0b 59 05             	or     0x5(%ecx),%ebx
    1694:	09 06                	or     %eax,(%esi)
    1696:	30 05 11 06 01 05    	xor    %al,0x5010611
    169c:	09 06                	or     %eax,(%esi)
    169e:	3d 05 0a 06 01       	cmp    $0x1060a05,%eax
    16a3:	05 0c 06 39 05       	add    $0x539060c,%eax
    16a8:	0f 06                	clts   
    16aa:	01 05 0c 4a 05 05    	add    %eax,0x5054a0c
    16b0:	06                   	push   %es
    16b1:	4f                   	dec    %edi
    16b2:	05 0d 06 01 05       	add    $0x501060d,%eax
    16b7:	05 06 4b 05 01       	add    $0x1054b06,%eax
    16bc:	06                   	push   %es
    16bd:	13 2e                	adc    (%esi),%ebp
    16bf:	3c 20                	cmp    $0x20,%al
    16c1:	02 01                	add    (%ecx),%al
    16c3:	00 01                	add    %al,(%ecx)
    16c5:	01 6d 00             	add    %ebp,0x0(%ebp)
    16c8:	00 00                	add    %al,(%eax)
    16ca:	05 00 04 00 37       	add    $0x37000400,%eax
    16cf:	00 00                	add    %al,(%eax)
    16d1:	00 01                	add    %al,(%ecx)
    16d3:	01 01                	add    %eax,(%ecx)
    16d5:	fb                   	sti    
    16d6:	0e                   	push   %cs
    16d7:	0d 00 01 01 01       	or     $0x1010100,%eax
    16dc:	01 00                	add    %eax,(%eax)
    16de:	00 00                	add    %al,(%eax)
    16e0:	01 00                	add    %eax,(%eax)
    16e2:	00 01                	add    %al,(%ecx)
    16e4:	01 01                	add    %eax,(%ecx)
    16e6:	1f                   	pop    %ds
    16e7:	03 00                	add    (%eax),%eax
    16e9:	00 00                	add    %al,(%eax)
    16eb:	00 b7 02 00 00 69    	add    %dh,0x69000002(%edi)
    16f1:	00 00                	add    %al,(%eax)
    16f3:	00 02                	add    %al,(%edx)
    16f5:	01 1f                	add    %ebx,(%edi)
    16f7:	02 0f                	add    (%edi),%cl
    16f9:	03 e2                	add    %edx,%esp
    16fb:	02 00                	add    (%eax),%al
    16fd:	00 00                	add    %al,(%eax)
    16ff:	f3 02 00             	repz add (%eax),%al
    1702:	00 01                	add    %al,(%ecx)
    1704:	c1 01 00             	roll   $0x0,(%ecx)
    1707:	00 02                	add    %al,(%edx)
    1709:	05 01 00 05 02       	add    $0x2050001,%eax
    170e:	0f 71                	(bad)  
    1710:	10 c0                	adc    %al,%al
    1712:	16                   	push   %ss
    1713:	06                   	push   %es
    1714:	01 05 05 06 67 13    	add    %eax,0x13670605
    171a:	05 0c 06 11 05       	add    $0x511060c,%eax
    171f:	0b 59 05             	or     0x5(%ecx),%ebx
    1722:	09 06                	or     %eax,(%esi)
    1724:	2f                   	das    
    1725:	05 0c 06 01 06       	add    $0x601060c,%eax
    172a:	3b 05 05 68 05 01    	cmp    0x1056805,%eax
    1730:	06                   	push   %es
    1731:	13 02                	adc    (%edx),%eax
    1733:	02 00                	add    (%eax),%al
    1735:	01 01                	add    %eax,(%ecx)

Disassembly of section .debug_str:

00000000 <.debug_str>:
   0:	66 72 61             	data16 jb 64 <start_-0xfffa8>
   3:	6d                   	insl   (%dx),%es:(%edi)
   4:	65 62 75 66          	bound  %esi,%gs:0x66(%ebp)
   8:	66 65 72 5f          	data16 gs jb 6b <start_-0xfffa1>
   c:	62 6c 75 65          	bound  %ebp,0x65(%ebp,%esi,2)
  10:	5f                   	pop    %edi
  11:	6d                   	insl   (%dx),%es:(%edi)
  12:	61                   	popa   
  13:	73 6b                	jae    80 <start_-0xfff8c>
  15:	5f                   	pop    %edi
  16:	73 69                	jae    81 <start_-0xfff8b>
  18:	7a 65                	jp     7f <start_-0xfff8d>
  1a:	00 66 72             	add    %ah,0x72(%esi)
  1d:	61                   	popa   
  1e:	6d                   	insl   (%dx),%es:(%edi)
  1f:	65 62 75 66          	bound  %esi,%gs:0x66(%ebp)
  23:	66 65 72 5f          	data16 gs jb 86 <start_-0xfff86>
  27:	61                   	popa   
  28:	64 64 72 00          	fs fs jb 2c <start_-0xfffe0>
  2c:	6d                   	insl   (%dx),%es:(%edi)
  2d:	75 6c                	jne    9b <start_-0xfff71>
  2f:	74 69                	je     9a <start_-0xfff72>
  31:	62 6f 6f             	bound  %ebp,0x6f(%edi)
  34:	74 5f                	je     95 <start_-0xfff77>
  36:	73 79                	jae    b1 <start_-0xfff5b>
  38:	6d                   	insl   (%dx),%es:(%edi)
  39:	62 6f 6c             	bound  %ebp,0x6c(%edi)
  3c:	5f                   	pop    %edi
  3d:	74 61                	je     a0 <start_-0xfff6c>
  3f:	62 6c 65 00          	bound  %ebp,0x0(%ebp,%eiz,2)
  43:	66 72 61             	data16 jb a7 <start_-0xfff65>
  46:	6d                   	insl   (%dx),%es:(%edi)
  47:	65 62 75 66          	bound  %esi,%gs:0x66(%ebp)
  4b:	66 65 72 5f          	data16 gs jb ae <start_-0xfff5e>
  4f:	67 72 65             	addr16 jb b7 <start_-0xfff55>
  52:	65 6e                	outsb  %gs:(%esi),(%dx)
  54:	5f                   	pop    %edi
  55:	66 69 65 6c 64 5f    	imul   $0x5f64,0x6c(%ebp),%sp
  5b:	70 6f                	jo     cc <start_-0xfff40>
  5d:	73 69                	jae    c8 <start_-0xfff44>
  5f:	74 69                	je     ca <start_-0xfff42>
  61:	6f                   	outsl  %ds:(%esi),(%dx)
  62:	6e                   	outsb  %ds:(%esi),(%dx)
  63:	00 6d 75             	add    %ch,0x75(%ebp)
  66:	6c                   	insb   (%dx),%es:(%edi)
  67:	74 69                	je     d2 <start_-0xfff3a>
  69:	62 6f 6f             	bound  %ebp,0x6f(%edi)
  6c:	74 5f                	je     cd <start_-0xfff3f>
  6e:	75 69                	jne    d9 <start_-0xfff33>
  70:	6e                   	outsb  %ds:(%esi),(%dx)
  71:	74 33                	je     a6 <start_-0xfff66>
  73:	32 5f 74             	xor    0x74(%edi),%bl
  76:	00 73 68             	add    %dh,0x68(%ebx)
  79:	6f                   	outsl  %ds:(%esi),(%dx)
  7a:	72 74                	jb     f0 <start_-0xfff1c>
  7c:	20 69 6e             	and    %ch,0x6e(%ecx)
  7f:	74 00                	je     81 <start_-0xfff8b>
  81:	6d                   	insl   (%dx),%es:(%edi)
  82:	75 6c                	jne    f0 <start_-0xfff1c>
  84:	74 69                	je     ef <start_-0xfff1d>
  86:	62 6f 6f             	bound  %ebp,0x6f(%edi)
  89:	74 5f                	je     ea <start_-0xfff22>
  8b:	75 69                	jne    f6 <start_-0xfff16>
  8d:	6e                   	outsb  %ds:(%esi),(%dx)
  8e:	74 31                	je     c1 <start_-0xfff4b>
  90:	36 5f                	ss pop %edi
  92:	74 00                	je     94 <start_-0xfff78>
  94:	66 72 61             	data16 jb f8 <start_-0xfff14>
  97:	6d                   	insl   (%dx),%es:(%edi)
  98:	65 62 75 66          	bound  %esi,%gs:0x66(%ebp)
  9c:	66 65 72 5f          	data16 gs jb ff <start_-0xfff0d>
  a0:	72 65                	jb     107 <start_-0xfff05>
  a2:	64 5f                	fs pop %edi
  a4:	66 69 65 6c 64 5f    	imul   $0x5f64,0x6c(%ebp),%sp
  aa:	70 6f                	jo     11b <start_-0xffef1>
  ac:	73 69                	jae    117 <start_-0xffef5>
  ae:	74 69                	je     119 <start_-0xffef3>
  b0:	6f                   	outsl  %ds:(%esi),(%dx)
  b1:	6e                   	outsb  %ds:(%esi),(%dx)
  b2:	00 64 72 69          	add    %ah,0x69(%edx,%esi,2)
  b6:	76 65                	jbe    11d <start_-0xffeef>
  b8:	73 5f                	jae    119 <start_-0xffef3>
  ba:	61                   	popa   
  bb:	64 64 72 00          	fs fs jb bf <start_-0xfff4d>
  bf:	63 6d 64             	arpl   %bp,0x64(%ebp)
  c2:	6c                   	insb   (%dx),%es:(%edi)
  c3:	69 6e 65 00 6b 65 72 	imul   $0x72656b00,0x65(%esi),%ebp
  ca:	6e                   	outsb  %ds:(%esi),(%dx)
  cb:	65 6c                	gs insb (%dx),%es:(%edi)
  cd:	5f                   	pop    %edi
  ce:	70 74                	jo     144 <start_-0xffec8>
  d0:	65 5f                	gs pop %edi
  d2:	69 6e 64 65 78 00 61 	imul   $0x61007865,0x64(%esi),%ebp
  d9:	6f                   	outsl  %ds:(%esi),(%dx)
  da:	75 74                	jne    150 <start_-0xffebc>
  dc:	5f                   	pop    %edi
  dd:	73 79                	jae    158 <start_-0xffeb4>
  df:	6d                   	insl   (%dx),%es:(%edi)
  e0:	00 6d 6f             	add    %ch,0x6f(%ebp)
  e3:	64 73 5f             	fs jae 145 <start_-0xffec7>
  e6:	61                   	popa   
  e7:	64 64 72 00          	fs fs jb eb <start_-0xfff21>
  eb:	5f                   	pop    %edi
  ec:	5f                   	pop    %edi
  ed:	6b 65 72 6e          	imul   $0x6e,0x72(%ebp),%esp
  f1:	65 6c                	gs insb (%dx),%es:(%edi)
  f3:	5f                   	pop    %edi
  f4:	65 6e                	outsb  %gs:(%esi),(%dx)
  f6:	64 00 73 74          	add    %dh,%fs:0x74(%ebx)
  fa:	72 73                	jb     16f <start_-0xffe9d>
  fc:	69 7a 65 00 75 69 6e 	imul   $0x6e697500,0x65(%edx),%edi
 103:	74 70                	je     175 <start_-0xffe97>
 105:	74 72                	je     179 <start_-0xffe93>
 107:	5f                   	pop    %edi
 108:	74 00                	je     10a <start_-0xfff02>
 10a:	5f                   	pop    %edi
 10b:	68 68 6b 5f 69       	push   $0x695f6b68
 110:	6e                   	outsb  %ds:(%esi),(%dx)
 111:	69 74 00 6d 75 6c 74 	imul   $0x69746c75,0x6d(%eax,%eax,1),%esi
 118:	69 
 119:	62 6f 6f             	bound  %ebp,0x6f(%edi)
 11c:	74 5f                	je     17d <start_-0xffe8f>
 11e:	65 6c                	gs insb (%dx),%es:(%edi)
 120:	66 5f                	pop    %di
 122:	73 65                	jae    189 <start_-0xffe83>
 124:	63 74 69 6f          	arpl   %si,0x6f(%ecx,%ebp,2)
 128:	6e                   	outsb  %ds:(%esi),(%dx)
 129:	5f                   	pop    %edi
 12a:	68 65 61 64 65       	push   $0x65646165
 12f:	72 5f                	jb     190 <start_-0xffe7c>
 131:	74 61                	je     194 <start_-0xffe78>
 133:	62 6c 65 5f          	bound  %ebp,0x5f(%ebp,%eiz,2)
 137:	74 00                	je     139 <start_-0xffed3>
 139:	73 68                	jae    1a3 <start_-0xffe69>
 13b:	6e                   	outsb  %ds:(%esi),(%dx)
 13c:	64 78 00             	fs js  13f <start_-0xffecd>
 13f:	61                   	popa   
 140:	70 6d                	jo     1af <start_-0xffe5d>
 142:	5f                   	pop    %edi
 143:	74 61                	je     1a6 <start_-0xffe66>
 145:	62 6c 65 00          	bound  %ebp,0x0(%ebp,%eiz,2)
 149:	66 72 61             	data16 jb 1ad <start_-0xffe5f>
 14c:	6d                   	insl   (%dx),%es:(%edi)
 14d:	65 62 75 66          	bound  %esi,%gs:0x66(%ebp)
 151:	66 65 72 5f          	data16 gs jb 1b4 <start_-0xffe58>
 155:	62 70 70             	bound  %esi,0x70(%eax)
 158:	00 6c 6f 6e          	add    %ch,0x6e(%edi,%ebp,2)
 15c:	67 20 6c 6f          	and    %ch,0x6f(%si)
 160:	6e                   	outsb  %ds:(%esi),(%dx)
 161:	67 20 69 6e          	and    %ch,0x6e(%bx,%di)
 165:	74 00                	je     167 <start_-0xffea5>
 167:	66 72 61             	data16 jb 1cb <start_-0xffe41>
 16a:	6d                   	insl   (%dx),%es:(%edi)
 16b:	65 62 75 66          	bound  %esi,%gs:0x66(%ebp)
 16f:	66 65 72 5f          	data16 gs jb 1d2 <start_-0xffe3a>
 173:	70 61                	jo     1d6 <start_-0xffe36>
 175:	6c                   	insb   (%dx),%es:(%edi)
 176:	65 74 74             	gs je  1ed <start_-0xffe1f>
 179:	65 5f                	gs pop %edi
 17b:	6e                   	outsb  %ds:(%esi),(%dx)
 17c:	75 6d                	jne    1eb <start_-0xffe21>
 17e:	5f                   	pop    %edi
 17f:	63 6f 6c             	arpl   %bp,0x6c(%edi)
 182:	6f                   	outsl  %ds:(%esi),(%dx)
 183:	72 73                	jb     1f8 <start_-0xffe14>
 185:	00 62 6f             	add    %ah,0x6f(%edx)
 188:	6f                   	outsl  %ds:(%esi),(%dx)
 189:	74 5f                	je     1ea <start_-0xffe22>
 18b:	64 65 76 69          	fs gs jbe 1f8 <start_-0xffe14>
 18f:	63 65 00             	arpl   %sp,0x0(%ebp)
 192:	5f                   	pop    %edi
 193:	69 6e 69 74 5f 70 61 	imul   $0x61705f74,0x69(%esi),%ebp
 19a:	67 65 00 62 6f       	add    %ah,%gs:0x6f(%bp,%si)
 19f:	6f                   	outsl  %ds:(%esi),(%dx)
 1a0:	74 5f                	je     201 <start_-0xffe0b>
 1a2:	6c                   	insb   (%dx),%es:(%edi)
 1a3:	6f                   	outsl  %ds:(%esi),(%dx)
 1a4:	61                   	popa   
 1a5:	64 65 72 5f          	fs gs jb 208 <start_-0xffe04>
 1a9:	6e                   	outsb  %ds:(%esi),(%dx)
 1aa:	61                   	popa   
 1ab:	6d                   	insl   (%dx),%es:(%edi)
 1ac:	65 00 70 74          	add    %dh,%gs:0x74(%eax)
 1b0:	64 5f                	fs pop %edi
 1b2:	74 00                	je     1b4 <start_-0xffe58>
 1b4:	6b 70 67 5f          	imul   $0x5f,0x67(%eax),%esi
 1b8:	73 69                	jae    223 <start_-0xffde9>
 1ba:	7a 65                	jp     221 <start_-0xffdeb>
 1bc:	00 5f 5f             	add    %bl,0x5f(%edi)
 1bf:	6b 65 72 6e          	imul   $0x6e,0x72(%ebp),%esp
 1c3:	65 6c                	gs insb (%dx),%es:(%edi)
 1c5:	5f                   	pop    %edi
 1c6:	73 74                	jae    23c <start_-0xffdd0>
 1c8:	61                   	popa   
 1c9:	72 74                	jb     23f <start_-0xffdcd>
 1cb:	00 6d 6d             	add    %ch,0x6d(%ebp)
 1ce:	61                   	popa   
 1cf:	70 5f                	jo     230 <start_-0xffddc>
 1d1:	61                   	popa   
 1d2:	64 64 72 00          	fs fs jb 1d6 <start_-0xffe36>
 1d6:	75 6e                	jne    246 <start_-0xffdc6>
 1d8:	73 69                	jae    243 <start_-0xffdc9>
 1da:	67 6e                	outsb  %ds:(%si),(%dx)
 1dc:	65 64 20 63 68       	gs and %ah,%fs:0x68(%ebx)
 1e1:	61                   	popa   
 1e2:	72 00                	jb     1e4 <start_-0xffe28>
 1e4:	5f                   	pop    %edi
 1e5:	5f                   	pop    %edi
 1e6:	69 6e 69 74 5f 68 68 	imul   $0x68685f74,0x69(%esi),%ebp
 1ed:	6b 5f 65 6e          	imul   $0x6e,0x65(%edi),%ebx
 1f1:	64 00 76 62          	add    %dh,%fs:0x62(%esi)
 1f5:	65 5f                	gs pop %edi
 1f7:	63 6f 6e             	arpl   %bp,0x6e(%edi)
 1fa:	74 72                	je     26e <start_-0xffd9e>
 1fc:	6f                   	outsl  %ds:(%esi),(%dx)
 1fd:	6c                   	insb   (%dx),%es:(%edi)
 1fe:	5f                   	pop    %edi
 1ff:	69 6e 66 6f 00 65 6c 	imul   $0x6c65006f,0x66(%esi),%ebp
 206:	66 5f                	pop    %di
 208:	73 65                	jae    26f <start_-0xffd9d>
 20a:	63 00                	arpl   %ax,(%eax)
 20c:	6d                   	insl   (%dx),%es:(%edi)
 20d:	65 6d                	gs insl (%dx),%es:(%edi)
 20f:	5f                   	pop    %edi
 210:	6c                   	insb   (%dx),%es:(%edi)
 211:	6f                   	outsl  %ds:(%esi),(%dx)
 212:	77 65                	ja     279 <start_-0xffd93>
 214:	72 00                	jb     216 <start_-0xffdf6>
 216:	76 62                	jbe    27a <start_-0xffd92>
 218:	65 5f                	gs pop %edi
 21a:	69 6e 74 65 72 66 61 	imul   $0x61667265,0x74(%esi),%ebp
 221:	63 65 5f             	arpl   %sp,0x5f(%ebp)
 224:	6f                   	outsl  %ds:(%esi),(%dx)
 225:	66 66 00 76 62       	data16 data16 add %dh,0x62(%esi)
 22a:	65 5f                	gs pop %edi
 22c:	6d                   	insl   (%dx),%es:(%edi)
 22d:	6f                   	outsl  %ds:(%esi),(%dx)
 22e:	64 65 00 6c 6f 6e    	fs add %ch,%gs:0x6e(%edi,%ebp,2)
 234:	67 20 6c 6f          	and    %ch,0x6f(%si)
 238:	6e                   	outsb  %ds:(%esi),(%dx)
 239:	67 20 75 6e          	and    %dh,0x6e(%di)
 23d:	73 69                	jae    2a8 <start_-0xffd64>
 23f:	67 6e                	outsb  %ds:(%si),(%dx)
 241:	65 64 20 69 6e       	gs and %ch,%fs:0x6e(%ecx)
 246:	74 00                	je     248 <start_-0xffdc4>
 248:	66 72 61             	data16 jb 2ac <start_-0xffd60>
 24b:	6d                   	insl   (%dx),%es:(%edi)
 24c:	65 62 75 66          	bound  %esi,%gs:0x66(%ebp)
 250:	66 65 72 5f          	data16 gs jb 2b3 <start_-0xffd59>
 254:	77 69                	ja     2bf <start_-0xffd4d>
 256:	64 74 68             	fs je  2c1 <start_-0xffd4b>
 259:	00 47 4e             	add    %al,0x4e(%edi)
 25c:	55                   	push   %ebp
 25d:	20 43 39             	and    %al,0x39(%ebx)
 260:	39 20                	cmp    %esp,(%eax)
 262:	31 31                	xor    %esi,(%ecx)
 264:	2e 32 2e             	xor    %cs:(%esi),%ch
 267:	30 20                	xor    %ah,(%eax)
 269:	2d 6d 74 75 6e       	sub    $0x6e75746d,%eax
 26e:	65 3d 67 65 6e 65    	gs cmp $0x656e6567,%eax
 274:	72 69                	jb     2df <start_-0xffd2d>
 276:	63 20                	arpl   %sp,(%eax)
 278:	2d 6d 61 72 63       	sub    $0x6372616d,%eax
 27d:	68 3d 70 65 6e       	push   $0x6e65703d
 282:	74 69                	je     2ed <start_-0xffd1f>
 284:	75 6d                	jne    2f3 <start_-0xffd19>
 286:	70 72                	jo     2fa <start_-0xffd12>
 288:	6f                   	outsl  %ds:(%esi),(%dx)
 289:	20 2d 67 20 2d 4f    	and    %ch,0x4f2d2067
 28f:	67 20 2d             	and    %ch,(%di)
 292:	73 74                	jae    308 <start_-0xffd04>
 294:	64 3d 67 6e 75 39    	fs cmp $0x39756e67,%eax
 29a:	39 20                	cmp    %esp,(%eax)
 29c:	2d 66 66 72 65       	sub    $0x65726666,%eax
 2a1:	65 73 74             	gs jae 318 <start_-0xffcf4>
 2a4:	61                   	popa   
 2a5:	6e                   	outsb  %ds:(%esi),(%dx)
 2a6:	64 69 6e 67 00 6d 6d 	imul   $0x616d6d00,%fs:0x67(%esi),%ebp
 2ad:	61 
 2ae:	70 5f                	jo     30f <start_-0xffcfd>
 2b0:	6c                   	insb   (%dx),%es:(%edi)
 2b1:	65 6e                	outsb  %gs:(%esi),(%dx)
 2b3:	67 74 68             	addr16 je 31e <start_-0xffcee>
 2b6:	00 63 75             	add    %ah,0x75(%ebx)
 2b9:	72 72                	jb     32d <start_-0xffcdf>
 2bb:	65 6e                	outsb  %gs:(%esi),(%dx)
 2bd:	74 00                	je     2bf <start_-0xffd4d>
 2bf:	5f                   	pop    %edi
 2c0:	73 61                	jae    323 <start_-0xffce9>
 2c2:	76 65                	jbe    329 <start_-0xffce3>
 2c4:	5f                   	pop    %edi
 2c5:	6d                   	insl   (%dx),%es:(%edi)
 2c6:	75 6c                	jne    334 <start_-0xffcd8>
 2c8:	74 69                	je     333 <start_-0xffcd9>
 2ca:	62 6f 6f             	bound  %ebp,0x6f(%edi)
 2cd:	74 5f                	je     32e <start_-0xffcde>
 2cf:	69 6e 66 6f 00 73 68 	imul   $0x6873006f,0x66(%esi),%ebp
 2d6:	6f                   	outsl  %ds:(%esi),(%dx)
 2d7:	72 74                	jb     34d <start_-0xffcbf>
 2d9:	20 75 6e             	and    %dh,0x6e(%ebp)
 2dc:	73 69                	jae    347 <start_-0xffcc5>
 2de:	67 6e                	outsb  %ds:(%si),(%dx)
 2e0:	65 64 20 69 6e       	gs and %ch,%fs:0x6e(%ecx)
 2e5:	74 00                	je     2e7 <start_-0xffd25>
 2e7:	6d                   	insl   (%dx),%es:(%edi)
 2e8:	75 6c                	jne    356 <start_-0xffcb6>
 2ea:	74 69                	je     355 <start_-0xffcb7>
 2ec:	62 6f 6f             	bound  %ebp,0x6f(%edi)
 2ef:	74 5f                	je     350 <start_-0xffcbc>
 2f1:	75 69                	jne    35c <start_-0xffcb0>
 2f3:	6e                   	outsb  %ds:(%esi),(%dx)
 2f4:	74 36                	je     32c <start_-0xffce0>
 2f6:	34 5f                	xor    $0x5f,%al
 2f8:	74 00                	je     2fa <start_-0xffd12>
 2fa:	6b 65 72 6e          	imul   $0x6e,0x72(%ebp),%esp
 2fe:	65 6c                	gs insb (%dx),%es:(%edi)
 300:	5f                   	pop    %edi
 301:	70 67                	jo     36a <start_-0xffca2>
 303:	5f                   	pop    %edi
 304:	63 6f 75             	arpl   %bp,0x75(%edi)
 307:	6e                   	outsb  %ds:(%esi),(%dx)
 308:	74 73                	je     37d <start_-0xffc8f>
 30a:	00 66 72             	add    %ah,0x72(%esi)
 30d:	61                   	popa   
 30e:	6d                   	insl   (%dx),%es:(%edi)
 30f:	65 62 75 66          	bound  %esi,%gs:0x66(%ebp)
 313:	66 65 72 5f          	data16 gs jb 376 <start_-0xffc96>
 317:	62 6c 75 65          	bound  %ebp,0x65(%ebp,%esi,2)
 31b:	5f                   	pop    %edi
 31c:	66 69 65 6c 64 5f    	imul   $0x5f64,0x6c(%ebp),%sp
 322:	70 6f                	jo     393 <start_-0xffc79>
 324:	73 69                	jae    38f <start_-0xffc7d>
 326:	74 69                	je     391 <start_-0xffc7b>
 328:	6f                   	outsl  %ds:(%esi),(%dx)
 329:	6e                   	outsb  %ds:(%esi),(%dx)
 32a:	00 6b 65             	add    %ch,0x65(%ebx)
 32d:	72 6e                	jb     39d <start_-0xffc6f>
 32f:	65 6c                	gs insb (%dx),%es:(%edi)
 331:	5f                   	pop    %edi
 332:	70 6d                	jo     3a1 <start_-0xffc6b>
 334:	00 6d 75             	add    %ch,0x75(%ebp)
 337:	6c                   	insb   (%dx),%es:(%edi)
 338:	74 69                	je     3a3 <start_-0xffc69>
 33a:	62 6f 6f             	bound  %ebp,0x6f(%edi)
 33d:	74 5f                	je     39e <start_-0xffc6e>
 33f:	65 6c                	gs insb (%dx),%es:(%edi)
 341:	66 5f                	pop    %di
 343:	73 65                	jae    3aa <start_-0xffc62>
 345:	63 74 69 6f          	arpl   %si,0x6f(%ecx,%ebp,2)
 349:	6e                   	outsb  %ds:(%esi),(%dx)
 34a:	5f                   	pop    %edi
 34b:	68 65 61 64 65       	push   $0x65646165
 350:	72 5f                	jb     3b1 <start_-0xffc5b>
 352:	74 61                	je     3b5 <start_-0xffc57>
 354:	62 6c 65 00          	bound  %ebp,0x0(%ebp,%eiz,2)
 358:	66 72 61             	data16 jb 3bc <start_-0xffc50>
 35b:	6d                   	insl   (%dx),%es:(%edi)
 35c:	65 62 75 66          	bound  %esi,%gs:0x66(%ebp)
 360:	66 65 72 5f          	data16 gs jb 3c3 <start_-0xffc49>
 364:	70 69                	jo     3cf <start_-0xffc3d>
 366:	74 63                	je     3cb <start_-0xffc41>
 368:	68 00 66 72 61       	push   $0x61726600
 36d:	6d                   	insl   (%dx),%es:(%edi)
 36e:	65 62 75 66          	bound  %esi,%gs:0x66(%ebp)
 372:	66 65 72 5f          	data16 gs jb 3d5 <start_-0xffc37>
 376:	74 79                	je     3f1 <start_-0xffc1b>
 378:	70 65                	jo     3df <start_-0xffc2d>
 37a:	00 6d 65             	add    %ch,0x65(%ebp)
 37d:	6d                   	insl   (%dx),%es:(%edi)
 37e:	5f                   	pop    %edi
 37f:	75 70                	jne    3f1 <start_-0xffc1b>
 381:	70 65                	jo     3e8 <start_-0xffc24>
 383:	72 00                	jb     385 <start_-0xffc87>
 385:	69 6e 66 6f 5f 62 00 	imul   $0x625f6f,0x66(%esi),%ebp
 38c:	64 65 73 74          	fs gs jae 404 <start_-0xffc08>
 390:	69 6e 61 74 69 6f 6e 	imul   $0x6e6f6974,0x61(%esi),%ebp
 397:	00 76 62             	add    %dh,0x62(%esi)
 39a:	65 5f                	gs pop %edi
 39c:	6d                   	insl   (%dx),%es:(%edi)
 39d:	6f                   	outsl  %ds:(%esi),(%dx)
 39e:	64 65 5f             	fs gs pop %edi
 3a1:	69 6e 66 6f 00 74 61 	imul   $0x6174006f,0x66(%esi),%ebp
 3a8:	62 73 69             	bound  %esi,0x69(%ebx)
 3ab:	7a 65                	jp     412 <start_-0xffbfa>
 3ad:	00 6b 65             	add    %ch,0x65(%ebx)
 3b0:	72 6e                	jb     420 <start_-0xffbec>
 3b2:	65 6c                	gs insb (%dx),%es:(%edi)
 3b4:	5f                   	pop    %edi
 3b5:	70 64                	jo     41b <start_-0xffbf1>
 3b7:	65 5f                	gs pop %edi
 3b9:	69 6e 64 65 78 00 66 	imul   $0x66007865,0x64(%esi),%ebp
 3c0:	72 61                	jb     423 <start_-0xffbe9>
 3c2:	6d                   	insl   (%dx),%es:(%edi)
 3c3:	65 62 75 66          	bound  %esi,%gs:0x66(%ebp)
 3c7:	66 65 72 5f          	data16 gs jb 42a <start_-0xffbe2>
 3cb:	72 65                	jb     432 <start_-0xffbda>
 3cd:	64 5f                	fs pop %edi
 3cf:	6d                   	insl   (%dx),%es:(%edi)
 3d0:	61                   	popa   
 3d1:	73 6b                	jae    43e <start_-0xffbce>
 3d3:	5f                   	pop    %edi
 3d4:	73 69                	jae    43f <start_-0xffbcd>
 3d6:	7a 65                	jp     43d <start_-0xffbcf>
 3d8:	00 64 72 69          	add    %ah,0x69(%edx,%esi,2)
 3dc:	76 65                	jbe    443 <start_-0xffbc9>
 3de:	73 5f                	jae    43f <start_-0xffbcd>
 3e0:	6c                   	insb   (%dx),%es:(%edi)
 3e1:	65 6e                	outsb  %gs:(%esi),(%dx)
 3e3:	67 74 68             	addr16 je 44e <start_-0xffbbe>
 3e6:	00 63 6f             	add    %ah,0x6f(%ebx)
 3e9:	6e                   	outsb  %ds:(%esi),(%dx)
 3ea:	66 69 67 5f 74 61    	imul   $0x6174,0x5f(%edi),%sp
 3f0:	62 6c 65 00          	bound  %ebp,0x0(%ebp,%eiz,2)
 3f4:	66 72 61             	data16 jb 458 <start_-0xffbb4>
 3f7:	6d                   	insl   (%dx),%es:(%edi)
 3f8:	65 62 75 66          	bound  %esi,%gs:0x66(%ebp)
 3fc:	66 65 72 5f          	data16 gs jb 45f <start_-0xffbad>
 400:	67 72 65             	addr16 jb 468 <start_-0xffba4>
 403:	65 6e                	outsb  %gs:(%esi),(%dx)
 405:	5f                   	pop    %edi
 406:	6d                   	insl   (%dx),%es:(%edi)
 407:	61                   	popa   
 408:	73 6b                	jae    475 <start_-0xffb97>
 40a:	5f                   	pop    %edi
 40b:	73 69                	jae    476 <start_-0xffb96>
 40d:	7a 65                	jp     474 <start_-0xffb98>
 40f:	00 6d 75             	add    %ch,0x75(%ebp)
 412:	6c                   	insb   (%dx),%es:(%edi)
 413:	74 69                	je     47e <start_-0xffb8e>
 415:	62 6f 6f             	bound  %ebp,0x6f(%edi)
 418:	74 5f                	je     479 <start_-0xffb93>
 41a:	69 6e 66 6f 5f 74 00 	imul   $0x745f6f,0x66(%esi),%ebp
 421:	5f                   	pop    %edi
 422:	5f                   	pop    %edi
 423:	73 61                	jae    486 <start_-0xffb86>
 425:	76 65                	jbe    48c <start_-0xffb80>
 427:	5f                   	pop    %edi
 428:	73 75                	jae    49f <start_-0xffb6d>
 42a:	62 73 65             	bound  %esi,0x65(%ebx)
 42d:	74 00                	je     42f <start_-0xffbdd>
 42f:	66 72 61             	data16 jb 493 <start_-0xffb79>
 432:	6d                   	insl   (%dx),%es:(%edi)
 433:	65 62 75 66          	bound  %esi,%gs:0x66(%ebp)
 437:	66 65 72 5f          	data16 gs jb 49a <start_-0xffb72>
 43b:	68 65 69 67 68       	push   $0x68676965
 440:	74 00                	je     442 <start_-0xffbca>
 442:	76 62                	jbe    4a6 <start_-0xffb66>
 444:	65 5f                	gs pop %edi
 446:	69 6e 74 65 72 66 61 	imul   $0x61667265,0x74(%esi),%ebp
 44d:	63 65 5f             	arpl   %sp,0x5f(%ebp)
 450:	6c                   	insb   (%dx),%es:(%edi)
 451:	65 6e                	outsb  %gs:(%esi),(%dx)
 453:	00 6d 6f             	add    %ch,0x6f(%ebp)
 456:	64 73 5f             	fs jae 4b8 <start_-0xffb54>
 459:	63 6f 75             	arpl   %bp,0x75(%edi)
 45c:	6e                   	outsb  %ds:(%esi),(%dx)
 45d:	74 00                	je     45f <start_-0xffbad>
 45f:	6d                   	insl   (%dx),%es:(%edi)
 460:	75 6c                	jne    4ce <start_-0xffb3e>
 462:	74 69                	je     4cd <start_-0xffb3f>
 464:	62 6f 6f             	bound  %ebp,0x6f(%edi)
 467:	74 5f                	je     4c8 <start_-0xffb44>
 469:	75 69                	jne    4d4 <start_-0xffb38>
 46b:	6e                   	outsb  %ds:(%esi),(%dx)
 46c:	74 38                	je     4a6 <start_-0xffb66>
 46e:	5f                   	pop    %edi
 46f:	74 00                	je     471 <start_-0xffb9b>
 471:	6d                   	insl   (%dx),%es:(%edi)
 472:	75 6c                	jne    4e0 <start_-0xffb2c>
 474:	74 69                	je     4df <start_-0xffb2d>
 476:	62 6f 6f             	bound  %ebp,0x6f(%edi)
 479:	74 5f                	je     4da <start_-0xffb32>
 47b:	73 79                	jae    4f6 <start_-0xffb16>
 47d:	6d                   	insl   (%dx),%es:(%edi)
 47e:	62 6f 6c             	bound  %ebp,0x6c(%edi)
 481:	5f                   	pop    %edi
 482:	74 61                	je     4e5 <start_-0xffb27>
 484:	62 6c 65 5f          	bound  %ebp,0x5f(%ebp,%eiz,2)
 488:	74 00                	je     48a <start_-0xffb82>
 48a:	76 62                	jbe    4ee <start_-0xffb1e>
 48c:	65 5f                	gs pop %edi
 48e:	69 6e 74 65 72 66 61 	imul   $0x61667265,0x74(%esi),%ebp
 495:	63 65 5f             	arpl   %sp,0x5f(%ebp)
 498:	73 65                	jae    4ff <start_-0xffb0d>
 49a:	67 00 62 61          	add    %ah,0x61(%bp,%si)
 49e:	73 65                	jae    505 <start_-0xffb07>
 4a0:	00 72 65             	add    %dh,0x65(%edx)
 4a3:	73 65                	jae    50a <start_-0xffb02>
 4a5:	72 76                	jb     51d <start_-0xffaef>
 4a7:	65 64 00 66 72       	gs add %ah,%fs:0x72(%esi)
 4ac:	61                   	popa   
 4ad:	6d                   	insl   (%dx),%es:(%edi)
 4ae:	65 62 75 66          	bound  %esi,%gs:0x66(%ebp)
 4b2:	66 65 72 5f          	data16 gs jb 515 <start_-0xffaf7>
 4b6:	70 61                	jo     519 <start_-0xffaf3>
 4b8:	6c                   	insb   (%dx),%es:(%edi)
 4b9:	65 74 74             	gs je  530 <start_-0xffadc>
 4bc:	65 5f                	gs pop %edi
 4be:	61                   	popa   
 4bf:	64 64 72 00          	fs fs jb 4c3 <start_-0xffb49>
 4c3:	72 65                	jb     52a <start_-0xffae2>
 4c5:	67 33 32             	xor    (%bp,%si),%esi
 4c8:	00 63 70             	add    %ah,0x70(%ebx)
 4cb:	75 5f                	jne    52c <start_-0xffae0>
 4cd:	67 65 74 5f          	addr16 gs je 530 <start_-0xffadc>
 4d1:	6d                   	insl   (%dx),%es:(%edi)
 4d2:	6f                   	outsl  %ds:(%esi),(%dx)
 4d3:	64 65 6c             	fs gs insb (%dx),%es:(%edi)
 4d6:	00 63 70             	add    %ah,0x70(%ebx)
 4d9:	75 5f                	jne    53a <start_-0xffad2>
 4db:	72 5f                	jb     53c <start_-0xffad0>
 4dd:	63 72 30             	arpl   %si,0x30(%edx)
 4e0:	00 63 70             	add    %ah,0x70(%ebx)
 4e3:	75 5f                	jne    544 <start_-0xffac8>
 4e5:	72 5f                	jb     546 <start_-0xffac6>
 4e7:	63 72 32             	arpl   %si,0x32(%edx)
 4ea:	00 63 70             	add    %ah,0x70(%ebx)
 4ed:	75 5f                	jne    54e <start_-0xffabe>
 4ef:	72 5f                	jb     550 <start_-0xffabc>
 4f1:	63 72 33             	arpl   %si,0x33(%edx)
 4f4:	00 62 72             	add    %ah,0x72(%edx)
 4f7:	61                   	popa   
 4f8:	6e                   	outsb  %ds:(%esi),(%dx)
 4f9:	64 5f                	fs pop %edi
 4fb:	6f                   	outsl  %ds:(%esi),(%dx)
 4fc:	75 74                	jne    572 <start_-0xffa9a>
 4fe:	00 5f 5f             	add    %bl,0x5f(%edi)
 501:	6c                   	insb   (%dx),%es:(%edi)
 502:	65 61                	gs popa 
 504:	66 00 5f 5f          	data16 add %bl,0x5f(%edi)
 508:	73 69                	jae    573 <start_-0xffa99>
 50a:	67 00 63 70          	add    %ah,0x70(%bp,%di)
 50e:	75 5f                	jne    56f <start_-0xffa9d>
 510:	77 5f                	ja     571 <start_-0xffa9b>
 512:	63 72 30             	arpl   %si,0x30(%edx)
 515:	00 63 70             	add    %ah,0x70(%ebx)
 518:	75 5f                	jne    579 <start_-0xffa93>
 51a:	77 5f                	ja     57b <start_-0xffa91>
 51c:	63 72 32             	arpl   %si,0x32(%edx)
 51f:	00 5f 5f             	add    %bl,0x5f(%edi)
 522:	65 61                	gs popa 
 524:	78 00                	js     526 <start_-0xffae6>
 526:	5f                   	pop    %edi
 527:	5f                   	pop    %edi
 528:	65 63 78 00          	arpl   %di,%gs:0x0(%eax)
 52c:	5f                   	pop    %edi
 52d:	5f                   	pop    %edi
 52e:	65 78 74             	gs js  5a5 <start_-0xffa67>
 531:	00 63 70             	add    %ah,0x70(%ebx)
 534:	75 5f                	jne    595 <start_-0xffa77>
 536:	62 72 61             	bound  %esi,0x61(%edx)
 539:	6e                   	outsb  %ds:(%esi),(%dx)
 53a:	64 5f                	fs pop %edi
 53c:	73 74                	jae    5b2 <start_-0xffa5a>
 53e:	72 69                	jb     5a9 <start_-0xffa63>
 540:	6e                   	outsb  %ds:(%esi),(%dx)
 541:	67 5f                	addr16 pop %edi
 543:	73 75                	jae    5ba <start_-0xffa52>
 545:	70 70                	jo     5b7 <start_-0xffa55>
 547:	6f                   	outsl  %ds:(%esi),(%dx)
 548:	72 74                	jb     5be <start_-0xffa4e>
 54a:	65 64 00 6d 6f       	gs add %ch,%fs:0x6f(%ebp)
 54f:	64 65 6c             	fs gs insb (%dx),%es:(%edi)
 552:	5f                   	pop    %edi
 553:	6f                   	outsl  %ds:(%esi),(%dx)
 554:	75 74                	jne    5ca <start_-0xffa42>
 556:	00 5f 5f             	add    %bl,0x5f(%edi)
 559:	67 65 74 5f          	addr16 gs je 5bc <start_-0xffa50>
 55d:	63 70 75             	arpl   %si,0x75(%eax)
 560:	69 64 00 63 70 75 5f 	imul   $0x775f7570,0x63(%eax,%eax,1),%esp
 567:	77 
 568:	5f                   	pop    %edi
 569:	63 72 33             	arpl   %si,0x33(%edx)
 56c:	00 5f 5f             	add    %bl,0x5f(%edi)
 56f:	67 65 74 5f          	addr16 gs je 5d2 <start_-0xffa3a>
 573:	63 70 75             	arpl   %si,0x75(%eax)
 576:	69 64 5f 6d 61 78 00 	imul   $0x63007861,0x6d(%edi,%ebx,2),%esp
 57d:	63 
 57e:	70 75                	jo     5f5 <start_-0xffa17>
 580:	5f                   	pop    %edi
 581:	67 65 74 5f          	addr16 gs je 5e4 <start_-0xffa28>
 585:	62 72 61             	bound  %esi,0x61(%edx)
 588:	6e                   	outsb  %ds:(%esi),(%dx)
 589:	64 00 5f 5f          	add    %bl,%fs:0x5f(%edi)
 58d:	6d                   	insl   (%dx),%es:(%edi)
 58e:	61                   	popa   
 58f:	78 6c                	js     5fd <start_-0xffa0f>
 591:	65 76 65             	gs jbe 5f9 <start_-0xffa13>
 594:	6c                   	insb   (%dx),%es:(%edi)
 595:	00 5f 5f             	add    %bl,0x5f(%edi)
 598:	65 62 78 00          	bound  %edi,%gs:0x0(%eax)
 59c:	5f                   	pop    %edi
 59d:	5f                   	pop    %edi
 59e:	65 64 78 00          	gs fs js 5a2 <start_-0xffa6a>
 5a2:	5f                   	pop    %edi
 5a3:	73 65                	jae    60a <start_-0xffa02>
 5a5:	74 5f                	je     606 <start_-0xffa06>
 5a7:	67 64 74 5f          	addr16 fs je 60a <start_-0xffa02>
 5ab:	65 6e                	outsb  %gs:(%esi),(%dx)
 5ad:	74 72                	je     621 <start_-0xff9eb>
 5af:	79 00                	jns    5b1 <start_-0xffa5b>
 5b1:	5f                   	pop    %edi
 5b2:	67 64 74 5f          	addr16 fs je 615 <start_-0xff9f7>
 5b6:	6c                   	insb   (%dx),%es:(%edi)
 5b7:	69 6d 69 74 00 5f 69 	imul   $0x695f0074,0x69(%ebp),%ebp
 5be:	6e                   	outsb  %ds:(%esi),(%dx)
 5bf:	69 74 5f 67 64 74 00 	imul   $0x5f007464,0x67(%edi,%ebx,2),%esi
 5c6:	5f 
 5c7:	61                   	popa   
 5c8:	73 6d                	jae    637 <start_-0xff9d5>
 5ca:	5f                   	pop    %edi
 5cb:	69 73 72 30 00 5f 69 	imul   $0x695f0030,0x72(%ebx),%esi
 5d2:	64 74 5f             	fs je  634 <start_-0xff9d8>
 5d5:	6c                   	insb   (%dx),%es:(%edi)
 5d6:	69 6d 69 74 00 5f 69 	imul   $0x695f0074,0x69(%ebp),%ebp
 5dd:	6e                   	outsb  %ds:(%esi),(%dx)
 5de:	69 74 5f 69 64 74 00 	imul   $0x73007464,0x69(%edi,%ebx,2),%esi
 5e5:	73 
 5e6:	65 67 5f             	gs addr16 pop %edi
 5e9:	73 65                	jae    650 <start_-0xff9bc>
 5eb:	6c                   	insb   (%dx),%es:(%edi)
 5ec:	65 63 74 6f 72       	arpl   %si,%gs:0x72(%edi,%ebp,2)
 5f1:	00 5f 73             	add    %bl,0x73(%edi)
 5f4:	65 74 5f             	gs je  656 <start_-0xff9b6>
 5f7:	69 64 74 5f 65 6e 74 	imul   $0x72746e65,0x5f(%esp,%esi,2),%esp
 5fe:	72 
 5ff:	79 00                	jns    601 <start_-0xffa0b>
 601:	76 65                	jbe    668 <start_-0xff9a4>
 603:	63 74 6f 72          	arpl   %si,0x72(%edi,%ebp,2)
 607:	00 65 66             	add    %ah,0x66(%ebp)
 60a:	6c                   	insb   (%dx),%es:(%edi)
 60b:	61                   	popa   
 60c:	67 73 00             	addr16 jae 60f <start_-0xff9fd>
 60f:	69 6e 74 65 72 72 75 	imul   $0x75727265,0x74(%esi),%ebp
 616:	70 74                	jo     68c <start_-0xff980>
 618:	5f                   	pop    %edi
 619:	68 61 6e 64 6c       	push   $0x6c646e61
 61e:	65 72 00             	gs jb  621 <start_-0xff9eb>
 621:	69 73 72 5f 70 61 72 	imul   $0x7261705f,0x72(%ebx),%esi
 628:	61                   	popa   
 629:	6d                   	insl   (%dx),%es:(%edi)
 62a:	00 65 72             	add    %ah,0x72(%ebp)
 62d:	72 5f                	jb     68e <start_-0xff97e>
 62f:	63 6f 64             	arpl   %bp,0x64(%edi)
 632:	65 00 5f 6b          	add    %bl,%gs:0x6b(%edi)
 636:	65 72 6e             	gs jb  6a7 <start_-0xff965>
 639:	65 6c                	gs insb (%dx),%es:(%edi)
 63b:	5f                   	pop    %edi
 63c:	69 6e 69 74 00 76 6d 	imul   $0x6d760074,0x69(%esi),%ebp
 643:	6d                   	insl   (%dx),%es:(%edi)
 644:	5f                   	pop    %edi
 645:	61                   	popa   
 646:	6c                   	insb   (%dx),%es:(%edi)
 647:	6c                   	insb   (%dx),%es:(%edi)
 648:	6f                   	outsl  %ds:(%esi),(%dx)
 649:	63 5f 70             	arpl   %bx,0x70(%edi)
 64c:	61                   	popa   
 64d:	67 65 00 74 74       	add    %dh,%gs:0x74(%si)
 652:	79 5f                	jns    6b3 <start_-0xff959>
 654:	73 65                	jae    6bb <start_-0xff951>
 656:	74 5f                	je     6b7 <start_-0xff955>
 658:	74 68                	je     6c2 <start_-0xff94a>
 65a:	65 6d                	gs insl (%dx),%es:(%edi)
 65c:	65 00 73 69          	add    %dh,%gs:0x69(%ebx)
 660:	7a 65                	jp     6c7 <start_-0xff945>
 662:	5f                   	pop    %edi
 663:	74 00                	je     665 <start_-0xff9a7>
 665:	61                   	popa   
 666:	64 64 72 5f          	fs fs jb 6c9 <start_-0xff943>
 66a:	68 69 67 68 00       	push   $0x686769
 66f:	6c                   	insb   (%dx),%es:(%edi)
 670:	65 6e                	outsb  %gs:(%esi),(%dx)
 672:	5f                   	pop    %edi
 673:	6c                   	insb   (%dx),%es:(%edi)
 674:	6f                   	outsl  %ds:(%esi),(%dx)
 675:	77 00                	ja     677 <start_-0xff995>
 677:	61                   	popa   
 678:	64 64 72 5f          	fs fs jb 6db <start_-0xff931>
 67c:	6c                   	insb   (%dx),%es:(%edi)
 67d:	6f                   	outsl  %ds:(%esi),(%dx)
 67e:	77 00                	ja     680 <start_-0xff98c>
 680:	76 6d                	jbe    6ef <start_-0xff91d>
 682:	6d                   	insl   (%dx),%es:(%edi)
 683:	5f                   	pop    %edi
 684:	75 6e                	jne    6f4 <start_-0xff918>
 686:	6d                   	insl   (%dx),%es:(%edi)
 687:	61                   	popa   
 688:	70 5f                	jo     6e9 <start_-0xff923>
 68a:	70 61                	jo     6ed <start_-0xff91f>
 68c:	67 65 00 70 6d       	add    %dh,%gs:0x6d(%bx,%si)
 691:	6d                   	insl   (%dx),%es:(%edi)
 692:	5f                   	pop    %edi
 693:	69 6e 69 74 00 6c 65 	imul   $0x656c0074,0x69(%esi),%ebp
 69a:	6e                   	outsb  %ds:(%esi),(%dx)
 69b:	5f                   	pop    %edi
 69c:	68 69 67 68 00       	push   $0x686769
 6a1:	74 74                	je     717 <start_-0xff8f5>
 6a3:	79 5f                	jns    704 <start_-0xff908>
 6a5:	69 6e 69 74 00 6d 62 	imul   $0x626d0074,0x69(%esi),%ebp
 6ac:	5f                   	pop    %edi
 6ad:	69 6e 66 6f 00 76 6d 	imul   $0x6d76006f,0x66(%esi),%ebp
 6b4:	6d                   	insl   (%dx),%es:(%edi)
 6b5:	5f                   	pop    %edi
 6b6:	6d                   	insl   (%dx),%es:(%edi)
 6b7:	61                   	popa   
 6b8:	70 5f                	jo     719 <start_-0xff8f3>
 6ba:	70 61                	jo     71d <start_-0xff8ef>
 6bc:	67 65 00 6d 75       	add    %ch,%gs:0x75(%di)
 6c1:	6c                   	insb   (%dx),%es:(%edi)
 6c2:	74 69                	je     72d <start_-0xff8df>
 6c4:	62 6f 6f             	bound  %ebp,0x6f(%edi)
 6c7:	74 5f                	je     728 <start_-0xff8e4>
 6c9:	6d                   	insl   (%dx),%es:(%edi)
 6ca:	6d                   	insl   (%dx),%es:(%edi)
 6cb:	61                   	popa   
 6cc:	70 5f                	jo     72d <start_-0xff8df>
 6ce:	65 6e                	outsb  %gs:(%esi),(%dx)
 6d0:	74 72                	je     744 <start_-0xff8c8>
 6d2:	79 00                	jns    6d4 <start_-0xff938>
 6d4:	76 67                	jbe    73d <start_-0xff8cf>
 6d6:	61                   	popa   
 6d7:	5f                   	pop    %edi
 6d8:	62 75 66             	bound  %esi,0x66(%ebp)
 6db:	5f                   	pop    %edi
 6dc:	70 67                	jo     745 <start_-0xff8c7>
 6de:	73 00                	jae    6e0 <start_-0xff92c>
 6e0:	70 6d                	jo     74f <start_-0xff8bd>
 6e2:	6d                   	insl   (%dx),%es:(%edi)
 6e3:	5f                   	pop    %edi
 6e4:	6d                   	insl   (%dx),%es:(%edi)
 6e5:	61                   	popa   
 6e6:	72 6b                	jb     753 <start_-0xff8b9>
 6e8:	5f                   	pop    %edi
 6e9:	63 68 75             	arpl   %bp,0x75(%eax)
 6ec:	6e                   	outsb  %ds:(%esi),(%dx)
 6ed:	6b 5f 6f 63          	imul   $0x63,0x6f(%edi),%ebx
 6f1:	63 75 70             	arpl   %si,0x70(%ebp)
 6f4:	69 65 64 00 76 6d 6d 	imul   $0x6d6d7600,0x64(%ebp),%esp
 6fb:	5f                   	pop    %edi
 6fc:	69 6e 69 74 00 6d 6d 	imul   $0x6d6d0074,0x69(%esi),%ebp
 703:	61                   	popa   
 704:	70 00                	jo     706 <start_-0xff906>
 706:	68 68 6b 5f 69       	push   $0x695f6b68
 70b:	6e                   	outsb  %ds:(%esi),(%dx)
 70c:	69 74 5f 70 67 5f 63 	imul   $0x6f635f67,0x70(%edi,%ebx,2),%esi
 713:	6f 
 714:	75 6e                	jne    784 <start_-0xff888>
 716:	74 00                	je     718 <start_-0xff8f4>
 718:	5f                   	pop    %edi
 719:	6b 65 72 6e          	imul   $0x6e,0x72(%ebp),%esp
 71d:	65 6c                	gs insb (%dx),%es:(%edi)
 71f:	5f                   	pop    %edi
 720:	70 6f                	jo     791 <start_-0xff87b>
 722:	73 74                	jae    798 <start_-0xff874>
 724:	5f                   	pop    %edi
 725:	69 6e 69 74 00 70 6d 	imul   $0x6d700074,0x69(%esi),%ebp
 72c:	6d                   	insl   (%dx),%es:(%edi)
 72d:	5f                   	pop    %edi
 72e:	6d                   	insl   (%dx),%es:(%edi)
 72f:	61                   	popa   
 730:	72 6b                	jb     79d <start_-0xff86f>
 732:	5f                   	pop    %edi
 733:	63 68 75             	arpl   %bp,0x75(%eax)
 736:	6e                   	outsb  %ds:(%esi),(%dx)
 737:	6b 5f 66 72          	imul   $0x72,0x66(%edi),%ebx
 73b:	65 65 00 74 74 79    	gs add %dh,%gs:0x79(%esp,%esi,2)
 741:	5f                   	pop    %edi
 742:	73 65                	jae    7a9 <start_-0xff863>
 744:	74 5f                	je     7a5 <start_-0xff867>
 746:	62 75 66             	bound  %esi,0x66(%ebp)
 749:	66 65 72 00          	data16 gs jb 74d <start_-0xff8bf>
 74d:	5f                   	pop    %edi
 74e:	6b 65 72 6e          	imul   $0x6e,0x72(%ebp),%esp
 752:	65 6c                	gs insb (%dx),%es:(%edi)
 754:	5f                   	pop    %edi
 755:	6d                   	insl   (%dx),%es:(%edi)
 756:	61                   	popa   
 757:	69 6e 00 76 6d 6d 5f 	imul   $0x5f6d6d76,0x0(%esi),%ebp
 75e:	76 32                	jbe    792 <start_-0xff87a>
 760:	70 00                	jo     762 <start_-0xff8aa>
 762:	6d                   	insl   (%dx),%es:(%edi)
 763:	75 6c                	jne    7d1 <start_-0xff83b>
 765:	74 69                	je     7d0 <start_-0xff83c>
 767:	62 6f 6f             	bound  %ebp,0x6f(%edi)
 76a:	74 5f                	je     7cb <start_-0xff841>
 76c:	6d                   	insl   (%dx),%es:(%edi)
 76d:	65 6d                	gs insl (%dx),%es:(%edi)
 76f:	6f                   	outsl  %ds:(%esi),(%dx)
 770:	72 79                	jb     7eb <start_-0xff821>
 772:	5f                   	pop    %edi
 773:	6d                   	insl   (%dx),%es:(%edi)
 774:	61                   	popa   
 775:	70 5f                	jo     7d6 <start_-0xff836>
 777:	74 00                	je     779 <start_-0xff893>
 779:	70 74                	jo     7ef <start_-0xff81d>
 77b:	5f                   	pop    %edi
 77c:	61                   	popa   
 77d:	74 74                	je     7f3 <start_-0xff819>
 77f:	72 00                	jb     781 <start_-0xff88b>
 781:	6d                   	insl   (%dx),%es:(%edi)
 782:	61                   	popa   
 783:	70 5f                	jo     7e4 <start_-0xff828>
 785:	73 69                	jae    7f0 <start_-0xff81c>
 787:	7a 65                	jp     7ee <start_-0xff81e>
 789:	00 6b 5f             	add    %ch,0x5f(%ebx)
 78c:	73 74                	jae    802 <start_-0xff80a>
 78e:	61                   	popa   
 78f:	72 74                	jb     805 <start_-0xff807>
 791:	00 76 67             	add    %dh,0x67(%esi)
 794:	61                   	popa   
 795:	5f                   	pop    %edi
 796:	61                   	popa   
 797:	74 74                	je     80d <start_-0xff7ff>
 799:	72 69                	jb     804 <start_-0xff808>
 79b:	62 75 74             	bound  %esi,0x74(%ebp)
 79e:	65 00 70 6d          	add    %dh,%gs:0x6d(%eax)
 7a2:	5f                   	pop    %edi
 7a3:	62 69 74             	bound  %ebp,0x74(%ecx)
 7a6:	6d                   	insl   (%dx),%es:(%edi)
 7a7:	61                   	popa   
 7a8:	70 00                	jo     7aa <start_-0xff862>
 7aa:	67 6f                	outsl  %ds:(%si),(%dx)
 7ac:	6f                   	outsl  %ds:(%esi),(%dx)
 7ad:	64 5f                	fs pop %edi
 7af:	70 61                	jo     812 <start_-0xff7fa>
 7b1:	67 65 5f             	addr16 gs pop %edi
 7b4:	66 6f                	outsw  %ds:(%esi),(%dx)
 7b6:	75 6e                	jne    826 <start_-0xff7e6>
 7b8:	64 00 6d 65          	add    %ch,%fs:0x65(%ebp)
 7bc:	6d                   	insl   (%dx),%es:(%edi)
 7bd:	5f                   	pop    %edi
 7be:	75 70                	jne    830 <start_-0xff7dc>
 7c0:	70 65                	jo     827 <start_-0xff7e5>
 7c2:	72 5f                	jb     823 <start_-0xff7e9>
 7c4:	6c                   	insb   (%dx),%es:(%edi)
 7c5:	69 6d 00 73 74 61 72 	imul   $0x72617473,0x0(%ebp),%ebp
 7cc:	74 5f                	je     82d <start_-0xff7df>
 7ce:	70 70                	jo     840 <start_-0xff7cc>
 7d0:	6e                   	outsb  %ds:(%esi),(%dx)
 7d1:	00 63 68             	add    %ah,0x68(%ebx)
 7d4:	75 6e                	jne    844 <start_-0xff7c8>
 7d6:	6b 00 67             	imul   $0x67,(%eax),%eax
 7d9:	72 6f                	jb     84a <start_-0xff7c2>
 7db:	75 70                	jne    84d <start_-0xff7bf>
 7dd:	00 70 6d             	add    %dh,0x6d(%eax)
 7e0:	6d                   	insl   (%dx),%es:(%edi)
 7e1:	5f                   	pop    %edi
 7e2:	6d                   	insl   (%dx),%es:(%edi)
 7e3:	61                   	popa   
 7e4:	72 6b                	jb     851 <start_-0xff7bb>
 7e6:	5f                   	pop    %edi
 7e7:	70 61                	jo     84a <start_-0xff7c2>
 7e9:	67 65 5f             	addr16 gs pop %edi
 7ec:	6f                   	outsl  %ds:(%esi),(%dx)
 7ed:	63 63 75             	arpl   %sp,0x75(%ebx)
 7f0:	70 69                	jo     85b <start_-0xff7b1>
 7f2:	65 64 00 70 6d       	gs add %dh,%fs:0x6d(%eax)
 7f7:	6d                   	insl   (%dx),%es:(%edi)
 7f8:	5f                   	pop    %edi
 7f9:	66 72 65             	data16 jb 861 <start_-0xff7ab>
 7fc:	65 5f                	gs pop %edi
 7fe:	70 61                	jo     861 <start_-0xff7ab>
 800:	67 65 00 70 61       	add    %dh,%gs:0x61(%bx,%si)
 805:	67 65 5f             	addr16 gs pop %edi
 808:	63 6f 75             	arpl   %bp,0x75(%edi)
 80b:	6e                   	outsb  %ds:(%esi),(%dx)
 80c:	74 00                	je     80e <start_-0xff7fe>
 80e:	6d                   	insl   (%dx),%es:(%edi)
 80f:	61                   	popa   
 810:	78 5f                	js     871 <start_-0xff79b>
 812:	70 67                	jo     87b <start_-0xff791>
 814:	00 70 67             	add    %dh,0x67(%eax)
 817:	5f                   	pop    %edi
 818:	6c                   	insb   (%dx),%es:(%edi)
 819:	6f                   	outsl  %ds:(%esi),(%dx)
 81a:	6f                   	outsl  %ds:(%esi),(%dx)
 81b:	6b 75 70 5f          	imul   $0x5f,0x70(%ebp),%esi
 81f:	70 74                	jo     895 <start_-0xff777>
 821:	72 00                	jb     823 <start_-0xff7e9>
 823:	70 6d                	jo     892 <start_-0xff77a>
 825:	6d                   	insl   (%dx),%es:(%edi)
 826:	5f                   	pop    %edi
 827:	61                   	popa   
 828:	6c                   	insb   (%dx),%es:(%edi)
 829:	6c                   	insb   (%dx),%es:(%edi)
 82a:	6f                   	outsl  %ds:(%esi),(%dx)
 82b:	63 5f 70             	arpl   %bx,0x70(%edi)
 82e:	61                   	popa   
 82f:	67 65 00 67 72       	add    %ah,%gs:0x72(%bx)
 834:	6f                   	outsl  %ds:(%esi),(%dx)
 835:	75 70                	jne    8a7 <start_-0xff765>
 837:	5f                   	pop    %edi
 838:	63 6f 75             	arpl   %bp,0x75(%edi)
 83b:	6e                   	outsb  %ds:(%esi),(%dx)
 83c:	74 00                	je     83e <start_-0xff7ce>
 83e:	72 65                	jb     8a5 <start_-0xff767>
 840:	6d                   	insl   (%dx),%es:(%edi)
 841:	61                   	popa   
 842:	69 6e 64 65 72 00 6f 	imul   $0x6f007265,0x64(%esi),%ebp
 849:	6c                   	insb   (%dx),%es:(%edi)
 84a:	64 5f                	fs pop %edi
 84c:	70 67                	jo     8b5 <start_-0xff757>
 84e:	5f                   	pop    %edi
 84f:	70 74                	jo     8c5 <start_-0xff747>
 851:	72 00                	jb     853 <start_-0xff7b9>
 853:	70 6d                	jo     8c2 <start_-0xff74a>
 855:	6d                   	insl   (%dx),%es:(%edi)
 856:	5f                   	pop    %edi
 857:	6d                   	insl   (%dx),%es:(%edi)
 858:	61                   	popa   
 859:	72 6b                	jb     8c6 <start_-0xff746>
 85b:	5f                   	pop    %edi
 85c:	70 61                	jo     8bf <start_-0xff74d>
 85e:	67 65 5f             	addr16 gs pop %edi
 861:	66 72 65             	data16 jb 8c9 <start_-0xff743>
 864:	65 00 6c 65 61       	add    %ch,%gs:0x61(%ebp,%eiz,2)
 869:	64 69 6e 67 5f 73 68 	imul   $0x6968735f,%fs:0x67(%esi),%ebp
 870:	69 
 871:	66 74 73             	data16 je 8e7 <start_-0xff725>
 874:	00 72 65             	add    %dh,0x65(%edx)
 877:	73 75                	jae    8ee <start_-0xff71e>
 879:	6c                   	insb   (%dx),%es:(%edi)
 87a:	74 00                	je     87c <start_-0xff790>
 87c:	76 6d                	jbe    8eb <start_-0xff721>
 87e:	6d                   	insl   (%dx),%es:(%edi)
 87f:	5f                   	pop    %edi
 880:	69 6e 69 74 5f 70 64 	imul   $0x64705f74,0x69(%esi),%ebp
 887:	00 70 74             	add    %dh,0x74(%eax)
 88a:	5f                   	pop    %edi
 88b:	6f                   	outsl  %ds:(%esi),(%dx)
 88c:	66 66 73 65          	data16 data16 jae 8f5 <start_-0xff717>
 890:	74 00                	je     892 <start_-0xff77a>
 892:	73 65                	jae    8f9 <start_-0xff713>
 894:	6c                   	insb   (%dx),%es:(%edi)
 895:	66 5f                	pop    %di
 897:	70 64                	jo     8fd <start_-0xff70f>
 899:	65 00 70 64          	add    %dh,%gs:0x64(%eax)
 89d:	5f                   	pop    %edi
 89e:	6f                   	outsl  %ds:(%esi),(%dx)
 89f:	66 66 73 65          	data16 data16 jae 908 <start_-0xff704>
 8a3:	74 00                	je     8a5 <start_-0xff767>
 8a5:	6d                   	insl   (%dx),%es:(%edi)
 8a6:	65 6d                	gs insl (%dx),%es:(%edi)
 8a8:	73 65                	jae    90f <start_-0xff6fd>
 8aa:	74 00                	je     8ac <start_-0xff760>
 8ac:	67 65 74 5f          	addr16 gs je 90f <start_-0xff6fd>
 8b0:	70 64                	jo     916 <start_-0xff6f6>
 8b2:	00 70 74             	add    %dh,0x74(%eax)
 8b5:	5f                   	pop    %edi
 8b6:	74 00                	je     8b8 <start_-0xff754>
 8b8:	6e                   	outsb  %ds:(%esi),(%dx)
 8b9:	65 77 5f             	gs ja  91b <start_-0xff6f1>
 8bc:	70 74                	jo     932 <start_-0xff6da>
 8be:	5f                   	pop    %edi
 8bf:	70 61                	jo     922 <start_-0xff6ea>
 8c1:	00 64 61 74          	add    %ah,0x74(%ecx,%eiz,2)
 8c5:	74 72                	je     939 <start_-0xff6d3>
 8c7:	00 73 65             	add    %dh,0x65(%ebx)
 8ca:	74 5f                	je     92b <start_-0xff6e1>
 8cc:	70 64                	jo     932 <start_-0xff6da>
 8ce:	00 74 61 74          	add    %dh,0x74(%ecx,%eiz,2)
 8d2:	74 72                	je     946 <start_-0xff6c6>
 8d4:	00 74 74 79          	add    %dh,0x79(%esp,%esi,2)
 8d8:	5f                   	pop    %edi
 8d9:	70 75                	jo     950 <start_-0xff6bc>
 8db:	74 5f                	je     93c <start_-0xff6d0>
 8dd:	63 68 61             	arpl   %bp,0x61(%eax)
 8e0:	72 00                	jb     8e2 <start_-0xff72a>
 8e2:	6c                   	insb   (%dx),%es:(%edi)
 8e3:	61                   	popa   
 8e4:	73 74                	jae    95a <start_-0xff6b2>
 8e6:	5f                   	pop    %edi
 8e7:	6c                   	insb   (%dx),%es:(%edi)
 8e8:	69 6e 65 00 74 74 79 	imul   $0x79747400,0x65(%esi),%ebp
 8ef:	5f                   	pop    %edi
 8f0:	74 68                	je     95a <start_-0xff6b2>
 8f2:	65 6d                	gs insl (%dx),%es:(%edi)
 8f4:	65 5f                	gs pop %edi
 8f6:	63 6f 6c             	arpl   %bp,0x6c(%edi)
 8f9:	6f                   	outsl  %ds:(%esi),(%dx)
 8fa:	72 00                	jb     8fc <start_-0xff710>
 8fc:	76 67                	jbe    965 <start_-0xff6a7>
 8fe:	61                   	popa   
 8ff:	5f                   	pop    %edi
 900:	62 75 66             	bound  %esi,0x66(%ebp)
 903:	00 74 74 79          	add    %dh,0x79(%esp,%esi,2)
 907:	5f                   	pop    %edi
 908:	76 67                	jbe    971 <start_-0xff69b>
 90a:	61                   	popa   
 90b:	5f                   	pop    %edi
 90c:	62 75 66             	bound  %esi,0x66(%ebp)
 90f:	66 65 72 00          	data16 gs jb 913 <start_-0xff6f9>
 913:	74 74                	je     989 <start_-0xff683>
 915:	79 5f                	jns    976 <start_-0xff696>
 917:	63 6c 65 61          	arpl   %bp,0x61(%ebp,%eiz,2)
 91b:	72 00                	jb     91d <start_-0xff6ef>
 91d:	74 74                	je     993 <start_-0xff679>
 91f:	79 5f                	jns    980 <start_-0xff68c>
 921:	70 75                	jo     998 <start_-0xff674>
 923:	74 5f                	je     984 <start_-0xff688>
 925:	73 74                	jae    99b <start_-0xff671>
 927:	72 00                	jb     929 <start_-0xff6e3>
 929:	74 74                	je     99f <start_-0xff66d>
 92b:	79 5f                	jns    98c <start_-0xff680>
 92d:	78 00                	js     92f <start_-0xff6dd>
 92f:	74 74                	je     9a5 <start_-0xff667>
 931:	79 5f                	jns    992 <start_-0xff67a>
 933:	79 00                	jns    935 <start_-0xff6d7>
 935:	6d                   	insl   (%dx),%es:(%edi)
 936:	65 6d                	gs insl (%dx),%es:(%edi)
 938:	63 70 79             	arpl   %si,0x79(%eax)
 93b:	00 74 74 79          	add    %dh,0x79(%esp,%esi,2)
 93f:	5f                   	pop    %edi
 940:	73 63                	jae    9a5 <start_-0xff667>
 942:	72 6f                	jb     9b3 <start_-0xff659>
 944:	6c                   	insb   (%dx),%es:(%edi)
 945:	6c                   	insb   (%dx),%es:(%edi)
 946:	5f                   	pop    %edi
 947:	75 70                	jne    9b9 <start_-0xff653>
 949:	00 61 72             	add    %ah,0x72(%ecx)
 94c:	67 73 00             	addr16 jae 94f <start_-0xff6bd>
 94f:	5f                   	pop    %edi
 950:	5f                   	pop    %edi
 951:	67 6e                	outsb  %ds:(%si),(%dx)
 953:	75 63                	jne    9b8 <start_-0xff654>
 955:	5f                   	pop    %edi
 956:	76 61                	jbe    9b9 <start_-0xff653>
 958:	5f                   	pop    %edi
 959:	6c                   	insb   (%dx),%es:(%edi)
 95a:	69 73 74 00 5f 5f 73 	imul   $0x735f5f00,0x74(%ebx),%esi
 961:	70 72                	jo     9d5 <start_-0xff637>
 963:	69 6e 74 66 5f 69 6e 	imul   $0x6e695f66,0x74(%esi),%ebp
 96a:	74 65                	je     9d1 <start_-0xff63b>
 96c:	72 6e                	jb     9dc <start_-0xff630>
 96e:	61                   	popa   
 96f:	6c                   	insb   (%dx),%es:(%edi)
 970:	00 5f 5f             	add    %bl,0x5f(%edi)
 973:	62 75 69             	bound  %esi,0x69(%ebp)
 976:	6c                   	insb   (%dx),%es:(%edi)
 977:	74 69                	je     9e2 <start_-0xff62a>
 979:	6e                   	outsb  %ds:(%esi),(%dx)
 97a:	5f                   	pop    %edi
 97b:	76 61                	jbe    9de <start_-0xff62e>
 97d:	5f                   	pop    %edi
 97e:	6c                   	insb   (%dx),%es:(%edi)
 97f:	69 73 74 00 5f 5f 69 	imul   $0x695f5f00,0x74(%ebx),%esi
 986:	74 6f                	je     9f7 <start_-0xff615>
 988:	61                   	popa   
 989:	5f                   	pop    %edi
 98a:	69 6e 74 65 72 6e 61 	imul   $0x616e7265,0x74(%esi),%ebp
 991:	6c                   	insb   (%dx),%es:(%edi)
 992:	00 73 74             	add    %dh,0x74(%ebx)
 995:	72 6c                	jb     a03 <start_-0xff609>
 997:	65 6e                	outsb  %gs:(%esi),(%dx)
 999:	00 73 74             	add    %dh,0x74(%ebx)
 99c:	72 63                	jb     a01 <start_-0xff60b>
 99e:	70 79                	jo     a19 <start_-0xff5f3>
 9a0:	00 64 70 74          	add    %ah,0x74(%eax,%esi,2)
 9a4:	72 00                	jb     9a6 <start_-0xff666>
 9a6:	5f                   	pop    %edi
 9a7:	5f                   	pop    %edi
 9a8:	75 69                	jne    a13 <start_-0xff5f9>
 9aa:	74 6f                	je     a1b <start_-0xff5f1>
 9ac:	61                   	popa   
 9ad:	5f                   	pop    %edi
 9ae:	69 6e 74 65 72 6e 61 	imul   $0x616e7265,0x74(%esi),%ebp
 9b5:	6c                   	insb   (%dx),%es:(%edi)
 9b6:	00 75 6e             	add    %dh,0x6e(%ebp)
 9b9:	75 6d                	jne    a28 <start_-0xff5e4>
 9bb:	00 73 70             	add    %dh,0x70(%ebx)
 9be:	72 69                	jb     a29 <start_-0xff5e3>
 9c0:	6e                   	outsb  %ds:(%esi),(%dx)
 9c1:	74 66                	je     a29 <start_-0xff5e3>
 9c3:	00 62 61             	add    %ah,0x61(%edx)
 9c6:	73 65                	jae    a2d <start_-0xff5df>
 9c8:	5f                   	pop    %edi
 9c9:	63 68 61             	arpl   %bp,0x61(%eax)
 9cc:	72 00                	jb     9ce <start_-0xff63e>
 9ce:	69 74 6f 61 00 76 61 	imul   $0x6c617600,0x61(%edi,%ebp,2),%esi
 9d5:	6c 
 9d6:	75 65                	jne    a3d <start_-0xff5cf>
 9d8:	00 6d 65             	add    %ch,0x65(%ebp)
 9db:	6d                   	insl   (%dx),%es:(%edi)
 9dc:	6d                   	insl   (%dx),%es:(%edi)
 9dd:	6f                   	outsl  %ds:(%esi),(%dx)
 9de:	76 65                	jbe    a45 <start_-0xff5c7>
 9e0:	00 6d 65             	add    %ch,0x65(%ebp)
 9e3:	6d                   	insl   (%dx),%es:(%edi)
 9e4:	63 6d 70             	arpl   %bp,0x70(%ebp)
 9e7:	00 64 65 73          	add    %ah,0x73(%ebp,%eiz,2)
 9eb:	74 5f                	je     a4c <start_-0xff5c0>
 9ed:	70 74                	jo     a63 <start_-0xff5a9>
 9ef:	72 00                	jb     9f1 <start_-0xff61b>
 9f1:	64 65 73 74          	fs gs jae a69 <start_-0xff5a3>
 9f5:	00 73 72             	add    %dh,0x72(%ebx)
 9f8:	63 5f 70             	arpl   %bx,0x70(%edi)
 9fb:	74 72                	je     a6f <start_-0xff59d>
 9fd:	00 64 69 66          	add    %ah,0x66(%ecx,%ebp,2)
 a01:	66 00 70 74          	data16 add %dh,0x74(%eax)
 a05:	72 31                	jb     a38 <start_-0xff5d4>
 a07:	00 70 74             	add    %dh,0x74(%eax)
 a0a:	72 32                	jb     a3e <start_-0xff5ce>
	...

Disassembly of section .debug_line_str:

00000000 <.debug_line_str>:
   0:	2f                   	das    
   1:	6d                   	insl   (%dx),%es:(%edi)
   2:	65 64 69 61 2f 72 6f 	gs imul $0x74756f72,%fs:0x2f(%ecx),%esp
   9:	75 74 
   b:	68 6c 65 63 6b       	push   $0x6b63656c
  10:	2f                   	das    
  11:	57                   	push   %edi
  12:	69 6e 64 6f 77 73 2d 	imul   $0x2d73776f,0x64(%esi),%ebp
  19:	53                   	push   %ebx
  1a:	53                   	push   %ebx
  1b:	44                   	inc    %esp
  1c:	2f                   	das    
  1d:	55                   	push   %ebp
  1e:	73 65                	jae    85 <start_-0xfff87>
  20:	72 73                	jb     95 <start_-0xfff77>
  22:	2f                   	das    
  23:	52                   	push   %edx
  24:	6f                   	outsl  %ds:(%esi),(%dx)
  25:	75 74                	jne    9b <start_-0xfff71>
  27:	68 6c 65 63 6b       	push   $0x6b63656c
  2c:	2f                   	das    
  2d:	44                   	inc    %esp
  2e:	6f                   	outsl  %ds:(%esi),(%dx)
  2f:	63 75 6d             	arpl   %si,0x6d(%ebp)
  32:	65 6e                	outsb  %gs:(%esi),(%dx)
  34:	74 73                	je     a9 <start_-0xfff63>
  36:	2f                   	das    
  37:	47                   	inc    %edi
  38:	69 74 48 75 62 2f 6d 	imul   $0x796d2f62,0x75(%eax,%ecx,2),%esi
  3f:	79 
  40:	4f                   	dec    %edi
  41:	53                   	push   %ebx
  42:	00 61 72             	add    %ah,0x72(%ecx)
  45:	63 68 2f             	arpl   %bp,0x2f(%eax)
  48:	78 38                	js     82 <start_-0xfff8a>
  4a:	36 2f                	ss das 
  4c:	68 68 6b 2e 63       	push   $0x632e6b68
  51:	00 69 6e             	add    %ch,0x6e(%ecx)
  54:	63 6c 75 64          	arpl   %bp,0x64(%ebp,%esi,2)
  58:	65 73 2f             	gs jae 8a <start_-0xfff82>
  5b:	61                   	popa   
  5c:	72 63                	jb     c1 <start_-0xfff4b>
  5e:	68 2f 78 38 36       	push   $0x3638782f
  63:	2f                   	das    
  64:	62 6f 6f             	bound  %ebp,0x6f(%edi)
  67:	74 00                	je     69 <start_-0xfffa3>
  69:	2f                   	das    
  6a:	68 6f 6d 65 2f       	push   $0x2f656d6f
  6f:	72 6f                	jb     e0 <start_-0xfff2c>
  71:	75 74                	jne    e7 <start_-0xfff25>
  73:	68 6c 65 63 6b       	push   $0x6b63656c
  78:	2f                   	das    
  79:	63 72 6f             	arpl   %si,0x6f(%edx)
  7c:	73 73                	jae    f1 <start_-0xfff1b>
  7e:	2d 63 6f 6d 70       	sub    $0x706d6f63,%eax
  83:	69 6c 65 72 2f 6c 69 	imul   $0x62696c2f,0x72(%ebp,%eiz,2),%ebp
  8a:	62 
  8b:	2f                   	das    
  8c:	67 63 63 2f          	arpl   %sp,0x2f(%bp,%di)
  90:	69 36 38 36 2d 65    	imul   $0x652d3638,(%esi),%esi
  96:	6c                   	insb   (%dx),%es:(%edi)
  97:	66 2f                	data16 das 
  99:	31 31                	xor    %esi,(%ecx)
  9b:	2e 32 2e             	xor    %cs:(%esi),%ch
  9e:	30 2f                	xor    %ch,(%edi)
  a0:	69 6e 63 6c 75 64 65 	imul   $0x6564756c,0x63(%esi),%ebp
  a7:	00 69 6e             	add    %ch,0x6e(%ecx)
  aa:	63 6c 75 64          	arpl   %bp,0x64(%ebp,%esi,2)
  ae:	65 73 2f             	gs jae e0 <start_-0xfff2c>
  b1:	72 6f                	jb     122 <start_-0xffeea>
  b3:	75 74                	jne    129 <start_-0xffee3>
  b5:	68 6c 65 63 6b       	push   $0x6b63656c
  ba:	2f                   	das    
  bb:	6d                   	insl   (%dx),%es:(%edi)
  bc:	6d                   	insl   (%dx),%es:(%edi)
  bd:	00 6d 75             	add    %ch,0x75(%ebp)
  c0:	6c                   	insb   (%dx),%es:(%edi)
  c1:	74 69                	je     12c <start_-0xffee0>
  c3:	62 6f 6f             	bound  %ebp,0x6f(%edi)
  c6:	74 2e                	je     f6 <start_-0xfff16>
  c8:	68 00 73 74 64       	push   $0x64747300
  cd:	69 6e 74 2d 67 63 63 	imul   $0x6363672d,0x74(%esi),%ebp
  d4:	2e 68 00 70 61 67    	cs push $0x67617000
  da:	65 2e 68 00 68 61 6c 	gs cs push $0x6c616800
  e1:	2f                   	das    
  e2:	63 70 75             	arpl   %si,0x75(%eax)
  e5:	2e 63 00             	arpl   %ax,%cs:(%eax)
  e8:	69 6e 63 6c 75 64 65 	imul   $0x6564756c,0x63(%esi),%ebp
  ef:	73 2f                	jae    120 <start_-0xffeec>
  f1:	68 61 6c 00 63       	push   $0x63006c61
  f6:	70 75                	jo     16d <start_-0xffe9f>
  f8:	69 64 2e 68 00 63 70 	imul   $0x75706300,0x68(%esi,%ebp,1),%esp
  ff:	75 
 100:	2e 68 00 6b 65 72    	cs push $0x72656b00
 106:	6e                   	outsb  %ds:(%esi),(%dx)
 107:	65 6c                	gs insb (%dx),%es:(%edi)
 109:	2f                   	das    
 10a:	61                   	popa   
 10b:	73 6d                	jae    17a <start_-0xffe92>
 10d:	2f                   	das    
 10e:	78 38                	js     148 <start_-0xffec4>
 110:	36 2f                	ss das 
 112:	67 64 74 2e          	addr16 fs je 144 <start_-0xffec8>
 116:	63 00                	arpl   %ax,(%eax)
 118:	6b 65 72 6e          	imul   $0x6e,0x72(%ebp),%esp
 11c:	65 6c                	gs insb (%dx),%es:(%edi)
 11e:	2f                   	das    
 11f:	61                   	popa   
 120:	73 6d                	jae    18f <start_-0xffe7d>
 122:	2f                   	das    
 123:	78 38                	js     15d <start_-0xffeaf>
 125:	36 00 6b 65          	add    %ch,%ss:0x65(%ebx)
 129:	72 6e                	jb     199 <start_-0xffe73>
 12b:	65 6c                	gs insb (%dx),%es:(%edi)
 12d:	2f                   	das    
 12e:	61                   	popa   
 12f:	73 6d                	jae    19e <start_-0xffe6e>
 131:	2f                   	das    
 132:	78 38                	js     16c <start_-0xffea0>
 134:	36 2f                	ss das 
 136:	69 64 74 2e 63 00 69 	imul   $0x6e690063,0x2e(%esp,%esi,2),%esp
 13d:	6e 
 13e:	63 6c 75 64          	arpl   %bp,0x64(%ebp,%esi,2)
 142:	65 73 2f             	gs jae 174 <start_-0xffe98>
 145:	61                   	popa   
 146:	72 63                	jb     1ab <start_-0xffe61>
 148:	68 2f 78 38 36       	push   $0x3638782f
 14d:	00 69 6e             	add    %ch,0x6e(%ecx)
 150:	74 65                	je     1b7 <start_-0xffe55>
 152:	72 72                	jb     1c6 <start_-0xffe46>
 154:	75 70                	jne    1c6 <start_-0xffe46>
 156:	74 73                	je     1cb <start_-0xffe41>
 158:	2e 68 00 6b 65 72    	cs push $0x72656b00
 15e:	6e                   	outsb  %ds:(%esi),(%dx)
 15f:	65 6c                	gs insb (%dx),%es:(%edi)
 161:	2f                   	das    
 162:	61                   	popa   
 163:	73 6d                	jae    1d2 <start_-0xffe3a>
 165:	2f                   	das    
 166:	78 38                	js     1a0 <start_-0xffe6c>
 168:	36 2f                	ss das 
 16a:	69 6e 74 65 72 72 75 	imul   $0x75727265,0x74(%esi),%ebp
 171:	70 74                	jo     1e7 <start_-0xffe25>
 173:	73 2e                	jae    1a3 <start_-0xffe69>
 175:	63 00                	arpl   %ax,(%eax)
 177:	69 6e 63 6c 75 64 65 	imul   $0x6564756c,0x63(%esi),%ebp
 17e:	73 2f                	jae    1af <start_-0xffe5d>
 180:	6c                   	insb   (%dx),%es:(%edi)
 181:	69 62 63 00 73 74 64 	imul   $0x64747300,0x63(%edx),%esp
 188:	69 6f 2e 68 00 6b 65 	imul   $0x656b0068,0x2e(%edi),%ebp
 18f:	72 6e                	jb     1ff <start_-0xffe0d>
 191:	65 6c                	gs insb (%dx),%es:(%edi)
 193:	2f                   	das    
 194:	6b 5f 6d 61          	imul   $0x61,0x6d(%edi),%ebx
 198:	69 6e 2e 63 00 6b 65 	imul   $0x656b0063,0x2e(%esi),%ebp
 19f:	72 6e                	jb     20f <start_-0xffdfd>
 1a1:	65 6c                	gs insb (%dx),%es:(%edi)
 1a3:	00 69 6e             	add    %ch,0x6e(%ecx)
 1a6:	63 6c 75 64          	arpl   %bp,0x64(%ebp,%esi,2)
 1aa:	65 73 2f             	gs jae 1dc <start_-0xffe30>
 1ad:	72 6f                	jb     21e <start_-0xffdee>
 1af:	75 74                	jne    225 <start_-0xffde7>
 1b1:	68 6c 65 63 6b       	push   $0x6b63656c
 1b6:	2f                   	das    
 1b7:	74 74                	je     22d <start_-0xffddf>
 1b9:	79 00                	jns    1bb <start_-0xffe51>
 1bb:	74 74                	je     231 <start_-0xffddb>
 1bd:	79 2e                	jns    1ed <start_-0xffe1f>
 1bf:	68 00 73 74 64       	push   $0x64747300
 1c4:	64 65 66 2e 68 00 76 	fs gs cs pushw $0x7600
 1cb:	6d                   	insl   (%dx),%es:(%edi)
 1cc:	6d                   	insl   (%dx),%es:(%edi)
 1cd:	2e 68 00 70 6d 6d    	cs push $0x6d6d7000
 1d3:	2e 68 00 69 64 74    	cs push $0x74646900
 1d9:	2e 68 00 6b 65 72    	cs push $0x72656b00
 1df:	6e                   	outsb  %ds:(%esi),(%dx)
 1e0:	65 6c                	gs insb (%dx),%es:(%edi)
 1e2:	2f                   	das    
 1e3:	6d                   	insl   (%dx),%es:(%edi)
 1e4:	6d                   	insl   (%dx),%es:(%edi)
 1e5:	2f                   	das    
 1e6:	70 6d                	jo     255 <start_-0xffdb7>
 1e8:	6d                   	insl   (%dx),%es:(%edi)
 1e9:	2e 63 00             	arpl   %ax,%cs:(%eax)
 1ec:	6b 65 72 6e          	imul   $0x6e,0x72(%ebp),%esp
 1f0:	65 6c                	gs insb (%dx),%es:(%edi)
 1f2:	2f                   	das    
 1f3:	6d                   	insl   (%dx),%es:(%edi)
 1f4:	6d                   	insl   (%dx),%es:(%edi)
 1f5:	00 6b 65             	add    %ch,0x65(%ebx)
 1f8:	72 6e                	jb     268 <start_-0xffda4>
 1fa:	65 6c                	gs insb (%dx),%es:(%edi)
 1fc:	2f                   	das    
 1fd:	6d                   	insl   (%dx),%es:(%edi)
 1fe:	6d                   	insl   (%dx),%es:(%edi)
 1ff:	2f                   	das    
 200:	76 6d                	jbe    26f <start_-0xffd9d>
 202:	6d                   	insl   (%dx),%es:(%edi)
 203:	2e 63 00             	arpl   %ax,%cs:(%eax)
 206:	73 74                	jae    27c <start_-0xffd90>
 208:	72 69                	jb     273 <start_-0xffd99>
 20a:	6e                   	outsb  %ds:(%esi),(%dx)
 20b:	67 2e 68 00 6b 65 72 	addr16 cs push $0x72656b00
 212:	6e                   	outsb  %ds:(%esi),(%dx)
 213:	65 6c                	gs insb (%dx),%es:(%edi)
 215:	2f                   	das    
 216:	74 74                	je     28c <start_-0xffd80>
 218:	79 2f                	jns    249 <start_-0xffdc3>
 21a:	74 74                	je     290 <start_-0xffd7c>
 21c:	79 2e                	jns    24c <start_-0xffdc0>
 21e:	63 00                	arpl   %ax,(%eax)
 220:	6b 65 72 6e          	imul   $0x6e,0x72(%ebp),%esp
 224:	65 6c                	gs insb (%dx),%es:(%edi)
 226:	2f                   	das    
 227:	74 74                	je     29d <start_-0xffd6f>
 229:	79 00                	jns    22b <start_-0xffde1>
 22b:	6c                   	insb   (%dx),%es:(%edi)
 22c:	69 62 73 2f 6c 69 62 	imul   $0x62696c2f,0x73(%edx),%esp
 233:	63 2f                	arpl   %bp,(%edi)
 235:	73 74                	jae    2ab <start_-0xffd61>
 237:	64 69 6f 2f 70 72 69 	imul   $0x6e697270,%fs:0x2f(%edi),%ebp
 23e:	6e 
 23f:	74 66                	je     2a7 <start_-0xffd65>
 241:	2e 63 00             	arpl   %ax,%cs:(%eax)
 244:	6c                   	insb   (%dx),%es:(%edi)
 245:	69 62 73 2f 6c 69 62 	imul   $0x62696c2f,0x73(%edx),%esp
 24c:	63 2f                	arpl   %bp,(%edi)
 24e:	73 74                	jae    2c4 <start_-0xffd48>
 250:	64 69 6f 00 73 74 64 	imul   $0x61647473,%fs:0x0(%edi),%ebp
 257:	61 
 258:	72 67                	jb     2c1 <start_-0xffd4b>
 25a:	2e 68 00 6c 69 62    	cs push $0x62696c00
 260:	73 2f                	jae    291 <start_-0xffd7b>
 262:	6c                   	insb   (%dx),%es:(%edi)
 263:	69 62 63 2f 73 74 64 	imul   $0x6474732f,0x63(%edx),%esp
 26a:	69 6f 2f 73 70 72 69 	imul   $0x69727073,0x2f(%edi),%ebp
 271:	6e                   	outsb  %ds:(%esi),(%dx)
 272:	74 66                	je     2da <start_-0xffd32>
 274:	2e 63 00             	arpl   %ax,%cs:(%eax)
 277:	6c                   	insb   (%dx),%es:(%edi)
 278:	69 62 73 2f 6c 69 62 	imul   $0x62696c2f,0x73(%edx),%esp
 27f:	63 2f                	arpl   %bp,(%edi)
 281:	73 74                	jae    2f7 <start_-0xffd15>
 283:	64 6c                	fs insb (%dx),%es:(%edi)
 285:	69 62 2f 69 74 6f 61 	imul   $0x616f7469,0x2f(%edx),%esp
 28c:	2e 63 00             	arpl   %ax,%cs:(%eax)
 28f:	6c                   	insb   (%dx),%es:(%edi)
 290:	69 62 73 2f 6c 69 62 	imul   $0x62696c2f,0x73(%edx),%esp
 297:	63 2f                	arpl   %bp,(%edi)
 299:	73 74                	jae    30f <start_-0xffcfd>
 29b:	64 6c                	fs insb (%dx),%es:(%edi)
 29d:	69 62 00 6c 69 62 73 	imul   $0x7362696c,0x0(%edx),%esp
 2a4:	2f                   	das    
 2a5:	6c                   	insb   (%dx),%es:(%edi)
 2a6:	69 62 63 2f 73 74 72 	imul   $0x7274732f,0x63(%edx),%esp
 2ad:	69 6e 67 2f 6d 65 6d 	imul   $0x6d656d2f,0x67(%esi),%ebp
 2b4:	2e 63 00             	arpl   %ax,%cs:(%eax)
 2b7:	6c                   	insb   (%dx),%es:(%edi)
 2b8:	69 62 73 2f 6c 69 62 	imul   $0x62696c2f,0x73(%edx),%esp
 2bf:	63 2f                	arpl   %bp,(%edi)
 2c1:	73 74                	jae    337 <start_-0xffcd5>
 2c3:	72 69                	jb     32e <start_-0xffcde>
 2c5:	6e                   	outsb  %ds:(%esi),(%dx)
 2c6:	67 00 6c 69          	add    %ch,0x69(%si)
 2ca:	62 73 2f             	bound  %esi,0x2f(%ebx)
 2cd:	6c                   	insb   (%dx),%es:(%edi)
 2ce:	69 62 63 2f 73 74 72 	imul   $0x7274732f,0x63(%edx),%esp
 2d5:	69 6e 67 2f 73 74 72 	imul   $0x7274732f,0x67(%esi),%ebp
 2dc:	63 70 79             	arpl   %si,0x79(%eax)
 2df:	2e 63 00             	arpl   %ax,%cs:(%eax)
 2e2:	6c                   	insb   (%dx),%es:(%edi)
 2e3:	69 62 73 2f 6c 69 62 	imul   $0x62696c2f,0x73(%edx),%esp
 2ea:	63 2f                	arpl   %bp,(%edi)
 2ec:	73 74                	jae    362 <start_-0xffcaa>
 2ee:	72 69                	jb     359 <start_-0xffcb3>
 2f0:	6e                   	outsb  %ds:(%esi),(%dx)
 2f1:	67 2f                	addr16 das 
 2f3:	73 74                	jae    369 <start_-0xffca3>
 2f5:	72 6c                	jb     363 <start_-0xffca9>
 2f7:	65 6e                	outsb  %gs:(%esi),(%dx)
 2f9:	2e 63 00             	arpl   %ax,%cs:(%eax)

Disassembly of section .comment:

00000000 <.comment>:
   0:	47                   	inc    %edi
   1:	43                   	inc    %ebx
   2:	43                   	inc    %ebx
   3:	3a 20                	cmp    (%eax),%ah
   5:	28 47 4e             	sub    %al,0x4e(%edi)
   8:	55                   	push   %ebp
   9:	29 20                	sub    %esp,(%eax)
   b:	31 31                	xor    %esi,(%ecx)
   d:	2e 32 2e             	xor    %cs:(%esi),%ch
  10:	30 00                	xor    %al,(%eax)

Disassembly of section .debug_frame:

00000000 <.debug_frame>:
   0:	10 00                	adc    %al,(%eax)
   2:	00 00                	add    %al,(%eax)
   4:	ff                   	(bad)  
   5:	ff                   	(bad)  
   6:	ff                   	(bad)  
   7:	ff 01                	incl   (%ecx)
   9:	00 01                	add    %al,(%ecx)
   b:	7c 08                	jl     15 <start_-0xffff7>
   d:	0c 04                	or     $0x4,%al
   f:	04 88                	add    $0x88,%al
  11:	01 00                	add    %eax,(%eax)
  13:	00 28                	add    %ch,(%eax)
  15:	00 00                	add    %al,(%eax)
  17:	00 00                	add    %al,(%eax)
  19:	00 00                	add    %al,(%eax)
  1b:	00 57 00             	add    %dl,0x0(%edi)
  1e:	10 00                	adc    %al,(%eax)
  20:	04 01                	add    $0x1,%al
  22:	00 00                	add    %al,(%eax)
  24:	41                   	inc    %ecx
  25:	0e                   	push   %cs
  26:	08 85 02 42 0d 05    	or     %al,0x50d4202(%ebp)
  2c:	46                   	inc    %esi
  2d:	87 03                	xchg   %eax,(%ebx)
  2f:	86 04 83             	xchg   %al,(%ebx,%eax,4)
  32:	05 02 f7 c3 41       	add    $0x41c3f702,%eax
  37:	c6 41 c7 41          	movb   $0x41,-0x39(%ecx)
  3b:	c5 0c 04             	lds    (%esp,%eax,1),%ecx
  3e:	04 00                	add    $0x0,%al
  40:	24 00                	and    $0x0,%al
  42:	00 00                	add    %al,(%eax)
  44:	00 00                	add    %al,(%eax)
  46:	00 00                	add    %al,(%eax)
  48:	5b                   	pop    %ebx
  49:	01 10                	add    %edx,(%eax)
  4b:	00 27                	add    %ah,(%edi)
  4d:	00 00                	add    %al,(%eax)
  4f:	00 41 0e             	add    %al,0xe(%ecx)
  52:	08 85 02 42 0d 05    	or     %al,0x50d4202(%ebp)
  58:	42                   	inc    %edx
  59:	86 03                	xchg   %al,(%ebx)
  5b:	83 04 5f c3          	addl   $0xffffffc3,(%edi,%ebx,2)
  5f:	41                   	inc    %ecx
  60:	c6 41 c5 0c          	movb   $0xc,-0x3b(%ecx)
  64:	04 04                	add    $0x4,%al
  66:	00 00                	add    %al,(%eax)
  68:	2c 00                	sub    $0x0,%al
  6a:	00 00                	add    %al,(%eax)
  6c:	00 00                	add    %al,(%eax)
  6e:	00 00                	add    %al,(%eax)
  70:	82 01 10             	addb   $0x10,(%ecx)
  73:	00 66 00             	add    %ah,0x0(%esi)
  76:	00 00                	add    %al,(%eax)
  78:	41                   	inc    %ecx
  79:	0e                   	push   %cs
  7a:	08 85 02 42 0d 05    	or     %al,0x50d4202(%ebp)
  80:	46                   	inc    %esi
  81:	87 03                	xchg   %eax,(%ebx)
  83:	86 04 83             	xchg   %al,(%ebx,%eax,4)
  86:	05 7f 0a c3 41       	add    $0x41c30a7f,%eax
  8b:	c6 41 c7 41          	movb   $0x41,-0x39(%ecx)
  8f:	c5 0c 04             	lds    (%esp,%eax,1),%ecx
  92:	04 41                	add    $0x41,%al
  94:	0b 00                	or     (%eax),%eax
  96:	00 00                	add    %al,(%eax)
  98:	1c 00                	sbb    $0x0,%al
  9a:	00 00                	add    %al,(%eax)
  9c:	00 00                	add    %al,(%eax)
  9e:	00 00                	add    %al,(%eax)
  a0:	e8 01 10 00 26       	call   260010a6 <__init_hhk_end+0x25efb0a6>
  a5:	00 00                	add    %al,(%eax)
  a7:	00 41 0e             	add    %al,0xe(%ecx)
  aa:	08 85 02 42 0d 05    	or     %al,0x50d4202(%ebp)
  b0:	62                   	(bad)  
  b1:	c5 0c 04             	lds    (%esp,%eax,1),%ecx
  b4:	04 00                	add    $0x0,%al
  b6:	00 00                	add    %al,(%eax)
  b8:	10 00                	adc    %al,(%eax)
  ba:	00 00                	add    %al,(%eax)
  bc:	ff                   	(bad)  
  bd:	ff                   	(bad)  
  be:	ff                   	(bad)  
  bf:	ff 01                	incl   (%ecx)
  c1:	00 01                	add    %al,(%ecx)
  c3:	7c 08                	jl     cd <start_-0xfff3f>
  c5:	0c 04                	or     $0x4,%al
  c7:	04 88                	add    $0x88,%al
  c9:	01 00                	add    %eax,(%eax)
  cb:	00 24 00             	add    %ah,(%eax,%eax,1)
  ce:	00 00                	add    %al,(%eax)
  d0:	b8 00 00 00 8d       	mov    $0x8d000000,%eax
  d5:	6b 10 c0             	imul   $0xffffffc0,(%eax),%edx
  d8:	53                   	push   %ebx
  d9:	00 00                	add    %al,(%eax)
  db:	00 41 0e             	add    %al,0xe(%ecx)
  de:	08 85 02 42 0d 05    	or     %al,0x50d4202(%ebp)
  e4:	42                   	inc    %edx
  e5:	86 03                	xchg   %al,(%ebx)
  e7:	83 04 02 4b          	addl   $0x4b,(%edx,%eax,1)
  eb:	c3                   	ret    
  ec:	41                   	inc    %ecx
  ed:	c6 41 c5 0c          	movb   $0xc,-0x3b(%ecx)
  f1:	04 04                	add    $0x4,%al
  f3:	00 20                	add    %ah,(%eax)
  f5:	00 00                	add    %al,(%eax)
  f7:	00 b8 00 00 00 e0    	add    %bh,-0x20000000(%eax)
  fd:	6b 10 c0             	imul   $0xffffffc0,(%eax),%edx
 100:	3f                   	aas    
 101:	00 00                	add    %al,(%eax)
 103:	00 59 0e             	add    %bl,0xe(%ecx)
 106:	08 85 02 42 0d 05    	or     %al,0x50d4202(%ebp)
 10c:	41                   	inc    %ecx
 10d:	83 03 56             	addl   $0x56,(%ebx)
 110:	c5 c3 0c             	(bad)
 113:	04 04                	add    $0x4,%al
 115:	00 00                	add    %al,(%eax)
 117:	00 28                	add    %ch,(%eax)
 119:	00 00                	add    %al,(%eax)
 11b:	00 b8 00 00 00 1f    	add    %bh,0x1f000000(%eax)
 121:	6c                   	insb   (%dx),%es:(%edi)
 122:	10 c0                	adc    %al,%al
 124:	dd 00                	fldl   (%eax)
 126:	00 00                	add    %al,(%eax)
 128:	41                   	inc    %ecx
 129:	0e                   	push   %cs
 12a:	08 85 02 42 0d 05    	or     %al,0x50d4202(%ebp)
 130:	46                   	inc    %esi
 131:	87 03                	xchg   %eax,(%ebx)
 133:	86 04 83             	xchg   %al,(%ebx,%eax,4)
 136:	05 02 d0 c3 41       	add    $0x41c3d002,%eax
 13b:	c6 41 c7 41          	movb   $0x41,-0x39(%ecx)
 13f:	c5 0c 04             	lds    (%esp,%eax,1),%ecx
 142:	04 00                	add    $0x0,%al
 144:	0c 00                	or     $0x0,%al
 146:	00 00                	add    %al,(%eax)
 148:	b8 00 00 00 fc       	mov    $0xfc000000,%eax
 14d:	6c                   	insb   (%dx),%es:(%edi)
 14e:	10 c0                	adc    %al,%al
 150:	04 00                	add    $0x0,%al
 152:	00 00                	add    %al,(%eax)
 154:	0c 00                	or     $0x0,%al
 156:	00 00                	add    %al,(%eax)
 158:	b8 00 00 00 00       	mov    $0x0,%eax
 15d:	6d                   	insl   (%dx),%es:(%edi)
 15e:	10 c0                	adc    %al,%al
 160:	04 00                	add    $0x0,%al
 162:	00 00                	add    %al,(%eax)
 164:	0c 00                	or     $0x0,%al
 166:	00 00                	add    %al,(%eax)
 168:	b8 00 00 00 04       	mov    $0x4000000,%eax
 16d:	6d                   	insl   (%dx),%es:(%edi)
 16e:	10 c0                	adc    %al,%al
 170:	04 00                	add    $0x0,%al
 172:	00 00                	add    %al,(%eax)
 174:	1c 00                	sbb    $0x0,%al
 176:	00 00                	add    %al,(%eax)
 178:	b8 00 00 00 08       	mov    $0x8000000,%eax
 17d:	6d                   	insl   (%dx),%es:(%edi)
 17e:	10 c0                	adc    %al,%al
 180:	0b 00                	or     (%eax),%eax
 182:	00 00                	add    %al,(%eax)
 184:	41                   	inc    %ecx
 185:	0e                   	push   %cs
 186:	08 85 02 42 0d 05    	or     %al,0x50d4202(%ebp)
 18c:	47                   	inc    %edi
 18d:	c5 0c 04             	lds    (%esp,%eax,1),%ecx
 190:	04 00                	add    $0x0,%al
 192:	00 00                	add    %al,(%eax)
 194:	1c 00                	sbb    $0x0,%al
 196:	00 00                	add    %al,(%eax)
 198:	b8 00 00 00 13       	mov    $0x13000000,%eax
 19d:	6d                   	insl   (%dx),%es:(%edi)
 19e:	10 c0                	adc    %al,%al
 1a0:	0b 00                	or     (%eax),%eax
 1a2:	00 00                	add    %al,(%eax)
 1a4:	41                   	inc    %ecx
 1a5:	0e                   	push   %cs
 1a6:	08 85 02 42 0d 05    	or     %al,0x50d4202(%ebp)
 1ac:	47                   	inc    %edi
 1ad:	c5 0c 04             	lds    (%esp,%eax,1),%ecx
 1b0:	04 00                	add    $0x0,%al
 1b2:	00 00                	add    %al,(%eax)
 1b4:	1c 00                	sbb    $0x0,%al
 1b6:	00 00                	add    %al,(%eax)
 1b8:	b8 00 00 00 1e       	mov    $0x1e000000,%eax
 1bd:	6d                   	insl   (%dx),%es:(%edi)
 1be:	10 c0                	adc    %al,%al
 1c0:	0b 00                	or     (%eax),%eax
 1c2:	00 00                	add    %al,(%eax)
 1c4:	41                   	inc    %ecx
 1c5:	0e                   	push   %cs
 1c6:	08 85 02 42 0d 05    	or     %al,0x50d4202(%ebp)
 1cc:	47                   	inc    %edi
 1cd:	c5 0c 04             	lds    (%esp,%eax,1),%ecx
 1d0:	04 00                	add    $0x0,%al
 1d2:	00 00                	add    %al,(%eax)
 1d4:	10 00                	adc    %al,(%eax)
 1d6:	00 00                	add    %al,(%eax)
 1d8:	ff                   	(bad)  
 1d9:	ff                   	(bad)  
 1da:	ff                   	(bad)  
 1db:	ff 01                	incl   (%ecx)
 1dd:	00 01                	add    %al,(%ecx)
 1df:	7c 08                	jl     1e9 <start_-0xffe23>
 1e1:	0c 04                	or     $0x4,%al
 1e3:	04 88                	add    $0x88,%al
 1e5:	01 00                	add    %eax,(%eax)
 1e7:	00 28                	add    %ch,(%eax)
 1e9:	00 00                	add    %al,(%eax)
 1eb:	00 d4                	add    %dl,%ah
 1ed:	01 00                	add    %eax,(%eax)
 1ef:	00 00                	add    %al,(%eax)
 1f1:	60                   	pusha  
 1f2:	10 c0                	adc    %al,%al
 1f4:	72 00                	jb     1f6 <start_-0xffe16>
 1f6:	00 00                	add    %al,(%eax)
 1f8:	41                   	inc    %ecx
 1f9:	0e                   	push   %cs
 1fa:	08 85 02 42 0d 05    	or     %al,0x50d4202(%ebp)
 200:	43                   	inc    %ebx
 201:	87 03                	xchg   %eax,(%ebx)
 203:	86 04 83             	xchg   %al,(%ebx,%eax,4)
 206:	05 02 68 c3 41       	add    $0x41c36802,%eax
 20b:	c6 41 c7 41          	movb   $0x41,-0x39(%ecx)
 20f:	c5 0c 04             	lds    (%esp,%eax,1),%ecx
 212:	04 00                	add    $0x0,%al
 214:	1c 00                	sbb    $0x0,%al
 216:	00 00                	add    %al,(%eax)
 218:	d4 01                	aam    $0x1
 21a:	00 00                	add    %al,(%eax)
 21c:	72 60                	jb     27e <start_-0xffd8e>
 21e:	10 c0                	adc    %al,%al
 220:	6a 00                	push   $0x0
 222:	00 00                	add    %al,(%eax)
 224:	41                   	inc    %ecx
 225:	0e                   	push   %cs
 226:	08 85 02 42 0d 05    	or     %al,0x50d4202(%ebp)
 22c:	02 66 c5             	add    -0x3b(%esi),%ah
 22f:	0c 04                	or     $0x4,%al
 231:	04 00                	add    $0x0,%al
 233:	00 10                	add    %dl,(%eax)
 235:	00 00                	add    %al,(%eax)
 237:	00 ff                	add    %bh,%bh
 239:	ff                   	(bad)  
 23a:	ff                   	(bad)  
 23b:	ff 01                	incl   (%ecx)
 23d:	00 01                	add    %al,(%ecx)
 23f:	7c 08                	jl     249 <start_-0xffdc3>
 241:	0c 04                	or     $0x4,%al
 243:	04 88                	add    $0x88,%al
 245:	01 00                	add    %eax,(%eax)
 247:	00 20                	add    %ah,(%eax)
 249:	00 00                	add    %al,(%eax)
 24b:	00 34 02             	add    %dh,(%edx,%eax,1)
 24e:	00 00                	add    %al,(%eax)
 250:	dc 60 10             	fsubl  0x10(%eax)
 253:	c0 64 00 00 00       	shlb   $0x0,0x0(%eax,%eax,1)
 258:	41                   	inc    %ecx
 259:	0e                   	push   %cs
 25a:	08 85 02 42 0d 05    	or     %al,0x50d4202(%ebp)
 260:	41                   	inc    %ecx
 261:	83 03 02             	addl   $0x2,(%ebx)
 264:	5f                   	pop    %edi
 265:	c5 c3 0c             	(bad)
 268:	04 04                	add    $0x4,%al
 26a:	00 00                	add    %al,(%eax)
 26c:	1c 00                	sbb    $0x0,%al
 26e:	00 00                	add    %al,(%eax)
 270:	34 02                	xor    $0x2,%al
 272:	00 00                	add    %al,(%eax)
 274:	40                   	inc    %eax
 275:	61                   	popa   
 276:	10 c0                	adc    %al,%al
 278:	1b 00                	sbb    (%eax),%eax
 27a:	00 00                	add    %al,(%eax)
 27c:	41                   	inc    %ecx
 27d:	0e                   	push   %cs
 27e:	08 85 02 42 0d 05    	or     %al,0x50d4202(%ebp)
 284:	57                   	push   %edi
 285:	c5 0c 04             	lds    (%esp,%eax,1),%ecx
 288:	04 00                	add    $0x0,%al
 28a:	00 00                	add    %al,(%eax)
 28c:	10 00                	adc    %al,(%eax)
 28e:	00 00                	add    %al,(%eax)
 290:	ff                   	(bad)  
 291:	ff                   	(bad)  
 292:	ff                   	(bad)  
 293:	ff 01                	incl   (%ecx)
 295:	00 01                	add    %al,(%ecx)
 297:	7c 08                	jl     2a1 <start_-0xffd6b>
 299:	0c 04                	or     $0x4,%al
 29b:	04 88                	add    $0x88,%al
 29d:	01 00                	add    %eax,(%eax)
 29f:	00 1c 00             	add    %bl,(%eax,%eax,1)
 2a2:	00 00                	add    %al,(%eax)
 2a4:	8c 02                	mov    %es,(%edx)
 2a6:	00 00                	add    %al,(%eax)
 2a8:	78 61                	js     30b <start_-0xffd01>
 2aa:	10 c0                	adc    %al,%al
 2ac:	20 00                	and    %al,(%eax)
 2ae:	00 00                	add    %al,(%eax)
 2b0:	41                   	inc    %ecx
 2b1:	0e                   	push   %cs
 2b2:	08 85 02 42 0d 05    	or     %al,0x50d4202(%ebp)
 2b8:	5c                   	pop    %esp
 2b9:	c5 0c 04             	lds    (%esp,%eax,1),%ecx
 2bc:	04 00                	add    $0x0,%al
 2be:	00 00                	add    %al,(%eax)
 2c0:	1c 00                	sbb    $0x0,%al
 2c2:	00 00                	add    %al,(%eax)
 2c4:	8c 02                	mov    %es,(%edx)
 2c6:	00 00                	add    %al,(%eax)
 2c8:	98                   	cwtl   
 2c9:	61                   	popa   
 2ca:	10 c0                	adc    %al,%al
 2cc:	1e                   	push   %ds
 2cd:	00 00                	add    %al,(%eax)
 2cf:	00 41 0e             	add    %al,0xe(%ecx)
 2d2:	08 85 02 42 0d 05    	or     %al,0x50d4202(%ebp)
 2d8:	4c                   	dec    %esp
 2d9:	0a c5                	or     %ch,%al
 2db:	0c 04                	or     $0x4,%al
 2dd:	04 41                	add    $0x41,%al
 2df:	0b 10                	or     (%eax),%edx
 2e1:	00 00                	add    %al,(%eax)
 2e3:	00 ff                	add    %bh,%bh
 2e5:	ff                   	(bad)  
 2e6:	ff                   	(bad)  
 2e7:	ff 01                	incl   (%ecx)
 2e9:	00 01                	add    %al,(%ecx)
 2eb:	7c 08                	jl     2f5 <start_-0xffd17>
 2ed:	0c 04                	or     $0x4,%al
 2ef:	04 88                	add    $0x88,%al
 2f1:	01 00                	add    %eax,(%eax)
 2f3:	00 28                	add    %ch,(%eax)
 2f5:	00 00                	add    %al,(%eax)
 2f7:	00 e0                	add    %ah,%al
 2f9:	02 00                	add    (%eax),%al
 2fb:	00 26                	add    %ah,(%esi)
 2fd:	62 10                	bound  %edx,(%eax)
 2ff:	c0 00 02             	rolb   $0x2,(%eax)
 302:	00 00                	add    %al,(%eax)
 304:	41                   	inc    %ecx
 305:	0e                   	push   %cs
 306:	08 85 02 42 0d 05    	or     %al,0x50d4202(%ebp)
 30c:	46                   	inc    %esi
 30d:	87 03                	xchg   %eax,(%ebx)
 30f:	86 04 83             	xchg   %al,(%ebx,%eax,4)
 312:	05 03 f3 01 c3       	add    $0xc301f303,%eax
 317:	41                   	inc    %ecx
 318:	c6 41 c7 41          	movb   $0x41,-0x39(%ecx)
 31c:	c5 0c 04             	lds    (%esp,%eax,1),%ecx
 31f:	04 24                	add    $0x24,%al
 321:	00 00                	add    %al,(%eax)
 323:	00 e0                	add    %ah,%al
 325:	02 00                	add    (%eax),%al
 327:	00 26                	add    %ah,(%esi)
 329:	64 10 c0             	fs adc %al,%al
 32c:	61                   	popa   
 32d:	00 00                	add    %al,(%eax)
 32f:	00 41 0e             	add    %al,0xe(%ecx)
 332:	08 85 02 42 0d 05    	or     %al,0x50d4202(%ebp)
 338:	42                   	inc    %edx
 339:	86 03                	xchg   %al,(%ebx)
 33b:	83 04 02 59          	addl   $0x59,(%edx,%eax,1)
 33f:	c3                   	ret    
 340:	41                   	inc    %ecx
 341:	c6 41 c5 0c          	movb   $0xc,-0x3b(%ecx)
 345:	04 04                	add    $0x4,%al
 347:	00 20                	add    %ah,(%eax)
 349:	00 00                	add    %al,(%eax)
 34b:	00 e0                	add    %ah,%al
 34d:	02 00                	add    (%eax),%al
 34f:	00 87 64 10 c0 51    	add    %al,0x51c01064(%edi)
 355:	00 00                	add    %al,(%eax)
 357:	00 41 0e             	add    %al,0xe(%ecx)
 35a:	08 85 02 42 0d 05    	or     %al,0x50d4202(%ebp)
 360:	44                   	inc    %esp
 361:	83 03 02             	addl   $0x2,(%ebx)
 364:	49                   	dec    %ecx
 365:	c5 c3 0c             	(bad)
 368:	04 04                	add    $0x4,%al
 36a:	00 00                	add    %al,(%eax)
 36c:	10 00                	adc    %al,(%eax)
 36e:	00 00                	add    %al,(%eax)
 370:	ff                   	(bad)  
 371:	ff                   	(bad)  
 372:	ff                   	(bad)  
 373:	ff 01                	incl   (%ecx)
 375:	00 01                	add    %al,(%ecx)
 377:	7c 08                	jl     381 <start_-0xffc8b>
 379:	0c 04                	or     $0x4,%al
 37b:	04 88                	add    $0x88,%al
 37d:	01 00                	add    %eax,(%eax)
 37f:	00 1c 00             	add    %bl,(%eax,%eax,1)
 382:	00 00                	add    %al,(%eax)
 384:	6c                   	insb   (%dx),%es:(%edi)
 385:	03 00                	add    (%eax),%eax
 387:	00 d8                	add    %bl,%al
 389:	64 10 c0             	fs adc %al,%al
 38c:	1f                   	pop    %ds
 38d:	00 00                	add    %al,(%eax)
 38f:	00 41 0e             	add    %al,0xe(%ecx)
 392:	08 85 02 42 0d 05    	or     %al,0x50d4202(%ebp)
 398:	5b                   	pop    %ebx
 399:	c5 0c 04             	lds    (%esp,%eax,1),%ecx
 39c:	04 00                	add    $0x0,%al
 39e:	00 00                	add    %al,(%eax)
 3a0:	1c 00                	sbb    $0x0,%al
 3a2:	00 00                	add    %al,(%eax)
 3a4:	6c                   	insb   (%dx),%es:(%edi)
 3a5:	03 00                	add    (%eax),%eax
 3a7:	00 f7                	add    %dh,%bh
 3a9:	64 10 c0             	fs adc %al,%al
 3ac:	1d 00 00 00 41       	sbb    $0x41000000,%eax
 3b1:	0e                   	push   %cs
 3b2:	08 85 02 42 0d 05    	or     %al,0x50d4202(%ebp)
 3b8:	59                   	pop    %ecx
 3b9:	c5 0c 04             	lds    (%esp,%eax,1),%ecx
 3bc:	04 00                	add    $0x0,%al
 3be:	00 00                	add    %al,(%eax)
 3c0:	2c 00                	sub    $0x0,%al
 3c2:	00 00                	add    %al,(%eax)
 3c4:	6c                   	insb   (%dx),%es:(%edi)
 3c5:	03 00                	add    (%eax),%eax
 3c7:	00 14 65 10 c0 b5 00 	add    %dl,0xb5c010(,%eiz,2)
 3ce:	00 00                	add    %al,(%eax)
 3d0:	41                   	inc    %ecx
 3d1:	0e                   	push   %cs
 3d2:	08 85 02 42 0d 05    	or     %al,0x50d4202(%ebp)
 3d8:	46                   	inc    %esi
 3d9:	87 03                	xchg   %eax,(%ebx)
 3db:	86 04 83             	xchg   %al,(%ebx,%eax,4)
 3de:	05 02 a1 0a c3       	add    $0xc30aa102,%eax
 3e3:	41                   	inc    %ecx
 3e4:	c6 41 c7 41          	movb   $0x41,-0x39(%ecx)
 3e8:	c5 0c 04             	lds    (%esp,%eax,1),%ecx
 3eb:	04 41                	add    $0x41,%al
 3ed:	0b 00                	or     (%eax),%eax
 3ef:	00 2c 00             	add    %ch,(%eax,%eax,1)
 3f2:	00 00                	add    %al,(%eax)
 3f4:	6c                   	insb   (%dx),%es:(%edi)
 3f5:	03 00                	add    (%eax),%eax
 3f7:	00 c9                	add    %cl,%cl
 3f9:	65 10 c0             	gs adc %al,%al
 3fc:	b3 00                	mov    $0x0,%bl
 3fe:	00 00                	add    %al,(%eax)
 400:	41                   	inc    %ecx
 401:	0e                   	push   %cs
 402:	08 85 02 42 0d 05    	or     %al,0x50d4202(%ebp)
 408:	46                   	inc    %esi
 409:	87 03                	xchg   %eax,(%ebx)
 40b:	86 04 83             	xchg   %al,(%ebx,%eax,4)
 40e:	05 02 9f 0a c3       	add    $0xc30a9f02,%eax
 413:	41                   	inc    %ecx
 414:	c6 41 c7 41          	movb   $0x41,-0x39(%ecx)
 418:	c5 0c 04             	lds    (%esp,%eax,1),%ecx
 41b:	04 41                	add    $0x41,%al
 41d:	0b 00                	or     (%eax),%eax
 41f:	00 1c 00             	add    %bl,(%eax,%eax,1)
 422:	00 00                	add    %al,(%eax)
 424:	6c                   	insb   (%dx),%es:(%edi)
 425:	03 00                	add    (%eax),%eax
 427:	00 7c 66 10          	add    %bh,0x10(%esi,%eiz,2)
 42b:	c0 32 00             	shlb   $0x0,(%edx)
 42e:	00 00                	add    %al,(%eax)
 430:	41                   	inc    %ecx
 431:	0e                   	push   %cs
 432:	08 85 02 42 0d 05    	or     %al,0x50d4202(%ebp)
 438:	6e                   	outsb  %ds:(%esi),(%dx)
 439:	c5 0c 04             	lds    (%esp,%eax,1),%ecx
 43c:	04 00                	add    $0x0,%al
 43e:	00 00                	add    %al,(%eax)
 440:	28 00                	sub    %al,(%eax)
 442:	00 00                	add    %al,(%eax)
 444:	6c                   	insb   (%dx),%es:(%edi)
 445:	03 00                	add    (%eax),%eax
 447:	00 ae 66 10 c0 ac    	add    %ch,-0x533fef9a(%esi)
 44d:	00 00                	add    %al,(%eax)
 44f:	00 41 0e             	add    %al,0xe(%ecx)
 452:	08 85 02 42 0d 05    	or     %al,0x50d4202(%ebp)
 458:	46                   	inc    %esi
 459:	87 03                	xchg   %eax,(%ebx)
 45b:	86 04 83             	xchg   %al,(%ebx,%eax,4)
 45e:	05 02 9f c3 41       	add    $0x41c39f02,%eax
 463:	c6 41 c7 41          	movb   $0x41,-0x39(%ecx)
 467:	c5 0c 04             	lds    (%esp,%eax,1),%ecx
 46a:	04 00                	add    $0x0,%al
 46c:	1c 00                	sbb    $0x0,%al
 46e:	00 00                	add    %al,(%eax)
 470:	6c                   	insb   (%dx),%es:(%edi)
 471:	03 00                	add    (%eax),%eax
 473:	00 5a 67             	add    %bl,0x67(%edx)
 476:	10 c0                	adc    %al,%al
 478:	37                   	aaa    
 479:	00 00                	add    %al,(%eax)
 47b:	00 41 0e             	add    %al,0xe(%ecx)
 47e:	08 85 02 42 0d 05    	or     %al,0x50d4202(%ebp)
 484:	73 c5                	jae    44b <start_-0xffbc1>
 486:	0c 04                	or     $0x4,%al
 488:	04 00                	add    $0x0,%al
 48a:	00 00                	add    %al,(%eax)
 48c:	10 00                	adc    %al,(%eax)
 48e:	00 00                	add    %al,(%eax)
 490:	ff                   	(bad)  
 491:	ff                   	(bad)  
 492:	ff                   	(bad)  
 493:	ff 01                	incl   (%ecx)
 495:	00 01                	add    %al,(%ecx)
 497:	7c 08                	jl     4a1 <start_-0xffb6b>
 499:	0c 04                	or     $0x4,%al
 49b:	04 88                	add    $0x88,%al
 49d:	01 00                	add    %eax,(%eax)
 49f:	00 0c 00             	add    %cl,(%eax,%eax,1)
 4a2:	00 00                	add    %al,(%eax)
 4a4:	8c 04 00             	mov    %es,(%eax,%eax,1)
 4a7:	00 91 67 10 c0 0e    	add    %dl,0xec01067(%ecx)
 4ad:	00 00                	add    %al,(%eax)
 4af:	00 1c 00             	add    %bl,(%eax,%eax,1)
 4b2:	00 00                	add    %al,(%eax)
 4b4:	8c 04 00             	mov    %es,(%eax,%eax,1)
 4b7:	00 9f 67 10 c0 12    	add    %bl,0x12c01067(%edi)
 4bd:	00 00                	add    %al,(%eax)
 4bf:	00 41 0e             	add    %al,0xe(%ecx)
 4c2:	08 85 02 42 0d 05    	or     %al,0x50d4202(%ebp)
 4c8:	4e                   	dec    %esi
 4c9:	c5 0c 04             	lds    (%esp,%eax,1),%ecx
 4cc:	04 00                	add    $0x0,%al
 4ce:	00 00                	add    %al,(%eax)
 4d0:	0c 00                	or     $0x0,%al
 4d2:	00 00                	add    %al,(%eax)
 4d4:	8c 04 00             	mov    %es,(%eax,%eax,1)
 4d7:	00 b1 67 10 c0 01    	add    %dh,0x1c01067(%ecx)
 4dd:	00 00                	add    %al,(%eax)
 4df:	00 1c 00             	add    %bl,(%eax,%eax,1)
 4e2:	00 00                	add    %al,(%eax)
 4e4:	8c 04 00             	mov    %es,(%eax,%eax,1)
 4e7:	00 b2 67 10 c0 37    	add    %dh,0x37c01067(%edx)
 4ed:	00 00                	add    %al,(%eax)
 4ef:	00 41 0e             	add    %al,0xe(%ecx)
 4f2:	08 85 02 42 0d 05    	or     %al,0x50d4202(%ebp)
 4f8:	73 c5                	jae    4bf <start_-0xffb4d>
 4fa:	0c 04                	or     $0x4,%al
 4fc:	04 00                	add    $0x0,%al
 4fe:	00 00                	add    %al,(%eax)
 500:	2c 00                	sub    $0x0,%al
 502:	00 00                	add    %al,(%eax)
 504:	8c 04 00             	mov    %es,(%eax,%eax,1)
 507:	00 e9                	add    %ch,%cl
 509:	67 10 c0             	addr16 adc %al,%al
 50c:	41                   	inc    %ecx
 50d:	01 00                	add    %eax,(%eax)
 50f:	00 41 0e             	add    %al,0xe(%ecx)
 512:	08 85 02 42 0d 05    	or     %al,0x50d4202(%ebp)
 518:	46                   	inc    %esi
 519:	87 03                	xchg   %eax,(%ebx)
 51b:	86 04 83             	xchg   %al,(%ebx,%eax,4)
 51e:	05 02 b4 0a c3       	add    $0xc30ab402,%eax
 523:	41                   	inc    %ecx
 524:	c6 41 c7 41          	movb   $0x41,-0x39(%ecx)
 528:	c5 0c 04             	lds    (%esp,%eax,1),%ecx
 52b:	04 41                	add    $0x41,%al
 52d:	0b 00                	or     (%eax),%eax
 52f:	00 28                	add    %ch,(%eax)
 531:	00 00                	add    %al,(%eax)
 533:	00 8c 04 00 00 2a 69 	add    %cl,0x692a0000(%esp,%eax,1)
 53a:	10 c0                	adc    %al,%al
 53c:	3b 00                	cmp    (%eax),%eax
 53e:	00 00                	add    %al,(%eax)
 540:	41                   	inc    %ecx
 541:	0e                   	push   %cs
 542:	08 85 02 42 0d 05    	or     %al,0x50d4202(%ebp)
 548:	42                   	inc    %edx
 549:	86 03                	xchg   %al,(%ebx)
 54b:	83 04 65 0a c3 41 c6 	addl   $0x41,-0x39be3cf6(,%eiz,2)
 552:	41 
 553:	c5 0c 04             	lds    (%esp,%eax,1),%ecx
 556:	04 41                	add    $0x41,%al
 558:	0b 00                	or     (%eax),%eax
 55a:	00 00                	add    %al,(%eax)
 55c:	28 00                	sub    %al,(%eax)
 55e:	00 00                	add    %al,(%eax)
 560:	8c 04 00             	mov    %es,(%eax,%eax,1)
 563:	00 65 69             	add    %ah,0x69(%ebp)
 566:	10 c0                	adc    %al,%al
 568:	55                   	push   %ebp
 569:	00 00                	add    %al,(%eax)
 56b:	00 41 0e             	add    %al,0xe(%ecx)
 56e:	08 85 02 42 0d 05    	or     %al,0x50d4202(%ebp)
 574:	42                   	inc    %edx
 575:	86 03                	xchg   %al,(%ebx)
 577:	83 04 78 0a          	addl   $0xa,(%eax,%edi,2)
 57b:	c3                   	ret    
 57c:	41                   	inc    %ecx
 57d:	c6 41 c5 0c          	movb   $0xc,-0x3b(%ecx)
 581:	04 04                	add    $0x4,%al
 583:	41                   	inc    %ecx
 584:	0b 00                	or     (%eax),%eax
 586:	00 00                	add    %al,(%eax)
 588:	1c 00                	sbb    $0x0,%al
 58a:	00 00                	add    %al,(%eax)
 58c:	8c 04 00             	mov    %es,(%eax,%eax,1)
 58f:	00 ba 69 10 c0 4c    	add    %bh,0x4cc01069(%edx)
 595:	00 00                	add    %al,(%eax)
 597:	00 41 0e             	add    %al,0xe(%ecx)
 59a:	08 85 02 42 0d 05    	or     %al,0x50d4202(%ebp)
 5a0:	7a 0a                	jp     5ac <start_-0xffa60>
 5a2:	c5 0c 04             	lds    (%esp,%eax,1),%ecx
 5a5:	04 41                	add    $0x41,%al
 5a7:	0b 10                	or     (%eax),%edx
 5a9:	00 00                	add    %al,(%eax)
 5ab:	00 ff                	add    %bh,%bh
 5ad:	ff                   	(bad)  
 5ae:	ff                   	(bad)  
 5af:	ff 01                	incl   (%ecx)
 5b1:	00 01                	add    %al,(%ecx)
 5b3:	7c 08                	jl     5bd <start_-0xffa4f>
 5b5:	0c 04                	or     $0x4,%al
 5b7:	04 88                	add    $0x88,%al
 5b9:	01 00                	add    %eax,(%eax)
 5bb:	00 1c 00             	add    %bl,(%eax,%eax,1)
 5be:	00 00                	add    %al,(%eax)
 5c0:	a8 05                	test   $0x5,%al
 5c2:	00 00                	add    %al,(%eax)
 5c4:	06                   	push   %es
 5c5:	6a 10                	push   $0x10
 5c7:	c0 0d 00 00 00 41 0e 	rorb   $0xe,0x41000000
 5ce:	08 85 02 42 0d 05    	or     %al,0x50d4202(%ebp)
 5d4:	49                   	dec    %ecx
 5d5:	c5 0c 04             	lds    (%esp,%eax,1),%ecx
 5d8:	04 00                	add    $0x0,%al
 5da:	00 00                	add    %al,(%eax)
 5dc:	1c 00                	sbb    $0x0,%al
 5de:	00 00                	add    %al,(%eax)
 5e0:	a8 05                	test   $0x5,%al
 5e2:	00 00                	add    %al,(%eax)
 5e4:	13 6a 10             	adc    0x10(%edx),%ebp
 5e7:	c0 19 00             	rcrb   $0x0,(%ecx)
 5ea:	00 00                	add    %al,(%eax)
 5ec:	41                   	inc    %ecx
 5ed:	0e                   	push   %cs
 5ee:	08 85 02 42 0d 05    	or     %al,0x50d4202(%ebp)
 5f4:	55                   	push   %ebp
 5f5:	c5 0c 04             	lds    (%esp,%eax,1),%ecx
 5f8:	04 00                	add    $0x0,%al
 5fa:	00 00                	add    %al,(%eax)
 5fc:	1c 00                	sbb    $0x0,%al
 5fe:	00 00                	add    %al,(%eax)
 600:	a8 05                	test   $0x5,%al
 602:	00 00                	add    %al,(%eax)
 604:	2c 6a                	sub    $0x6a,%al
 606:	10 c0                	adc    %al,%al
 608:	5d                   	pop    %ebp
 609:	00 00                	add    %al,(%eax)
 60b:	00 41 0e             	add    %al,0xe(%ecx)
 60e:	08 85 02 42 0d 05    	or     %al,0x50d4202(%ebp)
 614:	02 59 c5             	add    -0x3b(%ecx),%bl
 617:	0c 04                	or     $0x4,%al
 619:	04 00                	add    $0x0,%al
 61b:	00 20                	add    %ah,(%eax)
 61d:	00 00                	add    %al,(%eax)
 61f:	00 a8 05 00 00 89    	add    %ch,-0x76fffffb(%eax)
 625:	6a 10                	push   $0x10
 627:	c0 8f 00 00 00 41 0e 	rorb   $0xe,0x41000000(%edi)
 62e:	08 85 02 42 0d 05    	or     %al,0x50d4202(%ebp)
 634:	02 84 0a c5 0c 04 04 	add    0x4040cc5(%edx,%ecx,1),%al
 63b:	41                   	inc    %ecx
 63c:	0b 00                	or     (%eax),%eax
 63e:	00 00                	add    %al,(%eax)
 640:	20 00                	and    %al,(%eax)
 642:	00 00                	add    %al,(%eax)
 644:	a8 05                	test   $0x5,%al
 646:	00 00                	add    %al,(%eax)
 648:	18 6b 10             	sbb    %ch,0x10(%ebx)
 64b:	c0 2a 00             	shrb   $0x0,(%edx)
 64e:	00 00                	add    %al,(%eax)
 650:	41                   	inc    %ecx
 651:	0e                   	push   %cs
 652:	08 85 02 42 0d 05    	or     %al,0x50d4202(%ebp)
 658:	44                   	inc    %esp
 659:	83 03 62             	addl   $0x62,(%ebx)
 65c:	c5 c3 0c             	(bad)
 65f:	04 04                	add    $0x4,%al
 661:	00 00                	add    %al,(%eax)
 663:	00 0c 00             	add    %cl,(%eax,%eax,1)
 666:	00 00                	add    %al,(%eax)
 668:	a8 05                	test   $0x5,%al
 66a:	00 00                	add    %al,(%eax)
 66c:	42                   	inc    %edx
 66d:	6b 10 c0             	imul   $0xffffffc0,(%eax),%edx
 670:	36 00 00             	add    %al,%ss:(%eax)
 673:	00 1c 00             	add    %bl,(%eax,%eax,1)
 676:	00 00                	add    %al,(%eax)
 678:	a8 05                	test   $0x5,%al
 67a:	00 00                	add    %al,(%eax)
 67c:	78 6b                	js     6e9 <start_-0xff923>
 67e:	10 c0                	adc    %al,%al
 680:	15 00 00 00 41       	adc    $0x41000000,%eax
 685:	0e                   	push   %cs
 686:	08 85 02 42 0d 05    	or     %al,0x50d4202(%ebp)
 68c:	51                   	push   %ecx
 68d:	c5 0c 04             	lds    (%esp,%eax,1),%ecx
 690:	04 00                	add    $0x0,%al
 692:	00 00                	add    %al,(%eax)
 694:	10 00                	adc    %al,(%eax)
 696:	00 00                	add    %al,(%eax)
 698:	ff                   	(bad)  
 699:	ff                   	(bad)  
 69a:	ff                   	(bad)  
 69b:	ff 01                	incl   (%ecx)
 69d:	00 01                	add    %al,(%ecx)
 69f:	7c 08                	jl     6a9 <start_-0xff963>
 6a1:	0c 04                	or     $0x4,%al
 6a3:	04 88                	add    $0x88,%al
 6a5:	01 00                	add    %eax,(%eax)
 6a7:	00 20                	add    %ah,(%eax)
 6a9:	00 00                	add    %al,(%eax)
 6ab:	00 94 06 00 00 29 6d 	add    %dl,0x6d290000(%esi,%eax,1)
 6b2:	10 c0                	adc    %al,%al
 6b4:	2d 00 00 00 41       	sub    $0x41000000,%eax
 6b9:	0e                   	push   %cs
 6ba:	08 85 02 42 0d 05    	or     %al,0x50d4202(%ebp)
 6c0:	47                   	inc    %edi
 6c1:	83 03 62             	addl   $0x62,(%ebx)
 6c4:	c5 c3 0c             	(bad)
 6c7:	04 04                	add    $0x4,%al
 6c9:	00 00                	add    %al,(%eax)
 6cb:	00 10                	add    %dl,(%eax)
 6cd:	00 00                	add    %al,(%eax)
 6cf:	00 ff                	add    %bh,%bh
 6d1:	ff                   	(bad)  
 6d2:	ff                   	(bad)  
 6d3:	ff 01                	incl   (%ecx)
 6d5:	00 01                	add    %al,(%ecx)
 6d7:	7c 08                	jl     6e1 <start_-0xff92b>
 6d9:	0c 04                	or     $0x4,%al
 6db:	04 88                	add    $0x88,%al
 6dd:	01 00                	add    %eax,(%eax)
 6df:	00 28                	add    %ch,(%eax)
 6e1:	00 00                	add    %al,(%eax)
 6e3:	00 cc                	add    %cl,%ah
 6e5:	06                   	push   %es
 6e6:	00 00                	add    %al,(%eax)
 6e8:	56                   	push   %esi
 6e9:	6d                   	insl   (%dx),%es:(%edi)
 6ea:	10 c0                	adc    %al,%al
 6ec:	cf                   	iret   
 6ed:	01 00                	add    %eax,(%eax)
 6ef:	00 41 0e             	add    %al,0xe(%ecx)
 6f2:	08 85 02 42 0d 05    	or     %al,0x50d4202(%ebp)
 6f8:	46                   	inc    %esi
 6f9:	87 03                	xchg   %eax,(%ebx)
 6fb:	86 04 83             	xchg   %al,(%ebx,%eax,4)
 6fe:	05 03 c2 01 c3       	add    $0xc301c203,%eax
 703:	41                   	inc    %ecx
 704:	c6 41 c7 41          	movb   $0x41,-0x39(%ecx)
 708:	c5 0c 04             	lds    (%esp,%eax,1),%ecx
 70b:	04 1c                	add    $0x1c,%al
 70d:	00 00                	add    %al,(%eax)
 70f:	00 cc                	add    %cl,%ah
 711:	06                   	push   %es
 712:	00 00                	add    %al,(%eax)
 714:	25 6f 10 c0 1a       	and    $0x1ac0106f,%eax
 719:	00 00                	add    %al,(%eax)
 71b:	00 41 0e             	add    %al,0xe(%ecx)
 71e:	08 85 02 42 0d 05    	or     %al,0x50d4202(%ebp)
 724:	56                   	push   %esi
 725:	c5 0c 04             	lds    (%esp,%eax,1),%ecx
 728:	04 00                	add    $0x0,%al
 72a:	00 00                	add    %al,(%eax)
 72c:	10 00                	adc    %al,(%eax)
 72e:	00 00                	add    %al,(%eax)
 730:	ff                   	(bad)  
 731:	ff                   	(bad)  
 732:	ff                   	(bad)  
 733:	ff 01                	incl   (%ecx)
 735:	00 01                	add    %al,(%ecx)
 737:	7c 08                	jl     741 <start_-0xff8cb>
 739:	0c 04                	or     $0x4,%al
 73b:	04 88                	add    $0x88,%al
 73d:	01 00                	add    %eax,(%eax)
 73f:	00 28                	add    %ch,(%eax)
 741:	00 00                	add    %al,(%eax)
 743:	00 2c 07             	add    %ch,(%edi,%eax,1)
 746:	00 00                	add    %al,(%eax)
 748:	3f                   	aas    
 749:	6f                   	outsl  %ds:(%esi),(%dx)
 74a:	10 c0                	adc    %al,%al
 74c:	7f 00                	jg     74e <start_-0xff8be>
 74e:	00 00                	add    %al,(%eax)
 750:	41                   	inc    %ecx
 751:	0e                   	push   %cs
 752:	08 85 02 42 0d 05    	or     %al,0x50d4202(%ebp)
 758:	46                   	inc    %esi
 759:	87 03                	xchg   %eax,(%ebx)
 75b:	86 04 83             	xchg   %al,(%ebx,%eax,4)
 75e:	05 02 72 c3 41       	add    $0x41c37202,%eax
 763:	c6 41 c7 41          	movb   $0x41,-0x39(%ecx)
 767:	c5 0c 04             	lds    (%esp,%eax,1),%ecx
 76a:	04 00                	add    $0x0,%al
 76c:	2c 00                	sub    $0x0,%al
 76e:	00 00                	add    %al,(%eax)
 770:	2c 07                	sub    $0x7,%al
 772:	00 00                	add    %al,(%eax)
 774:	be 6f 10 c0 52       	mov    $0x52c0106f,%esi
 779:	00 00                	add    %al,(%eax)
 77b:	00 41 0e             	add    %al,0xe(%ecx)
 77e:	08 85 02 42 0d 05    	or     %al,0x50d4202(%ebp)
 784:	43                   	inc    %ebx
 785:	87 03                	xchg   %eax,(%ebx)
 787:	86 04 83             	xchg   %al,(%ebx,%eax,4)
 78a:	05 78 0a c3 41       	add    $0x41c30a78,%eax
 78f:	c6 41 c7 41          	movb   $0x41,-0x39(%ecx)
 793:	c5 0c 04             	lds    (%esp,%eax,1),%ecx
 796:	04 41                	add    $0x41,%al
 798:	0b 00                	or     (%eax),%eax
 79a:	00 00                	add    %al,(%eax)
 79c:	1c 00                	sbb    $0x0,%al
 79e:	00 00                	add    %al,(%eax)
 7a0:	2c 07                	sub    $0x7,%al
 7a2:	00 00                	add    %al,(%eax)
 7a4:	10 70 10             	adc    %dh,0x10(%eax)
 7a7:	c0 15 00 00 00 41 0e 	rclb   $0xe,0x41000000
 7ae:	08 85 02 42 0d 05    	or     %al,0x50d4202(%ebp)
 7b4:	51                   	push   %ecx
 7b5:	c5 0c 04             	lds    (%esp,%eax,1),%ecx
 7b8:	04 00                	add    $0x0,%al
 7ba:	00 00                	add    %al,(%eax)
 7bc:	10 00                	adc    %al,(%eax)
 7be:	00 00                	add    %al,(%eax)
 7c0:	ff                   	(bad)  
 7c1:	ff                   	(bad)  
 7c2:	ff                   	(bad)  
 7c3:	ff 01                	incl   (%ecx)
 7c5:	00 01                	add    %al,(%ecx)
 7c7:	7c 08                	jl     7d1 <start_-0xff83b>
 7c9:	0c 04                	or     $0x4,%al
 7cb:	04 88                	add    $0x88,%al
 7cd:	01 00                	add    %eax,(%eax)
 7cf:	00 24 00             	add    %ah,(%eax,%eax,1)
 7d2:	00 00                	add    %al,(%eax)
 7d4:	bc 07 00 00 25       	mov    $0x25000007,%esp
 7d9:	70 10                	jo     7eb <start_-0xff821>
 7db:	c0 29 00             	shrb   $0x0,(%ecx)
 7de:	00 00                	add    %al,(%eax)
 7e0:	41                   	inc    %ecx
 7e1:	0e                   	push   %cs
 7e2:	08 85 02 42 0d 05    	or     %al,0x50d4202(%ebp)
 7e8:	42                   	inc    %edx
 7e9:	86 03                	xchg   %al,(%ebx)
 7eb:	83 04 61 c3          	addl   $0xffffffc3,(%ecx,%eiz,2)
 7ef:	41                   	inc    %ecx
 7f0:	c6 41 c5 0c          	movb   $0xc,-0x3b(%ecx)
 7f4:	04 04                	add    $0x4,%al
 7f6:	00 00                	add    %al,(%eax)
 7f8:	28 00                	sub    %al,(%eax)
 7fa:	00 00                	add    %al,(%eax)
 7fc:	bc 07 00 00 4e       	mov    $0x4e000007,%esp
 801:	70 10                	jo     813 <start_-0xff7f9>
 803:	c0 3d 00 00 00 41 0e 	sarb   $0xe,0x41000000
 80a:	08 85 02 42 0d 05    	or     %al,0x50d4202(%ebp)
 810:	42                   	inc    %edx
 811:	86 03                	xchg   %al,(%ebx)
 813:	83 04 65 0a c3 41 c6 	addl   $0x41,-0x39be3cf6(,%eiz,2)
 81a:	41 
 81b:	c5 0c 04             	lds    (%esp,%eax,1),%ecx
 81e:	04 41                	add    $0x41,%al
 820:	0b 00                	or     (%eax),%eax
 822:	00 00                	add    %al,(%eax)
 824:	20 00                	and    %al,(%eax)
 826:	00 00                	add    %al,(%eax)
 828:	bc 07 00 00 8b       	mov    $0x8b000007,%esp
 82d:	70 10                	jo     83f <start_-0xff7cd>
 82f:	c0 25 00 00 00 41 0e 	shlb   $0xe,0x41000000
 836:	08 85 02 42 0d 05    	or     %al,0x50d4202(%ebp)
 83c:	41                   	inc    %ecx
 83d:	83 03 60             	addl   $0x60,(%ebx)
 840:	c5 c3 0c             	(bad)
 843:	04 04                	add    $0x4,%al
 845:	00 00                	add    %al,(%eax)
 847:	00 28                	add    %ch,(%eax)
 849:	00 00                	add    %al,(%eax)
 84b:	00 bc 07 00 00 b0 70 	add    %bh,0x70b00000(%edi,%eax,1)
 852:	10 c0                	adc    %al,%al
 854:	35 00 00 00 41       	xor    $0x41000000,%eax
 859:	0e                   	push   %cs
 85a:	08 85 02 42 0d 05    	or     %al,0x50d4202(%ebp)
 860:	43                   	inc    %ebx
 861:	87 03                	xchg   %eax,(%ebx)
 863:	86 04 83             	xchg   %al,(%ebx,%eax,4)
 866:	05 6b c3 41 c6       	add    $0xc641c36b,%eax
 86b:	41                   	inc    %ecx
 86c:	c7 41 c5 0c 04 04 00 	movl   $0x4040c,-0x3b(%ecx)
 873:	00 10                	add    %dl,(%eax)
 875:	00 00                	add    %al,(%eax)
 877:	00 ff                	add    %bh,%bh
 879:	ff                   	(bad)  
 87a:	ff                   	(bad)  
 87b:	ff 01                	incl   (%ecx)
 87d:	00 01                	add    %al,(%ecx)
 87f:	7c 08                	jl     889 <start_-0xff783>
 881:	0c 04                	or     $0x4,%al
 883:	04 88                	add    $0x88,%al
 885:	01 00                	add    %eax,(%eax)
 887:	00 20                	add    %ah,(%eax)
 889:	00 00                	add    %al,(%eax)
 88b:	00 74 08 00          	add    %dh,0x0(%eax,%ecx,1)
 88f:	00 e5                	add    %ah,%ch
 891:	70 10                	jo     8a3 <start_-0xff769>
 893:	c0 2a 00             	shrb   $0x0,(%edx)
 896:	00 00                	add    %al,(%eax)
 898:	41                   	inc    %ecx
 899:	0e                   	push   %cs
 89a:	08 85 02 42 0d 05    	or     %al,0x50d4202(%ebp)
 8a0:	41                   	inc    %ecx
 8a1:	83 03 65             	addl   $0x65,(%ebx)
 8a4:	c5 c3 0c             	(bad)
 8a7:	04 04                	add    $0x4,%al
 8a9:	00 00                	add    %al,(%eax)
 8ab:	00 10                	add    %dl,(%eax)
 8ad:	00 00                	add    %al,(%eax)
 8af:	00 ff                	add    %bh,%bh
 8b1:	ff                   	(bad)  
 8b2:	ff                   	(bad)  
 8b3:	ff 01                	incl   (%ecx)
 8b5:	00 01                	add    %al,(%ecx)
 8b7:	7c 08                	jl     8c1 <start_-0xff74b>
 8b9:	0c 04                	or     $0x4,%al
 8bb:	04 88                	add    $0x88,%al
 8bd:	01 00                	add    %eax,(%eax)
 8bf:	00 1c 00             	add    %bl,(%eax,%eax,1)
 8c2:	00 00                	add    %al,(%eax)
 8c4:	ac                   	lods   %ds:(%esi),%al
 8c5:	08 00                	or     %al,(%eax)
 8c7:	00 0f                	add    %cl,(%edi)
 8c9:	71 10                	jno    8db <start_-0xff731>
 8cb:	c0 18 00             	rcrb   $0x0,(%eax)
 8ce:	00 00                	add    %al,(%eax)
 8d0:	41                   	inc    %ecx
 8d1:	0e                   	push   %cs
 8d2:	08 85 02 42 0d 05    	or     %al,0x50d4202(%ebp)
 8d8:	54                   	push   %esp
 8d9:	c5 0c 04             	lds    (%esp,%eax,1),%ecx
 8dc:	04 00                	add    $0x0,%al
	...

Disassembly of section .debug_rnglists:

00000000 <.debug_rnglists>:
   0:	1a 00                	sbb    (%eax),%al
   2:	00 00                	add    %al,(%eax)
   4:	05 00 04 00 00       	add    $0x400,%eax
   9:	00 00                	add    %al,(%eax)
   b:	00 04 53             	add    %al,(%ebx,%edx,2)
   e:	6b 04 6f 76          	imul   $0x76,(%edi,%ebp,2),%eax
  12:	00 04 ae             	add    %al,(%esi,%ebp,4)
  15:	01 ae 01 04 ca 01    	add    %ebp,0x1ca0401(%esi)
  1b:	e3 02                	jecxz  1f <start_-0xfffed>
  1d:	00 1e                	add    %bl,(%esi)
  1f:	00 00                	add    %al,(%eax)
  21:	00 05 00 04 00 00    	add    %al,0x400
  27:	00 00                	add    %al,(%eax)
  29:	00 04 d5 02 e1 02 04 	add    %al,0x402e102(,%edx,8)
  30:	8a 03                	mov    (%ebx),%al
  32:	ad                   	lods   %ds:(%esi),%eax
  33:	03 00                	add    (%eax),%eax
  35:	04 80                	add    $0x80,%al
  37:	03 8a 03 04 ad 03    	add    0x3ad0403(%edx),%ecx
  3d:	d2 03                	rolb   %cl,(%ebx)
  3f:	00 1e                	add    %bl,(%esi)
  41:	00 00                	add    %al,(%eax)
  43:	00 05 00 04 00 00    	add    %al,0x400
  49:	00 00                	add    %al,(%eax)
  4b:	00 04 8e             	add    %al,(%esi,%ecx,4)
  4e:	01 95 01 04 9a 01    	add    %edx,0x19a0401(%ebp)
  54:	b3 01                	mov    $0x1,%bl
  56:	00 04 c3             	add    %al,(%ebx,%eax,8)
  59:	02 ca                	add    %dl,%cl
  5b:	02 04 cf             	add    (%edi,%ecx,8),%al
  5e:	02 e8                	add    %al,%ch
  60:	02 00                	add    (%eax),%al
  62:	13 00                	adc    (%eax),%eax
  64:	00 00                	add    %al,(%eax)
  66:	05 00 04 00 00       	add    $0x400,%eax
  6b:	00 00                	add    %al,(%eax)
  6d:	00 04 f5 03 8d 04 04 	add    %al,0x4048d03(,%esi,8)
  74:	94                   	xchg   %eax,%esp
  75:	04 a9                	add    $0xa9,%al
  77:	04 00                	add    $0x0,%al

Disassembly of section .rodata:

c012a000 <.rodata>:
c012a000:	79 6e                	jns    c012a070 <base_char+0x1050>
c012a002:	10 c0                	adc    %al,%al
c012a004:	bd 6d 10 c0 bd       	mov    $0xbdc0106d,%ebp
c012a009:	6d                   	insl   (%dx),%es:(%edi)
c012a00a:	10 c0                	adc    %al,%al
c012a00c:	bd 6d 10 c0 bd       	mov    $0xbdc0106d,%ebp
c012a011:	6d                   	insl   (%dx),%es:(%edi)
c012a012:	10 c0                	adc    %al,%al
c012a014:	bd 6d 10 c0 bd       	mov    $0xbdc0106d,%ebp
c012a019:	6d                   	insl   (%dx),%es:(%edi)
c012a01a:	10 c0                	adc    %al,%al
c012a01c:	bd 6d 10 c0 bd       	mov    $0xbdc0106d,%ebp
c012a021:	6d                   	insl   (%dx),%es:(%edi)
c012a022:	10 c0                	adc    %al,%al
c012a024:	bd 6d 10 c0 bd       	mov    $0xbdc0106d,%ebp
c012a029:	6d                   	insl   (%dx),%es:(%edi)
c012a02a:	10 c0                	adc    %al,%al
c012a02c:	a5                   	movsl  %ds:(%esi),%es:(%edi)
c012a02d:	6d                   	insl   (%dx),%es:(%edi)
c012a02e:	10 c0                	adc    %al,%al
c012a030:	0d 6e 10 c0 bd       	or     $0xbdc0106e,%eax
c012a035:	6d                   	insl   (%dx),%es:(%edi)
c012a036:	10 c0                	adc    %al,%al
c012a038:	bd 6d 10 c0 bd       	mov    $0xbdc0106d,%ebp
c012a03d:	6d                   	insl   (%dx),%es:(%edi)
c012a03e:	10 c0                	adc    %al,%al
c012a040:	bd 6d 10 c0 0d       	mov    $0xdc0106d,%ebp
c012a045:	6e                   	outsb  %ds:(%esi),(%dx)
c012a046:	10 c0                	adc    %al,%al
c012a048:	bd 6d 10 c0 bd       	mov    $0xbdc0106d,%ebp
c012a04d:	6d                   	insl   (%dx),%es:(%edi)
c012a04e:	10 c0                	adc    %al,%al
c012a050:	bd 6d 10 c0 bd       	mov    $0xbdc0106d,%ebp
c012a055:	6d                   	insl   (%dx),%es:(%edi)
c012a056:	10 c0                	adc    %al,%al
c012a058:	bd 6d 10 c0 54       	mov    $0x54c0106d,%ebp
c012a05d:	6e                   	outsb  %ds:(%esi),(%dx)
c012a05e:	10 c0                	adc    %al,%al
c012a060:	d0 6e 10             	shrb   0x10(%esi)
c012a063:	c0 bd 6d 10 c0 bd 6d 	sarb   $0x6d,-0x423fef93(%ebp)
c012a06a:	10 c0                	adc    %al,%al
c012a06c:	e3 6d                	jecxz  c012a0db <base_char+0x10bb>
c012a06e:	10 c0                	adc    %al,%al
c012a070:	bd 6d 10 c0 2f       	mov    $0x2fc0106d,%ebp
c012a075:	6e                   	outsb  %ds:(%esi),(%dx)
c012a076:	10 c0                	adc    %al,%al
c012a078:	bd 6d 10 c0 bd       	mov    $0xbdc0106d,%ebp
c012a07d:	6d                   	insl   (%dx),%es:(%edi)
c012a07e:	10 c0                	adc    %al,%al
c012a080:	79 6e                	jns    c012a0f0 <base_char+0x10d0>
c012a082:	10 c0                	adc    %al,%al
